
LifePo4 HighPower power bank.elf:     file format elf32-littlearm

Sections:
Idx Name          Size      VMA       LMA       File off  Algn
  0 .text         0000b694  00000000  00000000  00010000  2**3
                  CONTENTS, ALLOC, LOAD, READONLY, CODE
  1 .ARM.exidx    00000008  0000b694  0000b694  0001b694  2**2
                  CONTENTS, ALLOC, LOAD, READONLY, DATA
  2 .relocate     000009c8  20000000  0000b69c  00020000  2**3
                  CONTENTS, ALLOC, LOAD, DATA
  3 .bss          000006ec  200009c8  0000c064  000209c8  2**2
                  ALLOC
  4 .stack        00002004  200010b4  0000c750  000209c8  2**0
                  ALLOC
  5 .ARM.attributes 0000002a  00000000  00000000  000209c8  2**0
                  CONTENTS, READONLY
  6 .comment      00000059  00000000  00000000  000209f2  2**0
                  CONTENTS, READONLY
  7 .debug_info   000eb796  00000000  00000000  00020a4b  2**0
                  CONTENTS, READONLY, DEBUGGING
  8 .debug_abbrev 00005c99  00000000  00000000  0010c1e1  2**0
                  CONTENTS, READONLY, DEBUGGING
  9 .debug_loc    000533c9  00000000  00000000  00111e7a  2**0
                  CONTENTS, READONLY, DEBUGGING
 10 .debug_aranges 00003780  00000000  00000000  00165243  2**0
                  CONTENTS, READONLY, DEBUGGING
 11 .debug_ranges 000036c0  00000000  00000000  001689c3  2**0
                  CONTENTS, READONLY, DEBUGGING
 12 .debug_macro  000160a7  00000000  00000000  0016c083  2**0
                  CONTENTS, READONLY, DEBUGGING
 13 .debug_line   0001b750  00000000  00000000  0018212a  2**0
                  CONTENTS, READONLY, DEBUGGING
 14 .debug_str    000786fe  00000000  00000000  0019d87a  2**0
                  CONTENTS, READONLY, DEBUGGING
 15 .debug_frame  0000c3b8  00000000  00000000  00215f78  2**2
                  CONTENTS, READONLY, DEBUGGING

Disassembly of section .text:

00000000 <exception_table>:
       0:	b8 30 00 20 55 13 00 00 51 13 00 00 51 13 00 00     .0. U...Q...Q...
	...
      2c:	51 13 00 00 00 00 00 00 00 00 00 00 51 13 00 00     Q...........Q...
      3c:	51 13 00 00 51 13 00 00 51 13 00 00 51 13 00 00     Q...Q...Q...Q...
      4c:	51 13 00 00 d1 1b 00 00 51 13 00 00 51 13 00 00     Q.......Q...Q...
      5c:	51 13 00 00 51 13 00 00 51 13 00 00 51 13 00 00     Q...Q...Q...Q...
      6c:	51 13 00 00 51 13 00 00 51 13 00 00 51 13 00 00     Q...Q...Q...Q...
      7c:	51 13 00 00 51 13 00 00 51 13 00 00 51 13 00 00     Q...Q...Q...Q...
      8c:	51 13 00 00 51 13 00 00 51 13 00 00 51 13 00 00     Q...Q...Q...Q...
      9c:	51 13 00 00 51 13 00 00                             Q...Q...

000000a4 <__do_global_dtors_aux>:
      a4:	b510      	push	{r4, lr}
      a6:	4c06      	ldr	r4, [pc, #24]	; (c0 <__do_global_dtors_aux+0x1c>)
      a8:	7823      	ldrb	r3, [r4, #0]
      aa:	2b00      	cmp	r3, #0
      ac:	d107      	bne.n	be <__do_global_dtors_aux+0x1a>
      ae:	4b05      	ldr	r3, [pc, #20]	; (c4 <__do_global_dtors_aux+0x20>)
      b0:	2b00      	cmp	r3, #0
      b2:	d002      	beq.n	ba <__do_global_dtors_aux+0x16>
      b4:	4804      	ldr	r0, [pc, #16]	; (c8 <__do_global_dtors_aux+0x24>)
      b6:	e000      	b.n	ba <__do_global_dtors_aux+0x16>
      b8:	bf00      	nop
      ba:	2301      	movs	r3, #1
      bc:	7023      	strb	r3, [r4, #0]
      be:	bd10      	pop	{r4, pc}
      c0:	200009c8 	.word	0x200009c8
      c4:	00000000 	.word	0x00000000
      c8:	0000b69c 	.word	0x0000b69c

000000cc <frame_dummy>:
      cc:	4b08      	ldr	r3, [pc, #32]	; (f0 <frame_dummy+0x24>)
      ce:	b510      	push	{r4, lr}
      d0:	2b00      	cmp	r3, #0
      d2:	d003      	beq.n	dc <frame_dummy+0x10>
      d4:	4907      	ldr	r1, [pc, #28]	; (f4 <frame_dummy+0x28>)
      d6:	4808      	ldr	r0, [pc, #32]	; (f8 <frame_dummy+0x2c>)
      d8:	e000      	b.n	dc <frame_dummy+0x10>
      da:	bf00      	nop
      dc:	4807      	ldr	r0, [pc, #28]	; (fc <frame_dummy+0x30>)
      de:	6803      	ldr	r3, [r0, #0]
      e0:	2b00      	cmp	r3, #0
      e2:	d100      	bne.n	e6 <frame_dummy+0x1a>
      e4:	bd10      	pop	{r4, pc}
      e6:	4b06      	ldr	r3, [pc, #24]	; (100 <frame_dummy+0x34>)
      e8:	2b00      	cmp	r3, #0
      ea:	d0fb      	beq.n	e4 <frame_dummy+0x18>
      ec:	4798      	blx	r3
      ee:	e7f9      	b.n	e4 <frame_dummy+0x18>
      f0:	00000000 	.word	0x00000000
      f4:	200009cc 	.word	0x200009cc
      f8:	0000b69c 	.word	0x0000b69c
      fc:	0000b69c 	.word	0x0000b69c
     100:	00000000 	.word	0x00000000

00000104 <atmel_start_init>:

/**
 * Initializes MCU, drivers and middleware in the project
 **/
void atmel_start_init(void)
{
     104:	b510      	push	{r4, lr}
	system_init();
     106:	f001 f99b 	bl	1440 <system_init>
}
     10a:	bd10      	pop	{r4, pc}

0000010c <u8g2_DrawRFrame>:
  }
}


void u8g2_DrawRFrame(u8g2_t *u8g2, u8g2_uint_t x, u8g2_uint_t y, u8g2_uint_t w, u8g2_uint_t h, u8g2_uint_t r)
{
     10c:	b5f0      	push	{r4, r5, r6, r7, lr}
     10e:	46de      	mov	lr, fp
     110:	4657      	mov	r7, sl
     112:	464e      	mov	r6, r9
     114:	4645      	mov	r5, r8
     116:	b5e0      	push	{r5, r6, r7, lr}
     118:	b087      	sub	sp, #28
     11a:	9003      	str	r0, [sp, #12]
     11c:	000d      	movs	r5, r1
     11e:	9204      	str	r2, [sp, #16]
     120:	4698      	mov	r8, r3
     122:	ab10      	add	r3, sp, #64	; 0x40
     124:	881b      	ldrh	r3, [r3, #0]
     126:	469a      	mov	sl, r3
     128:	ab11      	add	r3, sp, #68	; 0x44
     12a:	881e      	ldrh	r6, [r3, #0]
  u8g2_uint_t xl, yu;

#ifdef U8G2_WITH_INTERSECTION
  if ( u8g2_IsIntersection(u8g2, x, y, x+w, y+h) == 0 ) 
     12c:	4643      	mov	r3, r8
     12e:	18cc      	adds	r4, r1, r3
     130:	b2a4      	uxth	r4, r4
     132:	0013      	movs	r3, r2
     134:	4453      	add	r3, sl
     136:	b29f      	uxth	r7, r3
     138:	9700      	str	r7, [sp, #0]
     13a:	0023      	movs	r3, r4
     13c:	f000 fd84 	bl	c48 <u8g2_IsIntersection>
     140:	2800      	cmp	r0, #0
     142:	d106      	bne.n	152 <u8g2_DrawRFrame+0x46>
      w--;
      u8g2_DrawVLine(u8g2, x, yu, hh);
      u8g2_DrawVLine(u8g2, x+w, yu, hh);
    }
  }
}
     144:	b007      	add	sp, #28
     146:	bc3c      	pop	{r2, r3, r4, r5}
     148:	4690      	mov	r8, r2
     14a:	4699      	mov	r9, r3
     14c:	46a2      	mov	sl, r4
     14e:	46ab      	mov	fp, r5
     150:	bdf0      	pop	{r4, r5, r6, r7, pc}
  xl += r;
     152:	19ab      	adds	r3, r5, r6
     154:	b29b      	uxth	r3, r3
     156:	469b      	mov	fp, r3
  yu += r;
     158:	9b04      	ldr	r3, [sp, #16]
     15a:	199b      	adds	r3, r3, r6
     15c:	b29b      	uxth	r3, r3
     15e:	001a      	movs	r2, r3
    xr -= r;
     160:	1ba4      	subs	r4, r4, r6
     162:	b2a4      	uxth	r4, r4
    xr -= 1;
     164:	3c01      	subs	r4, #1
     166:	b2a3      	uxth	r3, r4
     168:	9305      	str	r3, [sp, #20]
    yl -= r; 
     16a:	1bbc      	subs	r4, r7, r6
     16c:	b2a4      	uxth	r4, r4
    yl -= 1;
     16e:	3c01      	subs	r4, #1
     170:	b2a4      	uxth	r4, r4
    u8g2_DrawCircle(u8g2, xl, yu, r, U8G2_DRAW_UPPER_LEFT);
     172:	2302      	movs	r3, #2
     174:	9300      	str	r3, [sp, #0]
     176:	0033      	movs	r3, r6
     178:	4691      	mov	r9, r2
     17a:	4659      	mov	r1, fp
     17c:	9f03      	ldr	r7, [sp, #12]
     17e:	0038      	movs	r0, r7
     180:	f000 f93d 	bl	3fe <u8g2_DrawCircle>
    u8g2_DrawCircle(u8g2, xr, yu, r, U8G2_DRAW_UPPER_RIGHT);
     184:	2301      	movs	r3, #1
     186:	9300      	str	r3, [sp, #0]
     188:	0033      	movs	r3, r6
     18a:	464a      	mov	r2, r9
     18c:	9905      	ldr	r1, [sp, #20]
     18e:	0038      	movs	r0, r7
     190:	f000 f935 	bl	3fe <u8g2_DrawCircle>
    u8g2_DrawCircle(u8g2, xl, yl, r, U8G2_DRAW_LOWER_LEFT);
     194:	2304      	movs	r3, #4
     196:	9300      	str	r3, [sp, #0]
     198:	0033      	movs	r3, r6
     19a:	0022      	movs	r2, r4
     19c:	4659      	mov	r1, fp
     19e:	0038      	movs	r0, r7
     1a0:	f000 f92d 	bl	3fe <u8g2_DrawCircle>
    u8g2_DrawCircle(u8g2, xr, yl, r, U8G2_DRAW_LOWER_RIGHT);
     1a4:	2308      	movs	r3, #8
     1a6:	9300      	str	r3, [sp, #0]
     1a8:	0033      	movs	r3, r6
     1aa:	0022      	movs	r2, r4
     1ac:	9905      	ldr	r1, [sp, #20]
     1ae:	0038      	movs	r0, r7
     1b0:	f000 f925 	bl	3fe <u8g2_DrawCircle>
    ww -= r;
     1b4:	4641      	mov	r1, r8
     1b6:	1b8f      	subs	r7, r1, r6
     1b8:	b2bf      	uxth	r7, r7
    ww -= r;
     1ba:	1bbf      	subs	r7, r7, r6
     1bc:	b2bf      	uxth	r7, r7
    hh -= r;
     1be:	4651      	mov	r1, sl
     1c0:	1b8c      	subs	r4, r1, r6
     1c2:	b2a4      	uxth	r4, r4
    hh -= r;
     1c4:	1ba4      	subs	r4, r4, r6
     1c6:	b2a4      	uxth	r4, r4
    xl++;
     1c8:	4659      	mov	r1, fp
     1ca:	1c4b      	adds	r3, r1, #1
     1cc:	b299      	uxth	r1, r3
     1ce:	468b      	mov	fp, r1
    yu++;
     1d0:	464a      	mov	r2, r9
     1d2:	1c53      	adds	r3, r2, #1
     1d4:	b29b      	uxth	r3, r3
     1d6:	4699      	mov	r9, r3
    if ( ww >= 3 )
     1d8:	2f02      	cmp	r7, #2
     1da:	d815      	bhi.n	208 <u8g2_DrawRFrame+0xfc>
    if ( hh >= 3 )
     1dc:	2c02      	cmp	r4, #2
     1de:	d9b1      	bls.n	144 <u8g2_DrawRFrame+0x38>
      hh -= 2;
     1e0:	3c02      	subs	r4, #2
     1e2:	b2a4      	uxth	r4, r4
      w--;
     1e4:	4646      	mov	r6, r8
     1e6:	3e01      	subs	r6, #1
     1e8:	b2b6      	uxth	r6, r6
      u8g2_DrawVLine(u8g2, x, yu, hh);
     1ea:	0023      	movs	r3, r4
     1ec:	464a      	mov	r2, r9
     1ee:	0029      	movs	r1, r5
     1f0:	9f03      	ldr	r7, [sp, #12]
     1f2:	0038      	movs	r0, r7
     1f4:	f000 fcf0 	bl	bd8 <u8g2_DrawVLine>
      u8g2_DrawVLine(u8g2, x+w, yu, hh);
     1f8:	19ad      	adds	r5, r5, r6
     1fa:	b2a9      	uxth	r1, r5
     1fc:	0023      	movs	r3, r4
     1fe:	464a      	mov	r2, r9
     200:	0038      	movs	r0, r7
     202:	f000 fce9 	bl	bd8 <u8g2_DrawVLine>
     206:	e79d      	b.n	144 <u8g2_DrawRFrame+0x38>
      ww -= 2;
     208:	3f02      	subs	r7, #2
     20a:	b2bf      	uxth	r7, r7
      h--;
     20c:	4652      	mov	r2, sl
     20e:	3a01      	subs	r2, #1
     210:	b293      	uxth	r3, r2
     212:	469a      	mov	sl, r3
      u8g2_DrawHLine(u8g2, xl, y, ww);
     214:	003b      	movs	r3, r7
     216:	9e04      	ldr	r6, [sp, #16]
     218:	0032      	movs	r2, r6
     21a:	9803      	ldr	r0, [sp, #12]
     21c:	f000 fcd4 	bl	bc8 <u8g2_DrawHLine>
      u8g2_DrawHLine(u8g2, xl, y+h, ww);
     220:	0033      	movs	r3, r6
     222:	4453      	add	r3, sl
     224:	b29a      	uxth	r2, r3
     226:	003b      	movs	r3, r7
     228:	4659      	mov	r1, fp
     22a:	9803      	ldr	r0, [sp, #12]
     22c:	f000 fccc 	bl	bc8 <u8g2_DrawHLine>
     230:	e7d4      	b.n	1dc <u8g2_DrawRFrame+0xd0>

00000232 <u8g2_send_tile_row>:
}

/*============================================*/

static void u8g2_send_tile_row(u8g2_t *u8g2, uint8_t src_tile_row, uint8_t dest_tile_row)
{
     232:	b510      	push	{r4, lr}
     234:	b082      	sub	sp, #8
  uint8_t *ptr;
  uint16_t offset;
  uint8_t w;
  
  w = u8g2_GetU8x8(u8g2)->display_info->tile_width;
     236:	6803      	ldr	r3, [r0, #0]
     238:	7c1b      	ldrb	r3, [r3, #16]
  offset = src_tile_row;
  ptr = u8g2->tile_buf_ptr;
  offset *= w;
     23a:	4359      	muls	r1, r3
  offset *= 8;
     23c:	00c9      	lsls	r1, r1, #3
     23e:	b289      	uxth	r1, r1
  ptr += offset;
     240:	6b44      	ldr	r4, [r0, #52]	; 0x34
     242:	46a4      	mov	ip, r4
     244:	4461      	add	r1, ip
  u8x8_DrawTile(u8g2_GetU8x8(u8g2), 0, dest_tile_row, w, ptr);
     246:	9100      	str	r1, [sp, #0]
     248:	2100      	movs	r1, #0
     24a:	f000 ff73 	bl	1134 <u8x8_DrawTile>
}
     24e:	b002      	add	sp, #8
     250:	bd10      	pop	{r4, pc}

00000252 <u8g2_send_buffer>:
  For most displays, this will make the content visible to the user.
  Some displays (like the SSD1606) require a u8x8_RefreshDisplay()
*/
static void u8g2_send_buffer(u8g2_t *u8g2) U8X8_NOINLINE;
static void u8g2_send_buffer(u8g2_t *u8g2)
{
     252:	b5f0      	push	{r4, r5, r6, r7, lr}
     254:	46c6      	mov	lr, r8
     256:	b500      	push	{lr}
     258:	0006      	movs	r6, r0
  uint8_t src_max;
  uint8_t dest_row;
  uint8_t dest_max;

  src_row = 0;
  src_max = u8g2->tile_buf_height;
     25a:	2338      	movs	r3, #56	; 0x38
     25c:	5cc7      	ldrb	r7, [r0, r3]
  dest_row = u8g2->tile_curr_row;
     25e:	3301      	adds	r3, #1
     260:	5cc5      	ldrb	r5, [r0, r3]
  dest_max = u8g2_GetU8x8(u8g2)->display_info->tile_height;
     262:	6803      	ldr	r3, [r0, #0]
     264:	7c5b      	ldrb	r3, [r3, #17]
     266:	4698      	mov	r8, r3
  src_row = 0;
     268:	2400      	movs	r4, #0
  
  do
  {
    u8g2_send_tile_row(u8g2, src_row, dest_row);
     26a:	002a      	movs	r2, r5
     26c:	0021      	movs	r1, r4
     26e:	0030      	movs	r0, r6
     270:	f7ff ffdf 	bl	232 <u8g2_send_tile_row>
    src_row++;
     274:	3401      	adds	r4, #1
     276:	b2e4      	uxtb	r4, r4
    dest_row++;
     278:	3501      	adds	r5, #1
     27a:	b2ed      	uxtb	r5, r5
  } while( src_row < src_max && dest_row < dest_max );
     27c:	42a7      	cmp	r7, r4
     27e:	d901      	bls.n	284 <u8g2_send_buffer+0x32>
     280:	45a8      	cmp	r8, r5
     282:	d8f2      	bhi.n	26a <u8g2_send_buffer+0x18>
}
     284:	bc04      	pop	{r2}
     286:	4690      	mov	r8, r2
     288:	bdf0      	pop	{r4, r5, r6, r7, pc}

0000028a <u8g2_ClearBuffer>:
{
     28a:	b510      	push	{r4, lr}
  cnt = u8g2_GetU8x8(u8g2)->display_info->tile_width;
     28c:	6803      	ldr	r3, [r0, #0]
     28e:	7c1b      	ldrb	r3, [r3, #16]
  cnt *= u8g2->tile_buf_height;
     290:	2238      	movs	r2, #56	; 0x38
     292:	5c82      	ldrb	r2, [r0, r2]
     294:	435a      	muls	r2, r3
  cnt *= 8;
     296:	00d2      	lsls	r2, r2, #3
  memset(u8g2->tile_buf_ptr, 0, cnt);
     298:	6b40      	ldr	r0, [r0, #52]	; 0x34
     29a:	2100      	movs	r1, #0
     29c:	f005 ffb0 	bl	6200 <memset>
}
     2a0:	bd10      	pop	{r4, pc}

000002a2 <u8g2_SendBuffer>:

/* same as u8g2_send_buffer but also send the DISPLAY_REFRESH message (used by SSD1606) */
void u8g2_SendBuffer(u8g2_t *u8g2)
{
     2a2:	b510      	push	{r4, lr}
     2a4:	0004      	movs	r4, r0
  u8g2_send_buffer(u8g2);
     2a6:	f7ff ffd4 	bl	252 <u8g2_send_buffer>
  u8x8_RefreshDisplay( u8g2_GetU8x8(u8g2) );  
     2aa:	0020      	movs	r0, r4
     2ac:	f000 ff74 	bl	1198 <u8x8_RefreshDisplay>
}
     2b0:	bd10      	pop	{r4, pc}

000002b2 <u8g2_draw_circle_section>:
/* Circle */

static void u8g2_draw_circle_section(u8g2_t *u8g2, u8g2_uint_t x, u8g2_uint_t y, u8g2_uint_t x0, u8g2_uint_t y0, uint8_t option) U8G2_NOINLINE;

static void u8g2_draw_circle_section(u8g2_t *u8g2, u8g2_uint_t x, u8g2_uint_t y, u8g2_uint_t x0, u8g2_uint_t y0, uint8_t option)
{
     2b2:	b5f0      	push	{r4, r5, r6, r7, lr}
     2b4:	46ce      	mov	lr, r9
     2b6:	b500      	push	{lr}
     2b8:	b082      	sub	sp, #8
     2ba:	9001      	str	r0, [sp, #4]
     2bc:	000e      	movs	r6, r1
     2be:	0015      	movs	r5, r2
     2c0:	001c      	movs	r4, r3
     2c2:	ab08      	add	r3, sp, #32
     2c4:	881b      	ldrh	r3, [r3, #0]
     2c6:	4699      	mov	r9, r3
     2c8:	ab09      	add	r3, sp, #36	; 0x24
     2ca:	781f      	ldrb	r7, [r3, #0]
    /* upper right */
    if ( option & U8G2_DRAW_UPPER_RIGHT )
     2cc:	07fb      	lsls	r3, r7, #31
     2ce:	d409      	bmi.n	2e4 <u8g2_draw_circle_section+0x32>
      u8g2_DrawPixel(u8g2, x0 + x, y0 - y);
      u8g2_DrawPixel(u8g2, x0 + y, y0 - x);
    }
    
    /* upper left */
    if ( option & U8G2_DRAW_UPPER_LEFT )
     2d0:	07bb      	lsls	r3, r7, #30
     2d2:	d417      	bmi.n	304 <u8g2_draw_circle_section+0x52>
      u8g2_DrawPixel(u8g2, x0 - x, y0 - y);
      u8g2_DrawPixel(u8g2, x0 - y, y0 - x);
    }
    
    /* lower right */
    if ( option & U8G2_DRAW_LOWER_RIGHT )
     2d4:	073b      	lsls	r3, r7, #28
     2d6:	d426      	bmi.n	326 <u8g2_draw_circle_section+0x74>
      u8g2_DrawPixel(u8g2, x0 + x, y0 + y);
      u8g2_DrawPixel(u8g2, x0 + y, y0 + x);
    }
    
    /* lower left */
    if ( option & U8G2_DRAW_LOWER_LEFT )
     2d8:	077b      	lsls	r3, r7, #29
     2da:	d435      	bmi.n	348 <u8g2_draw_circle_section+0x96>
    {
      u8g2_DrawPixel(u8g2, x0 - x, y0 + y);
      u8g2_DrawPixel(u8g2, x0 - y, y0 + x);
    }
}
     2dc:	b002      	add	sp, #8
     2de:	bc04      	pop	{r2}
     2e0:	4691      	mov	r9, r2
     2e2:	bdf0      	pop	{r4, r5, r6, r7, pc}
      u8g2_DrawPixel(u8g2, x0 + x, y0 - y);
     2e4:	464b      	mov	r3, r9
     2e6:	1a9a      	subs	r2, r3, r2
     2e8:	b292      	uxth	r2, r2
     2ea:	1861      	adds	r1, r4, r1
     2ec:	b289      	uxth	r1, r1
     2ee:	f000 fc7b 	bl	be8 <u8g2_DrawPixel>
      u8g2_DrawPixel(u8g2, x0 + y, y0 - x);
     2f2:	464b      	mov	r3, r9
     2f4:	1b9a      	subs	r2, r3, r6
     2f6:	b292      	uxth	r2, r2
     2f8:	1961      	adds	r1, r4, r5
     2fa:	b289      	uxth	r1, r1
     2fc:	9801      	ldr	r0, [sp, #4]
     2fe:	f000 fc73 	bl	be8 <u8g2_DrawPixel>
     302:	e7e5      	b.n	2d0 <u8g2_draw_circle_section+0x1e>
      u8g2_DrawPixel(u8g2, x0 - x, y0 - y);
     304:	464b      	mov	r3, r9
     306:	1b5a      	subs	r2, r3, r5
     308:	b292      	uxth	r2, r2
     30a:	1ba1      	subs	r1, r4, r6
     30c:	b289      	uxth	r1, r1
     30e:	9801      	ldr	r0, [sp, #4]
     310:	f000 fc6a 	bl	be8 <u8g2_DrawPixel>
      u8g2_DrawPixel(u8g2, x0 - y, y0 - x);
     314:	464b      	mov	r3, r9
     316:	1b9a      	subs	r2, r3, r6
     318:	b292      	uxth	r2, r2
     31a:	1b61      	subs	r1, r4, r5
     31c:	b289      	uxth	r1, r1
     31e:	9801      	ldr	r0, [sp, #4]
     320:	f000 fc62 	bl	be8 <u8g2_DrawPixel>
     324:	e7d6      	b.n	2d4 <u8g2_draw_circle_section+0x22>
      u8g2_DrawPixel(u8g2, x0 + x, y0 + y);
     326:	464b      	mov	r3, r9
     328:	195a      	adds	r2, r3, r5
     32a:	b292      	uxth	r2, r2
     32c:	19a1      	adds	r1, r4, r6
     32e:	b289      	uxth	r1, r1
     330:	9801      	ldr	r0, [sp, #4]
     332:	f000 fc59 	bl	be8 <u8g2_DrawPixel>
      u8g2_DrawPixel(u8g2, x0 + y, y0 + x);
     336:	464b      	mov	r3, r9
     338:	18f2      	adds	r2, r6, r3
     33a:	b292      	uxth	r2, r2
     33c:	1961      	adds	r1, r4, r5
     33e:	b289      	uxth	r1, r1
     340:	9801      	ldr	r0, [sp, #4]
     342:	f000 fc51 	bl	be8 <u8g2_DrawPixel>
     346:	e7c7      	b.n	2d8 <u8g2_draw_circle_section+0x26>
      u8g2_DrawPixel(u8g2, x0 - x, y0 + y);
     348:	464b      	mov	r3, r9
     34a:	195a      	adds	r2, r3, r5
     34c:	b292      	uxth	r2, r2
     34e:	1ba1      	subs	r1, r4, r6
     350:	b289      	uxth	r1, r1
     352:	9f01      	ldr	r7, [sp, #4]
     354:	0038      	movs	r0, r7
     356:	f000 fc47 	bl	be8 <u8g2_DrawPixel>
      u8g2_DrawPixel(u8g2, x0 - y, y0 + x);
     35a:	444e      	add	r6, r9
     35c:	b2b2      	uxth	r2, r6
     35e:	1b61      	subs	r1, r4, r5
     360:	b289      	uxth	r1, r1
     362:	0038      	movs	r0, r7
     364:	f000 fc40 	bl	be8 <u8g2_DrawPixel>
}
     368:	e7b8      	b.n	2dc <u8g2_draw_circle_section+0x2a>

0000036a <u8g2_draw_circle>:

static void u8g2_draw_circle(u8g2_t *u8g2, u8g2_uint_t x0, u8g2_uint_t y0, u8g2_uint_t rad, uint8_t option)
{
     36a:	b5f0      	push	{r4, r5, r6, r7, lr}
     36c:	46de      	mov	lr, fp
     36e:	4657      	mov	r7, sl
     370:	464e      	mov	r6, r9
     372:	4645      	mov	r5, r8
     374:	b5e0      	push	{r5, r6, r7, lr}
     376:	b085      	sub	sp, #20
     378:	9002      	str	r0, [sp, #8]
     37a:	9103      	str	r1, [sp, #12]
     37c:	4692      	mov	sl, r2
     37e:	001f      	movs	r7, r3
     380:	ab0e      	add	r3, sp, #56	; 0x38
     382:	781b      	ldrb	r3, [r3, #0]
     384:	469b      	mov	fp, r3
    u8g2_int_t ddF_y;
    u8g2_uint_t x;
    u8g2_uint_t y;

    f = 1;
    f -= rad;
     386:	2301      	movs	r3, #1
     388:	1bdb      	subs	r3, r3, r7
     38a:	b21b      	sxth	r3, r3
     38c:	4699      	mov	r9, r3
    ddF_x = 1;
    ddF_y = 0;
    ddF_y -= rad;
    ddF_y *= 2;
     38e:	03fb      	lsls	r3, r7, #15
     390:	1bdb      	subs	r3, r3, r7
     392:	005d      	lsls	r5, r3, #1
     394:	b22d      	sxth	r5, r5
    x = 0;
    y = rad;

    u8g2_draw_circle_section(u8g2, x, y, x0, y0, option);
     396:	465b      	mov	r3, fp
     398:	9301      	str	r3, [sp, #4]
     39a:	9200      	str	r2, [sp, #0]
     39c:	000b      	movs	r3, r1
     39e:	003a      	movs	r2, r7
     3a0:	2100      	movs	r1, #0
     3a2:	f7ff ff86 	bl	2b2 <u8g2_draw_circle_section>
    x = 0;
     3a6:	2600      	movs	r6, #0
    ddF_x = 1;
     3a8:	2401      	movs	r4, #1
     3aa:	46a8      	mov	r8, r5
     3ac:	0025      	movs	r5, r4
     3ae:	464c      	mov	r4, r9
    
    while ( x < y )
     3b0:	e010      	b.n	3d4 <u8g2_draw_circle+0x6a>
      {
        y--;
        ddF_y += 2;
        f += ddF_y;
      }
      x++;
     3b2:	3601      	adds	r6, #1
     3b4:	b2b6      	uxth	r6, r6
      ddF_x += 2;
     3b6:	3502      	adds	r5, #2
     3b8:	b2ab      	uxth	r3, r5
     3ba:	b21d      	sxth	r5, r3
      f += ddF_x;
     3bc:	191c      	adds	r4, r3, r4
     3be:	b224      	sxth	r4, r4

      u8g2_draw_circle_section(u8g2, x, y, x0, y0, option);    
     3c0:	465b      	mov	r3, fp
     3c2:	9301      	str	r3, [sp, #4]
     3c4:	4653      	mov	r3, sl
     3c6:	9300      	str	r3, [sp, #0]
     3c8:	9b03      	ldr	r3, [sp, #12]
     3ca:	003a      	movs	r2, r7
     3cc:	0031      	movs	r1, r6
     3ce:	9802      	ldr	r0, [sp, #8]
     3d0:	f7ff ff6f 	bl	2b2 <u8g2_draw_circle_section>
    while ( x < y )
     3d4:	42be      	cmp	r6, r7
     3d6:	d20b      	bcs.n	3f0 <u8g2_draw_circle+0x86>
      if (f >= 0) 
     3d8:	2c00      	cmp	r4, #0
     3da:	dbea      	blt.n	3b2 <u8g2_draw_circle+0x48>
        y--;
     3dc:	3f01      	subs	r7, #1
     3de:	b2bf      	uxth	r7, r7
        ddF_y += 2;
     3e0:	4643      	mov	r3, r8
     3e2:	3302      	adds	r3, #2
     3e4:	b29b      	uxth	r3, r3
     3e6:	b21a      	sxth	r2, r3
     3e8:	4690      	mov	r8, r2
        f += ddF_y;
     3ea:	191c      	adds	r4, r3, r4
     3ec:	b224      	sxth	r4, r4
     3ee:	e7e0      	b.n	3b2 <u8g2_draw_circle+0x48>
    }
}
     3f0:	b005      	add	sp, #20
     3f2:	bc3c      	pop	{r2, r3, r4, r5}
     3f4:	4690      	mov	r8, r2
     3f6:	4699      	mov	r9, r3
     3f8:	46a2      	mov	sl, r4
     3fa:	46ab      	mov	fp, r5
     3fc:	bdf0      	pop	{r4, r5, r6, r7, pc}

000003fe <u8g2_DrawCircle>:

void u8g2_DrawCircle(u8g2_t *u8g2, u8g2_uint_t x0, u8g2_uint_t y0, u8g2_uint_t rad, uint8_t option)
{
     3fe:	b5f0      	push	{r4, r5, r6, r7, lr}
     400:	b085      	sub	sp, #20
     402:	9003      	str	r0, [sp, #12]
     404:	000e      	movs	r6, r1
     406:	0017      	movs	r7, r2
     408:	001d      	movs	r5, r3
     40a:	ab0a      	add	r3, sp, #40	; 0x28
     40c:	781c      	ldrb	r4, [r3, #0]
  /* check for bounding box */
#ifdef U8G2_WITH_INTERSECTION
  {
    if ( u8g2_IsIntersection(u8g2, x0-rad, y0-rad, x0+rad+1, y0+rad+1) == 0 ) 
     40e:	194b      	adds	r3, r1, r5
     410:	b29b      	uxth	r3, r3
     412:	18a8      	adds	r0, r5, r2
     414:	b280      	uxth	r0, r0
     416:	3301      	adds	r3, #1
     418:	b29b      	uxth	r3, r3
     41a:	1b52      	subs	r2, r2, r5
     41c:	b292      	uxth	r2, r2
     41e:	1b49      	subs	r1, r1, r5
     420:	b289      	uxth	r1, r1
     422:	3001      	adds	r0, #1
     424:	b280      	uxth	r0, r0
     426:	9000      	str	r0, [sp, #0]
     428:	9803      	ldr	r0, [sp, #12]
     42a:	f000 fc0d 	bl	c48 <u8g2_IsIntersection>
     42e:	2800      	cmp	r0, #0
     430:	d101      	bne.n	436 <u8g2_DrawCircle+0x38>
#endif /* U8G2_WITH_INTERSECTION */
  
  
  /* draw circle */
  u8g2_draw_circle(u8g2, x0, y0, rad, option);
}
     432:	b005      	add	sp, #20
     434:	bdf0      	pop	{r4, r5, r6, r7, pc}
  u8g2_draw_circle(u8g2, x0, y0, rad, option);
     436:	9400      	str	r4, [sp, #0]
     438:	002b      	movs	r3, r5
     43a:	003a      	movs	r2, r7
     43c:	0031      	movs	r1, r6
     43e:	9803      	ldr	r0, [sp, #12]
     440:	f7ff ff93 	bl	36a <u8g2_draw_circle>
     444:	e7f5      	b.n	432 <u8g2_DrawCircle+0x34>
	...

00000448 <u8g2_m_16_8_f>:
  #ifdef U8G2_USE_DYNAMIC_ALLOC
  *page_cnt = 8;
  return 0;
  #else
  static uint8_t buf[1024];
  *page_cnt = 8;
     448:	2308      	movs	r3, #8
     44a:	7003      	strb	r3, [r0, #0]
  return buf;
  #endif
}
     44c:	4800      	ldr	r0, [pc, #0]	; (450 <u8g2_m_16_8_f+0x8>)
     44e:	4770      	bx	lr
     450:	200009e4 	.word	0x200009e4

00000454 <u8g2_Setup_st7565_zolen_128x64_f>:
  u8g2_SetupDisplay(u8g2, u8x8_d_st7565_64128n, u8x8_cad_001, byte_cb, gpio_and_delay_cb);
  buf = u8g2_m_16_8_f(&tile_buf_height);
  u8g2_SetupBuffer(u8g2, buf, tile_buf_height, u8g2_ll_hvline_vertical_top_lsb, rotation);
}
void u8g2_Setup_st7565_zolen_128x64_f(u8g2_t *u8g2, const u8g2_cb_t *rotation, u8x8_msg_cb byte_cb, u8x8_msg_cb gpio_and_delay_cb)
{
     454:	b570      	push	{r4, r5, r6, lr}
     456:	b084      	sub	sp, #16
     458:	0004      	movs	r4, r0
     45a:	000e      	movs	r6, r1
  uint8_t tile_buf_height;
  uint8_t *buf;
  u8g2_SetupDisplay(u8g2, u8x8_d_st7565_zolen_128x64, u8x8_cad_001, byte_cb, gpio_and_delay_cb);
     45c:	9300      	str	r3, [sp, #0]
     45e:	0013      	movs	r3, r2
     460:	4a08      	ldr	r2, [pc, #32]	; (484 <u8g2_Setup_st7565_zolen_128x64_f+0x30>)
     462:	4909      	ldr	r1, [pc, #36]	; (488 <u8g2_Setup_st7565_zolen_128x64_f+0x34>)
     464:	f000 ff64 	bl	1330 <u8x8_Setup>
  buf = u8g2_m_16_8_f(&tile_buf_height);
     468:	250f      	movs	r5, #15
     46a:	446d      	add	r5, sp
     46c:	0028      	movs	r0, r5
     46e:	f7ff ffeb 	bl	448 <u8g2_m_16_8_f>
     472:	0001      	movs	r1, r0
  u8g2_SetupBuffer(u8g2, buf, tile_buf_height, u8g2_ll_hvline_vertical_top_lsb, rotation);
     474:	782a      	ldrb	r2, [r5, #0]
     476:	9600      	str	r6, [sp, #0]
     478:	4b04      	ldr	r3, [pc, #16]	; (48c <u8g2_Setup_st7565_zolen_128x64_f+0x38>)
     47a:	0020      	movs	r0, r4
     47c:	f000 fd53 	bl	f26 <u8g2_SetupBuffer>
}
     480:	b004      	add	sp, #16
     482:	bd70      	pop	{r4, r5, r6, pc}
     484:	0000106d 	.word	0x0000106d
     488:	0000127d 	.word	0x0000127d
     48c:	00000d55 	.word	0x00000d55

00000490 <u8g2_font_get_byte>:
/* removed NOINLINE, because it leads to smaller code, might also be faster */
//static uint8_t u8g2_font_get_byte(const uint8_t *font, uint8_t offset) U8G2_NOINLINE;
static uint8_t u8g2_font_get_byte(const uint8_t *font, uint8_t offset)
{
  font += offset;
  return u8x8_pgm_read( font );  
     490:	5c40      	ldrb	r0, [r0, r1]
}
     492:	4770      	bx	lr

00000494 <u8g2_font_get_word>:

static uint16_t u8g2_font_get_word(const uint8_t *font, uint8_t offset) U8G2_NOINLINE; 
static uint16_t u8g2_font_get_word(const uint8_t *font, uint8_t offset)
{
    uint16_t pos;
    font += offset;
     494:	1841      	adds	r1, r0, r1
    pos = u8x8_pgm_read( font );
     496:	7808      	ldrb	r0, [r1, #0]
    font++;
    pos <<= 8;
     498:	0200      	lsls	r0, r0, #8
    pos += u8x8_pgm_read( font);
     49a:	784b      	ldrb	r3, [r1, #1]
     49c:	18c0      	adds	r0, r0, r3
     49e:	b280      	uxth	r0, r0
    return pos;
}
     4a0:	4770      	bx	lr

000004a2 <u8g2_font_calc_vref_font>:
/* callback procedures to correct the y position */

u8g2_uint_t u8g2_font_calc_vref_font(U8X8_UNUSED u8g2_t *u8g2)
{
  return 0;
}
     4a2:	2000      	movs	r0, #0
     4a4:	4770      	bx	lr

000004a6 <u8g2_read_font_info>:
{
     4a6:	b570      	push	{r4, r5, r6, lr}
     4a8:	0004      	movs	r4, r0
     4aa:	000d      	movs	r5, r1
  font_info->glyph_cnt = u8g2_font_get_byte(font, 0);
     4ac:	2100      	movs	r1, #0
     4ae:	0028      	movs	r0, r5
     4b0:	f7ff ffee 	bl	490 <u8g2_font_get_byte>
     4b4:	7020      	strb	r0, [r4, #0]
  font_info->bbx_mode = u8g2_font_get_byte(font, 1);
     4b6:	2101      	movs	r1, #1
     4b8:	0028      	movs	r0, r5
     4ba:	f7ff ffe9 	bl	490 <u8g2_font_get_byte>
     4be:	7060      	strb	r0, [r4, #1]
  font_info->bits_per_0 = u8g2_font_get_byte(font, 2);
     4c0:	2102      	movs	r1, #2
     4c2:	0028      	movs	r0, r5
     4c4:	f7ff ffe4 	bl	490 <u8g2_font_get_byte>
     4c8:	70a0      	strb	r0, [r4, #2]
  font_info->bits_per_1 = u8g2_font_get_byte(font, 3);
     4ca:	2103      	movs	r1, #3
     4cc:	0028      	movs	r0, r5
     4ce:	f7ff ffdf 	bl	490 <u8g2_font_get_byte>
     4d2:	70e0      	strb	r0, [r4, #3]
  font_info->bits_per_char_width = u8g2_font_get_byte(font, 4);
     4d4:	2104      	movs	r1, #4
     4d6:	0028      	movs	r0, r5
     4d8:	f7ff ffda 	bl	490 <u8g2_font_get_byte>
     4dc:	7120      	strb	r0, [r4, #4]
  font_info->bits_per_char_height = u8g2_font_get_byte(font, 5);
     4de:	2105      	movs	r1, #5
     4e0:	0028      	movs	r0, r5
     4e2:	f7ff ffd5 	bl	490 <u8g2_font_get_byte>
     4e6:	7160      	strb	r0, [r4, #5]
  font_info->bits_per_char_x = u8g2_font_get_byte(font, 6);
     4e8:	2106      	movs	r1, #6
     4ea:	0028      	movs	r0, r5
     4ec:	f7ff ffd0 	bl	490 <u8g2_font_get_byte>
     4f0:	71a0      	strb	r0, [r4, #6]
  font_info->bits_per_char_y = u8g2_font_get_byte(font, 7);
     4f2:	2107      	movs	r1, #7
     4f4:	0028      	movs	r0, r5
     4f6:	f7ff ffcb 	bl	490 <u8g2_font_get_byte>
     4fa:	71e0      	strb	r0, [r4, #7]
  font_info->bits_per_delta_x = u8g2_font_get_byte(font, 8);
     4fc:	2108      	movs	r1, #8
     4fe:	0028      	movs	r0, r5
     500:	f7ff ffc6 	bl	490 <u8g2_font_get_byte>
     504:	7220      	strb	r0, [r4, #8]
  font_info->max_char_width = u8g2_font_get_byte(font, 9);
     506:	2109      	movs	r1, #9
     508:	0028      	movs	r0, r5
     50a:	f7ff ffc1 	bl	490 <u8g2_font_get_byte>
     50e:	7260      	strb	r0, [r4, #9]
  font_info->max_char_height = u8g2_font_get_byte(font, 10);
     510:	210a      	movs	r1, #10
     512:	0028      	movs	r0, r5
     514:	f7ff ffbc 	bl	490 <u8g2_font_get_byte>
     518:	72a0      	strb	r0, [r4, #10]
  font_info->x_offset = u8g2_font_get_byte(font, 11);
     51a:	210b      	movs	r1, #11
     51c:	0028      	movs	r0, r5
     51e:	f7ff ffb7 	bl	490 <u8g2_font_get_byte>
     522:	72e0      	strb	r0, [r4, #11]
  font_info->y_offset = u8g2_font_get_byte(font, 12);
     524:	210c      	movs	r1, #12
     526:	0028      	movs	r0, r5
     528:	f7ff ffb2 	bl	490 <u8g2_font_get_byte>
     52c:	7320      	strb	r0, [r4, #12]
  font_info->ascent_A = u8g2_font_get_byte(font, 13);
     52e:	210d      	movs	r1, #13
     530:	0028      	movs	r0, r5
     532:	f7ff ffad 	bl	490 <u8g2_font_get_byte>
     536:	7360      	strb	r0, [r4, #13]
  font_info->descent_g = u8g2_font_get_byte(font, 14);
     538:	210e      	movs	r1, #14
     53a:	0028      	movs	r0, r5
     53c:	f7ff ffa8 	bl	490 <u8g2_font_get_byte>
     540:	73a0      	strb	r0, [r4, #14]
  font_info->ascent_para = u8g2_font_get_byte(font, 15);
     542:	210f      	movs	r1, #15
     544:	0028      	movs	r0, r5
     546:	f7ff ffa3 	bl	490 <u8g2_font_get_byte>
     54a:	73e0      	strb	r0, [r4, #15]
  font_info->descent_para = u8g2_font_get_byte(font, 16);
     54c:	2110      	movs	r1, #16
     54e:	0028      	movs	r0, r5
     550:	f7ff ff9e 	bl	490 <u8g2_font_get_byte>
     554:	7420      	strb	r0, [r4, #16]
  font_info->start_pos_upper_A = u8g2_font_get_word(font, 17);
     556:	2111      	movs	r1, #17
     558:	0028      	movs	r0, r5
     55a:	f7ff ff9b 	bl	494 <u8g2_font_get_word>
     55e:	8260      	strh	r0, [r4, #18]
  font_info->start_pos_lower_a = u8g2_font_get_word(font, 19); 
     560:	2113      	movs	r1, #19
     562:	0028      	movs	r0, r5
     564:	f7ff ff96 	bl	494 <u8g2_font_get_word>
     568:	82a0      	strh	r0, [r4, #20]
  font_info->start_pos_unicode = u8g2_font_get_word(font, 21); 
     56a:	2115      	movs	r1, #21
     56c:	0028      	movs	r0, r5
     56e:	f7ff ff91 	bl	494 <u8g2_font_get_word>
     572:	82e0      	strh	r0, [r4, #22]
}
     574:	bd70      	pop	{r4, r5, r6, pc}

00000576 <u8g2_font_decode_get_unsigned_bits>:
{
     576:	b5f0      	push	{r4, r5, r6, r7, lr}
     578:	0005      	movs	r5, r0
  uint8_t bit_pos = f->decode_bit_pos;
     57a:	7b06      	ldrb	r6, [r0, #12]
  val = u8x8_pgm_read( f->decode_ptr );  
     57c:	6807      	ldr	r7, [r0, #0]
     57e:	7838      	ldrb	r0, [r7, #0]
  val >>= bit_pos;
     580:	4130      	asrs	r0, r6
     582:	b2c4      	uxtb	r4, r0
  bit_pos_plus_cnt += cnt;
     584:	1872      	adds	r2, r6, r1
     586:	b2d2      	uxtb	r2, r2
  if ( bit_pos_plus_cnt >= 8 )
     588:	2a07      	cmp	r2, #7
     58a:	d90a      	bls.n	5a2 <u8g2_font_decode_get_unsigned_bits+0x2c>
    s -= bit_pos;
     58c:	2308      	movs	r3, #8
     58e:	1b9b      	subs	r3, r3, r6
     590:	b2db      	uxtb	r3, r3
    f->decode_ptr++;
     592:	1c7c      	adds	r4, r7, #1
     594:	602c      	str	r4, [r5, #0]
    val |= u8x8_pgm_read( f->decode_ptr ) << (s);
     596:	787c      	ldrb	r4, [r7, #1]
     598:	409c      	lsls	r4, r3
     59a:	4304      	orrs	r4, r0
     59c:	b2e4      	uxtb	r4, r4
    bit_pos_plus_cnt -= 8;
     59e:	3a08      	subs	r2, #8
     5a0:	b2d2      	uxtb	r2, r2
  val &= (1U<<cnt)-1;
     5a2:	2301      	movs	r3, #1
     5a4:	408b      	lsls	r3, r1
     5a6:	3b01      	subs	r3, #1
     5a8:	4023      	ands	r3, r4
     5aa:	0018      	movs	r0, r3
  f->decode_bit_pos = bit_pos_plus_cnt;
     5ac:	732a      	strb	r2, [r5, #12]
}
     5ae:	bdf0      	pop	{r4, r5, r6, r7, pc}

000005b0 <u8g2_font_setup_decode>:
{
     5b0:	b570      	push	{r4, r5, r6, lr}
     5b2:	0005      	movs	r5, r0
  u8g2_font_decode_t *decode = &(u8g2->font_decode);
     5b4:	0004      	movs	r4, r0
     5b6:	3460      	adds	r4, #96	; 0x60
  decode->decode_ptr = glyph_data;
     5b8:	6601      	str	r1, [r0, #96]	; 0x60
  decode->decode_bit_pos = 0;
     5ba:	2300      	movs	r3, #0
     5bc:	7323      	strb	r3, [r4, #12]
  decode->glyph_width = u8g2_font_decode_get_unsigned_bits(decode, u8g2->font_info.bits_per_char_width);
     5be:	3378      	adds	r3, #120	; 0x78
     5c0:	5cc1      	ldrb	r1, [r0, r3]
     5c2:	0020      	movs	r0, r4
     5c4:	f7ff ffd7 	bl	576 <u8g2_font_decode_get_unsigned_bits>
     5c8:	72a0      	strb	r0, [r4, #10]
  decode->glyph_height = u8g2_font_decode_get_unsigned_bits(decode,u8g2->font_info.bits_per_char_height);
     5ca:	2379      	movs	r3, #121	; 0x79
     5cc:	5ce9      	ldrb	r1, [r5, r3]
     5ce:	0020      	movs	r0, r4
     5d0:	f7ff ffd1 	bl	576 <u8g2_font_decode_get_unsigned_bits>
     5d4:	72e0      	strb	r0, [r4, #11]
  decode->fg_color = u8g2->draw_color;
     5d6:	2392      	movs	r3, #146	; 0x92
     5d8:	5ceb      	ldrb	r3, [r5, r3]
     5da:	73a3      	strb	r3, [r4, #14]
  decode->bg_color = (decode->fg_color == 0 ? 1 : 0);
     5dc:	425a      	negs	r2, r3
     5de:	4153      	adcs	r3, r2
     5e0:	73e3      	strb	r3, [r4, #15]
}
     5e2:	bd70      	pop	{r4, r5, r6, pc}

000005e4 <u8g2_font_decode_get_signed_bits>:
{
     5e4:	b510      	push	{r4, lr}
     5e6:	000c      	movs	r4, r1
  v = (int8_t)u8g2_font_decode_get_unsigned_bits(f, cnt);
     5e8:	f7ff ffc5 	bl	576 <u8g2_font_decode_get_unsigned_bits>
  cnt--;
     5ec:	3c01      	subs	r4, #1
     5ee:	b2e4      	uxtb	r4, r4
  d <<= cnt;
     5f0:	2301      	movs	r3, #1
     5f2:	40a3      	lsls	r3, r4
  v -= d;
     5f4:	1ac0      	subs	r0, r0, r3
     5f6:	b240      	sxtb	r0, r0
}
     5f8:	bd10      	pop	{r4, pc}

000005fa <u8g2_add_vector_y>:
  switch(dir)
     5fa:	2b01      	cmp	r3, #1
     5fc:	d009      	beq.n	612 <u8g2_add_vector_y+0x18>
     5fe:	2b00      	cmp	r3, #0
     600:	d004      	beq.n	60c <u8g2_add_vector_y+0x12>
     602:	2b02      	cmp	r3, #2
     604:	d008      	beq.n	618 <u8g2_add_vector_y+0x1e>
      dy -= x;
     606:	1a40      	subs	r0, r0, r1
     608:	b280      	uxth	r0, r0
      break;      
     60a:	e001      	b.n	610 <u8g2_add_vector_y+0x16>
      dy += y;
     60c:	1880      	adds	r0, r0, r2
     60e:	b280      	uxth	r0, r0
}
     610:	4770      	bx	lr
      dy += x;
     612:	1840      	adds	r0, r0, r1
     614:	b280      	uxth	r0, r0
      break;
     616:	e7fb      	b.n	610 <u8g2_add_vector_y+0x16>
      dy -= y;
     618:	1a80      	subs	r0, r0, r2
     61a:	b280      	uxth	r0, r0
      break;
     61c:	e7f8      	b.n	610 <u8g2_add_vector_y+0x16>

0000061e <u8g2_add_vector_x>:
  switch(dir)
     61e:	2b01      	cmp	r3, #1
     620:	d009      	beq.n	636 <u8g2_add_vector_x+0x18>
     622:	2b00      	cmp	r3, #0
     624:	d004      	beq.n	630 <u8g2_add_vector_x+0x12>
     626:	2b02      	cmp	r3, #2
     628:	d008      	beq.n	63c <u8g2_add_vector_x+0x1e>
      dx += y;
     62a:	1880      	adds	r0, r0, r2
     62c:	b280      	uxth	r0, r0
      break;      
     62e:	e001      	b.n	634 <u8g2_add_vector_x+0x16>
      dx += x;
     630:	1840      	adds	r0, r0, r1
     632:	b280      	uxth	r0, r0
}
     634:	4770      	bx	lr
      dx -= y;
     636:	1a80      	subs	r0, r0, r2
     638:	b280      	uxth	r0, r0
      break;
     63a:	e7fb      	b.n	634 <u8g2_add_vector_x+0x16>
      dx -= x;
     63c:	1a40      	subs	r0, r0, r1
     63e:	b280      	uxth	r0, r0
      break;
     640:	e7f8      	b.n	634 <u8g2_add_vector_x+0x16>

00000642 <u8g2_font_decode_len>:
{
     642:	b5f0      	push	{r4, r5, r6, r7, lr}
     644:	46de      	mov	lr, fp
     646:	4657      	mov	r7, sl
     648:	464e      	mov	r6, r9
     64a:	4645      	mov	r5, r8
     64c:	b5e0      	push	{r5, r6, r7, lr}
     64e:	b089      	sub	sp, #36	; 0x24
     650:	4692      	mov	sl, r2
  lx = decode->x;
     652:	0003      	movs	r3, r0
     654:	3360      	adds	r3, #96	; 0x60
     656:	7a1a      	ldrb	r2, [r3, #8]
     658:	4691      	mov	r9, r2
  ly = decode->y;
     65a:	7a5b      	ldrb	r3, [r3, #9]
     65c:	000e      	movs	r6, r1
     65e:	0005      	movs	r5, r0
     660:	001f      	movs	r7, r3
     662:	46d0      	mov	r8, sl
     664:	e029      	b.n	6ba <u8g2_font_decode_len+0x78>
      current = cnt;
     666:	9606      	str	r6, [sp, #24]
    x = decode->target_x;
     668:	002b      	movs	r3, r5
     66a:	3360      	adds	r3, #96	; 0x60
     66c:	8898      	ldrh	r0, [r3, #4]
    y = decode->target_y;
     66e:	88da      	ldrh	r2, [r3, #6]
     670:	4693      	mov	fp, r2
    x = u8g2_add_vector_x(x, lx, ly, decode->dir);
     672:	464a      	mov	r2, r9
     674:	4669      	mov	r1, sp
     676:	730a      	strb	r2, [r1, #12]
     678:	466a      	mov	r2, sp
     67a:	210c      	movs	r1, #12
     67c:	5651      	ldrsb	r1, [r2, r1]
     67e:	b27a      	sxtb	r2, r7
     680:	7c1b      	ldrb	r3, [r3, #16]
     682:	9303      	str	r3, [sp, #12]
     684:	9204      	str	r2, [sp, #16]
     686:	9105      	str	r1, [sp, #20]
     688:	f7ff ffc9 	bl	61e <u8g2_add_vector_x>
     68c:	9007      	str	r0, [sp, #28]
    y = u8g2_add_vector_y(y, lx, ly, decode->dir);
     68e:	9b03      	ldr	r3, [sp, #12]
     690:	9a04      	ldr	r2, [sp, #16]
     692:	9905      	ldr	r1, [sp, #20]
     694:	4658      	mov	r0, fp
     696:	f7ff ffb0 	bl	5fa <u8g2_add_vector_y>
    if ( is_foreground )
     69a:	4643      	mov	r3, r8
     69c:	2b00      	cmp	r3, #0
     69e:	d116      	bne.n	6ce <u8g2_font_decode_len+0x8c>
    else if ( decode->is_transparent == 0 )    
     6a0:	002b      	movs	r3, r5
     6a2:	3360      	adds	r3, #96	; 0x60
     6a4:	7b5b      	ldrb	r3, [r3, #13]
     6a6:	2b00      	cmp	r3, #0
     6a8:	d020      	beq.n	6ec <u8g2_font_decode_len+0xaa>
    if ( cnt < rem )
     6aa:	42a6      	cmp	r6, r4
     6ac:	d32d      	bcc.n	70a <u8g2_font_decode_len+0xc8>
    cnt -= rem;
     6ae:	1b36      	subs	r6, r6, r4
     6b0:	b2f6      	uxtb	r6, r6
    ly++;
     6b2:	3701      	adds	r7, #1
     6b4:	b2ff      	uxtb	r7, r7
    lx = 0;
     6b6:	2300      	movs	r3, #0
     6b8:	4699      	mov	r9, r3
    rem = decode->glyph_width;
     6ba:	002b      	movs	r3, r5
     6bc:	3360      	adds	r3, #96	; 0x60
     6be:	7a9c      	ldrb	r4, [r3, #10]
    rem -= lx;
     6c0:	464b      	mov	r3, r9
     6c2:	1ae4      	subs	r4, r4, r3
     6c4:	b2e4      	uxtb	r4, r4
    if ( cnt < rem )
     6c6:	42a6      	cmp	r6, r4
     6c8:	d3cd      	bcc.n	666 <u8g2_font_decode_len+0x24>
    current = rem;
     6ca:	9406      	str	r4, [sp, #24]
     6cc:	e7cc      	b.n	668 <u8g2_font_decode_len+0x26>
      u8g2->draw_color = decode->fg_color;			/* draw_color will be restored later */
     6ce:	002b      	movs	r3, r5
     6d0:	3360      	adds	r3, #96	; 0x60
     6d2:	7b9a      	ldrb	r2, [r3, #14]
     6d4:	2392      	movs	r3, #146	; 0x92
     6d6:	54ea      	strb	r2, [r5, r3]
      u8g2_DrawHVLine(u8g2, 
     6d8:	466b      	mov	r3, sp
     6da:	8b1b      	ldrh	r3, [r3, #24]
     6dc:	9a03      	ldr	r2, [sp, #12]
     6de:	9200      	str	r2, [sp, #0]
     6e0:	0002      	movs	r2, r0
     6e2:	9907      	ldr	r1, [sp, #28]
     6e4:	0028      	movs	r0, r5
     6e6:	f000 fa08 	bl	afa <u8g2_DrawHVLine>
     6ea:	e7de      	b.n	6aa <u8g2_font_decode_len+0x68>
      u8g2->draw_color = decode->bg_color;			/* draw_color will be restored later */
     6ec:	002b      	movs	r3, r5
     6ee:	3360      	adds	r3, #96	; 0x60
     6f0:	7bda      	ldrb	r2, [r3, #15]
     6f2:	2392      	movs	r3, #146	; 0x92
     6f4:	54ea      	strb	r2, [r5, r3]
      u8g2_DrawHVLine(u8g2, 
     6f6:	466b      	mov	r3, sp
     6f8:	8b1b      	ldrh	r3, [r3, #24]
     6fa:	9a03      	ldr	r2, [sp, #12]
     6fc:	9200      	str	r2, [sp, #0]
     6fe:	0002      	movs	r2, r0
     700:	9907      	ldr	r1, [sp, #28]
     702:	0028      	movs	r0, r5
     704:	f000 f9f9 	bl	afa <u8g2_DrawHVLine>
     708:	e7cf      	b.n	6aa <u8g2_font_decode_len+0x68>
     70a:	002f      	movs	r7, r5
  lx += cnt;
     70c:	0032      	movs	r2, r6
     70e:	444a      	add	r2, r9
  decode->x = lx;
     710:	003b      	movs	r3, r7
     712:	3360      	adds	r3, #96	; 0x60
     714:	721a      	strb	r2, [r3, #8]
  decode->y = ly;  
     716:	466a      	mov	r2, sp
     718:	7c12      	ldrb	r2, [r2, #16]
     71a:	725a      	strb	r2, [r3, #9]
}
     71c:	b009      	add	sp, #36	; 0x24
     71e:	bc3c      	pop	{r2, r3, r4, r5}
     720:	4690      	mov	r8, r2
     722:	4699      	mov	r9, r3
     724:	46a2      	mov	sl, r4
     726:	46ab      	mov	fp, r5
     728:	bdf0      	pop	{r4, r5, r6, r7, pc}

0000072a <u8g2_font_decode_glyph>:
{
     72a:	b5f0      	push	{r4, r5, r6, r7, lr}
     72c:	46d6      	mov	lr, sl
     72e:	464f      	mov	r7, r9
     730:	4646      	mov	r6, r8
     732:	b5c0      	push	{r6, r7, lr}
     734:	b086      	sub	sp, #24
     736:	0004      	movs	r4, r0
  u8g2_font_decode_t *decode = &(u8g2->font_decode);
     738:	0007      	movs	r7, r0
     73a:	3760      	adds	r7, #96	; 0x60
  u8g2_font_setup_decode(u8g2, glyph_data);     /* set values in u8g2->font_decode data structure */
     73c:	f7ff ff38 	bl	5b0 <u8g2_font_setup_decode>
  h = u8g2->font_decode.glyph_height;
     740:	236b      	movs	r3, #107	; 0x6b
     742:	56e3      	ldrsb	r3, [r4, r3]
     744:	4698      	mov	r8, r3
  x = u8g2_font_decode_get_signed_bits(decode, u8g2->font_info.bits_per_char_x);
     746:	237a      	movs	r3, #122	; 0x7a
     748:	5ce1      	ldrb	r1, [r4, r3]
     74a:	0038      	movs	r0, r7
     74c:	f7ff ff4a 	bl	5e4 <u8g2_font_decode_get_signed_bits>
     750:	9002      	str	r0, [sp, #8]
  y = u8g2_font_decode_get_signed_bits(decode, u8g2->font_info.bits_per_char_y);
     752:	237b      	movs	r3, #123	; 0x7b
     754:	5ce1      	ldrb	r1, [r4, r3]
     756:	0038      	movs	r0, r7
     758:	f7ff ff44 	bl	5e4 <u8g2_font_decode_get_signed_bits>
     75c:	0005      	movs	r5, r0
  d = u8g2_font_decode_get_signed_bits(decode, u8g2->font_info.bits_per_delta_x);
     75e:	237c      	movs	r3, #124	; 0x7c
     760:	5ce1      	ldrb	r1, [r4, r3]
     762:	0038      	movs	r0, r7
     764:	f7ff ff3e 	bl	5e4 <u8g2_font_decode_get_signed_bits>
     768:	9003      	str	r0, [sp, #12]
  if ( decode->glyph_width > 0 )
     76a:	230a      	movs	r3, #10
     76c:	56fb      	ldrsb	r3, [r7, r3]
     76e:	4699      	mov	r9, r3
     770:	2b00      	cmp	r3, #0
     772:	dd5b      	ble.n	82c <u8g2_font_decode_glyph+0x102>
    decode->target_x = u8g2_add_vector_x(decode->target_x, x, -(h+y), decode->dir);
     774:	4445      	add	r5, r8
     776:	b2ed      	uxtb	r5, r5
     778:	426d      	negs	r5, r5
     77a:	b26b      	sxtb	r3, r5
     77c:	001a      	movs	r2, r3
     77e:	7c3d      	ldrb	r5, [r7, #16]
     780:	88b8      	ldrh	r0, [r7, #4]
     782:	002b      	movs	r3, r5
     784:	9205      	str	r2, [sp, #20]
     786:	9902      	ldr	r1, [sp, #8]
     788:	f7ff ff49 	bl	61e <u8g2_add_vector_x>
     78c:	4682      	mov	sl, r0
     78e:	9004      	str	r0, [sp, #16]
     790:	80b8      	strh	r0, [r7, #4]
    decode->target_y = u8g2_add_vector_y(decode->target_y, x, -(h+y), decode->dir);
     792:	88f8      	ldrh	r0, [r7, #6]
     794:	002b      	movs	r3, r5
     796:	9a05      	ldr	r2, [sp, #20]
     798:	9902      	ldr	r1, [sp, #8]
     79a:	f7ff ff2e 	bl	5fa <u8g2_add_vector_y>
     79e:	0002      	movs	r2, r0
     7a0:	80f8      	strh	r0, [r7, #6]
      switch(decode->dir)
     7a2:	2d01      	cmp	r5, #1
     7a4:	d049      	beq.n	83a <u8g2_font_decode_glyph+0x110>
     7a6:	2d00      	cmp	r5, #0
     7a8:	d005      	beq.n	7b6 <u8g2_font_decode_glyph+0x8c>
     7aa:	2d02      	cmp	r5, #2
     7ac:	d055      	beq.n	85a <u8g2_font_decode_glyph+0x130>
     7ae:	2d03      	cmp	r5, #3
     7b0:	d067      	beq.n	882 <u8g2_font_decode_glyph+0x158>
      x1 = x0;
     7b2:	4653      	mov	r3, sl
     7b4:	e007      	b.n	7c6 <u8g2_font_decode_glyph+0x9c>
	    x1 += decode->glyph_width;
     7b6:	464b      	mov	r3, r9
     7b8:	4669      	mov	r1, sp
     7ba:	810b      	strh	r3, [r1, #8]
     7bc:	890b      	ldrh	r3, [r1, #8]
     7be:	4453      	add	r3, sl
     7c0:	b29b      	uxth	r3, r3
	    y1 += h;
     7c2:	4440      	add	r0, r8
     7c4:	b280      	uxth	r0, r0
      if ( u8g2_IsIntersection(u8g2, x0, y0, x1, y1) == 0 ) 
     7c6:	9000      	str	r0, [sp, #0]
     7c8:	9904      	ldr	r1, [sp, #16]
     7ca:	0020      	movs	r0, r4
     7cc:	f000 fa3c 	bl	c48 <u8g2_IsIntersection>
     7d0:	2800      	cmp	r0, #0
     7d2:	d02b      	beq.n	82c <u8g2_font_decode_glyph+0x102>
    decode->x = 0;
     7d4:	0023      	movs	r3, r4
     7d6:	3360      	adds	r3, #96	; 0x60
     7d8:	2200      	movs	r2, #0
     7da:	721a      	strb	r2, [r3, #8]
    decode->y = 0;
     7dc:	725a      	strb	r2, [r3, #9]
      a = u8g2_font_decode_get_unsigned_bits(decode, u8g2->font_info.bits_per_0);
     7de:	2376      	movs	r3, #118	; 0x76
     7e0:	5ce1      	ldrb	r1, [r4, r3]
     7e2:	0038      	movs	r0, r7
     7e4:	f7ff fec7 	bl	576 <u8g2_font_decode_get_unsigned_bits>
     7e8:	0006      	movs	r6, r0
      b = u8g2_font_decode_get_unsigned_bits(decode, u8g2->font_info.bits_per_1);
     7ea:	2377      	movs	r3, #119	; 0x77
     7ec:	5ce1      	ldrb	r1, [r4, r3]
     7ee:	0038      	movs	r0, r7
     7f0:	f7ff fec1 	bl	576 <u8g2_font_decode_get_unsigned_bits>
     7f4:	0005      	movs	r5, r0
	u8g2_font_decode_len(u8g2, a, 0);
     7f6:	2200      	movs	r2, #0
     7f8:	0031      	movs	r1, r6
     7fa:	0020      	movs	r0, r4
     7fc:	f7ff ff21 	bl	642 <u8g2_font_decode_len>
	u8g2_font_decode_len(u8g2, b, 1);
     800:	2201      	movs	r2, #1
     802:	0029      	movs	r1, r5
     804:	0020      	movs	r0, r4
     806:	f7ff ff1c 	bl	642 <u8g2_font_decode_len>
      } while( u8g2_font_decode_get_unsigned_bits(decode, 1) != 0 );
     80a:	2101      	movs	r1, #1
     80c:	0038      	movs	r0, r7
     80e:	f7ff feb2 	bl	576 <u8g2_font_decode_get_unsigned_bits>
     812:	2800      	cmp	r0, #0
     814:	d1ef      	bne.n	7f6 <u8g2_font_decode_glyph+0xcc>
      if ( decode->y >= h )
     816:	0023      	movs	r3, r4
     818:	3360      	adds	r3, #96	; 0x60
     81a:	7a5b      	ldrb	r3, [r3, #9]
     81c:	b25b      	sxtb	r3, r3
     81e:	4598      	cmp	r8, r3
     820:	dcdd      	bgt.n	7de <u8g2_font_decode_glyph+0xb4>
    u8g2->draw_color = decode->fg_color;
     822:	0023      	movs	r3, r4
     824:	3360      	adds	r3, #96	; 0x60
     826:	7b9a      	ldrb	r2, [r3, #14]
     828:	2392      	movs	r3, #146	; 0x92
     82a:	54e2      	strb	r2, [r4, r3]
}
     82c:	9803      	ldr	r0, [sp, #12]
     82e:	b006      	add	sp, #24
     830:	bc1c      	pop	{r2, r3, r4}
     832:	4690      	mov	r8, r2
     834:	4699      	mov	r9, r3
     836:	46a2      	mov	sl, r4
     838:	bdf0      	pop	{r4, r5, r6, r7, pc}
	    x0 -= h;
     83a:	4653      	mov	r3, sl
     83c:	4641      	mov	r1, r8
     83e:	1a59      	subs	r1, r3, r1
     840:	b289      	uxth	r1, r1
	    x0++;	/* shift down, because of assymetric boundaries for the interseciton test */
     842:	3101      	adds	r1, #1
	    x1++;
     844:	1c5d      	adds	r5, r3, #1
     846:	b2ab      	uxth	r3, r5
	    y1 += decode->glyph_width;
     848:	464d      	mov	r5, r9
     84a:	466e      	mov	r6, sp
     84c:	8135      	strh	r5, [r6, #8]
     84e:	8936      	ldrh	r6, [r6, #8]
     850:	1980      	adds	r0, r0, r6
     852:	b280      	uxth	r0, r0
	    x0++;	/* shift down, because of assymetric boundaries for the interseciton test */
     854:	b289      	uxth	r1, r1
     856:	9104      	str	r1, [sp, #16]
	    break;
     858:	e7b5      	b.n	7c6 <u8g2_font_decode_glyph+0x9c>
	    x0 -= decode->glyph_width;
     85a:	464b      	mov	r3, r9
     85c:	466a      	mov	r2, sp
     85e:	8113      	strh	r3, [r2, #8]
     860:	8911      	ldrh	r1, [r2, #8]
     862:	4653      	mov	r3, sl
     864:	1a59      	subs	r1, r3, r1
     866:	b289      	uxth	r1, r1
	    x0++;	/* shift down, because of assymetric boundaries for the interseciton test */
     868:	3101      	adds	r1, #1
	    x1++;
     86a:	1c5d      	adds	r5, r3, #1
     86c:	b2ab      	uxth	r3, r5
	    y0 -= h;
     86e:	4642      	mov	r2, r8
     870:	1a82      	subs	r2, r0, r2
     872:	b292      	uxth	r2, r2
	    y0++;	/* shift down, because of assymetric boundaries for the interseciton test */
     874:	3201      	adds	r2, #1
	    y1++;
     876:	3001      	adds	r0, #1
     878:	b280      	uxth	r0, r0
	    y0++;	/* shift down, because of assymetric boundaries for the interseciton test */
     87a:	b292      	uxth	r2, r2
	    x0++;	/* shift down, because of assymetric boundaries for the interseciton test */
     87c:	b289      	uxth	r1, r1
     87e:	9104      	str	r1, [sp, #16]
	    break;	  
     880:	e7a1      	b.n	7c6 <u8g2_font_decode_glyph+0x9c>
	    x1 += h;
     882:	4655      	mov	r5, sl
     884:	4445      	add	r5, r8
     886:	b2ab      	uxth	r3, r5
	    y0 -= decode->glyph_width;
     888:	464a      	mov	r2, r9
     88a:	4669      	mov	r1, sp
     88c:	810a      	strh	r2, [r1, #8]
     88e:	890a      	ldrh	r2, [r1, #8]
     890:	1a82      	subs	r2, r0, r2
     892:	b292      	uxth	r2, r2
	    y0++;	/* shift down, because of assymetric boundaries for the interseciton test */
     894:	3201      	adds	r2, #1
	    y1++;
     896:	3001      	adds	r0, #1
     898:	b280      	uxth	r0, r0
	    y0++;	/* shift down, because of assymetric boundaries for the interseciton test */
     89a:	b292      	uxth	r2, r2
	    break;	  
     89c:	e793      	b.n	7c6 <u8g2_font_decode_glyph+0x9c>

0000089e <u8g2_font_get_glyph_data>:
{
     89e:	b570      	push	{r4, r5, r6, lr}
     8a0:	000e      	movs	r6, r1
  font += U8G2_FONT_DATA_STRUCT_SIZE;
     8a2:	6d84      	ldr	r4, [r0, #88]	; 0x58
     8a4:	3417      	adds	r4, #23
  if ( encoding <= 255 )
     8a6:	29ff      	cmp	r1, #255	; 0xff
     8a8:	d814      	bhi.n	8d4 <u8g2_font_get_glyph_data+0x36>
    if ( encoding >= 'a' )
     8aa:	2960      	cmp	r1, #96	; 0x60
     8ac:	d90a      	bls.n	8c4 <u8g2_font_get_glyph_data+0x26>
      font += u8g2->font_info.start_pos_lower_a;
     8ae:	2388      	movs	r3, #136	; 0x88
     8b0:	5ac3      	ldrh	r3, [r0, r3]
     8b2:	18e4      	adds	r4, r4, r3
      if ( u8x8_pgm_read( font + 1 ) == 0 )
     8b4:	7863      	ldrb	r3, [r4, #1]
     8b6:	2b00      	cmp	r3, #0
     8b8:	d028      	beq.n	90c <u8g2_font_get_glyph_data+0x6e>
      if ( u8x8_pgm_read( font ) == encoding )
     8ba:	7822      	ldrb	r2, [r4, #0]
     8bc:	4296      	cmp	r6, r2
     8be:	d007      	beq.n	8d0 <u8g2_font_get_glyph_data+0x32>
      font += u8x8_pgm_read( font + 1 );
     8c0:	18e4      	adds	r4, r4, r3
      if ( u8x8_pgm_read( font + 1 ) == 0 )
     8c2:	e7f7      	b.n	8b4 <u8g2_font_get_glyph_data+0x16>
    else if ( encoding >= 'A' )
     8c4:	2940      	cmp	r1, #64	; 0x40
     8c6:	d9f5      	bls.n	8b4 <u8g2_font_get_glyph_data+0x16>
      font += u8g2->font_info.start_pos_upper_A;
     8c8:	2386      	movs	r3, #134	; 0x86
     8ca:	5ac3      	ldrh	r3, [r0, r3]
     8cc:	18e4      	adds	r4, r4, r3
     8ce:	e7f1      	b.n	8b4 <u8g2_font_get_glyph_data+0x16>
	return font+2;	/* skip encoding and glyph size */
     8d0:	1ca0      	adds	r0, r4, #2
     8d2:	e01c      	b.n	90e <u8g2_font_get_glyph_data+0x70>
    font += u8g2->font_info.start_pos_unicode;
     8d4:	238a      	movs	r3, #138	; 0x8a
     8d6:	5ac0      	ldrh	r0, [r0, r3]
     8d8:	1824      	adds	r4, r4, r0
    unicode_lookup_table = font; 
     8da:	0025      	movs	r5, r4
      font += u8g2_font_get_word(unicode_lookup_table, 0);
     8dc:	2100      	movs	r1, #0
     8de:	0028      	movs	r0, r5
     8e0:	f7ff fdd8 	bl	494 <u8g2_font_get_word>
     8e4:	1824      	adds	r4, r4, r0
      e = u8g2_font_get_word(unicode_lookup_table, 2);
     8e6:	2102      	movs	r1, #2
     8e8:	0028      	movs	r0, r5
     8ea:	f7ff fdd3 	bl	494 <u8g2_font_get_word>
      unicode_lookup_table+=4;
     8ee:	3504      	adds	r5, #4
    } while( e < encoding );
     8f0:	4286      	cmp	r6, r0
     8f2:	d8f3      	bhi.n	8dc <u8g2_font_get_glyph_data+0x3e>
      e = u8x8_pgm_read( font );
     8f4:	7823      	ldrb	r3, [r4, #0]
      e <<= 8;
     8f6:	021b      	lsls	r3, r3, #8
      e |= u8x8_pgm_read( font + 1 );
     8f8:	7862      	ldrb	r2, [r4, #1]
     8fa:	4313      	orrs	r3, r2
      if ( e == 0 )
     8fc:	d008      	beq.n	910 <u8g2_font_get_glyph_data+0x72>
      if ( e == encoding )
     8fe:	429e      	cmp	r6, r3
     900:	d002      	beq.n	908 <u8g2_font_get_glyph_data+0x6a>
      font += u8x8_pgm_read( font + 2 );
     902:	78a3      	ldrb	r3, [r4, #2]
     904:	18e4      	adds	r4, r4, r3
      e = u8x8_pgm_read( font );
     906:	e7f5      	b.n	8f4 <u8g2_font_get_glyph_data+0x56>
	return font+3;	/* skip encoding and glyph size */
     908:	1ce0      	adds	r0, r4, #3
     90a:	e000      	b.n	90e <u8g2_font_get_glyph_data+0x70>
  return NULL;
     90c:	2000      	movs	r0, #0
}
     90e:	bd70      	pop	{r4, r5, r6, pc}
  return NULL;
     910:	2000      	movs	r0, #0
     912:	e7fc      	b.n	90e <u8g2_font_get_glyph_data+0x70>

00000914 <u8g2_font_draw_glyph>:
{
     914:	b510      	push	{r4, lr}
     916:	0004      	movs	r4, r0
  u8g2->font_decode.target_x = x;
     918:	2064      	movs	r0, #100	; 0x64
     91a:	5221      	strh	r1, [r4, r0]
  u8g2->font_decode.target_y = y;
     91c:	2166      	movs	r1, #102	; 0x66
     91e:	5262      	strh	r2, [r4, r1]
  const uint8_t *glyph_data = u8g2_font_get_glyph_data(u8g2, encoding);
     920:	0019      	movs	r1, r3
     922:	0020      	movs	r0, r4
     924:	f7ff ffbb 	bl	89e <u8g2_font_get_glyph_data>
  if ( glyph_data != NULL )
     928:	2800      	cmp	r0, #0
     92a:	d005      	beq.n	938 <u8g2_font_draw_glyph+0x24>
    dx = u8g2_font_decode_glyph(u8g2, glyph_data);
     92c:	0001      	movs	r1, r0
     92e:	0020      	movs	r0, r4
     930:	f7ff fefb 	bl	72a <u8g2_font_decode_glyph>
     934:	b280      	uxth	r0, r0
}
     936:	bd10      	pop	{r4, pc}
  u8g2_uint_t dx = 0;
     938:	2000      	movs	r0, #0
     93a:	e7fc      	b.n	936 <u8g2_font_draw_glyph+0x22>

0000093c <u8g2_DrawGlyph>:
{
     93c:	b5f8      	push	{r3, r4, r5, r6, r7, lr}
     93e:	0004      	movs	r4, r0
     940:	000d      	movs	r5, r1
     942:	0016      	movs	r6, r2
     944:	001f      	movs	r7, r3
  switch(u8g2->font_decode.dir)
     946:	2370      	movs	r3, #112	; 0x70
     948:	5cc3      	ldrb	r3, [r0, r3]
     94a:	2b01      	cmp	r3, #1
     94c:	d011      	beq.n	972 <u8g2_DrawGlyph+0x36>
     94e:	2b00      	cmp	r3, #0
     950:	d00a      	beq.n	968 <u8g2_DrawGlyph+0x2c>
     952:	2b02      	cmp	r3, #2
     954:	d012      	beq.n	97c <u8g2_DrawGlyph+0x40>
     956:	2b03      	cmp	r3, #3
     958:	d015      	beq.n	986 <u8g2_DrawGlyph+0x4a>
  return u8g2_font_draw_glyph(u8g2, x, y, encoding);
     95a:	003b      	movs	r3, r7
     95c:	0032      	movs	r2, r6
     95e:	0029      	movs	r1, r5
     960:	0020      	movs	r0, r4
     962:	f7ff ffd7 	bl	914 <u8g2_font_draw_glyph>
}
     966:	bdf8      	pop	{r3, r4, r5, r6, r7, pc}
      y += u8g2->font_calc_vref(u8g2);
     968:	6dc3      	ldr	r3, [r0, #92]	; 0x5c
     96a:	4798      	blx	r3
     96c:	1836      	adds	r6, r6, r0
     96e:	b2b6      	uxth	r6, r6
      break;
     970:	e7f3      	b.n	95a <u8g2_DrawGlyph+0x1e>
      x -= u8g2->font_calc_vref(u8g2);
     972:	6dc3      	ldr	r3, [r0, #92]	; 0x5c
     974:	4798      	blx	r3
     976:	1a2d      	subs	r5, r5, r0
     978:	b2ad      	uxth	r5, r5
      break;
     97a:	e7ee      	b.n	95a <u8g2_DrawGlyph+0x1e>
      y -= u8g2->font_calc_vref(u8g2);
     97c:	6dc3      	ldr	r3, [r0, #92]	; 0x5c
     97e:	4798      	blx	r3
     980:	1a36      	subs	r6, r6, r0
     982:	b2b6      	uxth	r6, r6
      break;
     984:	e7e9      	b.n	95a <u8g2_DrawGlyph+0x1e>
      x += u8g2->font_calc_vref(u8g2);
     986:	6dc3      	ldr	r3, [r0, #92]	; 0x5c
     988:	4798      	blx	r3
     98a:	182d      	adds	r5, r5, r0
     98c:	b2ad      	uxth	r5, r5
      break;
     98e:	e7e4      	b.n	95a <u8g2_DrawGlyph+0x1e>

00000990 <u8g2_draw_string>:
{
     990:	b5f0      	push	{r4, r5, r6, r7, lr}
     992:	46c6      	mov	lr, r8
     994:	b500      	push	{lr}
     996:	0004      	movs	r4, r0
     998:	000f      	movs	r7, r1
     99a:	0016      	movs	r6, r2
     99c:	001d      	movs	r5, r3
  u8x8_utf8_init(u8g2_GetU8x8(u8g2));
     99e:	f000 faf1 	bl	f84 <u8x8_utf8_init>
  sum = 0;
     9a2:	2300      	movs	r3, #0
     9a4:	4698      	mov	r8, r3
     9a6:	e004      	b.n	9b2 <u8g2_draw_string+0x22>
	  x += delta;
     9a8:	183f      	adds	r7, r7, r0
     9aa:	b2bf      	uxth	r7, r7
      sum += delta;    
     9ac:	4440      	add	r0, r8
     9ae:	b283      	uxth	r3, r0
     9b0:	4698      	mov	r8, r3
    e = u8g2->u8x8.next_cb(u8g2_GetU8x8(u8g2), (uint8_t)*str);
     9b2:	7829      	ldrb	r1, [r5, #0]
     9b4:	0020      	movs	r0, r4
     9b6:	6863      	ldr	r3, [r4, #4]
     9b8:	4798      	blx	r3
    if ( e == 0x0ffff )
     9ba:	4b12      	ldr	r3, [pc, #72]	; (a04 <u8g2_draw_string+0x74>)
     9bc:	4298      	cmp	r0, r3
     9be:	d01c      	beq.n	9fa <u8g2_draw_string+0x6a>
    str++;
     9c0:	3501      	adds	r5, #1
    if ( e != 0x0fffe )
     9c2:	4b11      	ldr	r3, [pc, #68]	; (a08 <u8g2_draw_string+0x78>)
     9c4:	4298      	cmp	r0, r3
     9c6:	d0f4      	beq.n	9b2 <u8g2_draw_string+0x22>
      delta = u8g2_DrawGlyph(u8g2, x, y, e);
     9c8:	0003      	movs	r3, r0
     9ca:	0032      	movs	r2, r6
     9cc:	0039      	movs	r1, r7
     9ce:	0020      	movs	r0, r4
     9d0:	f7ff ffb4 	bl	93c <u8g2_DrawGlyph>
      switch(u8g2->font_decode.dir)
     9d4:	2370      	movs	r3, #112	; 0x70
     9d6:	5ce3      	ldrb	r3, [r4, r3]
     9d8:	2b01      	cmp	r3, #1
     9da:	d008      	beq.n	9ee <u8g2_draw_string+0x5e>
     9dc:	2b00      	cmp	r3, #0
     9de:	d0e3      	beq.n	9a8 <u8g2_draw_string+0x18>
     9e0:	2b02      	cmp	r3, #2
     9e2:	d007      	beq.n	9f4 <u8g2_draw_string+0x64>
     9e4:	2b03      	cmp	r3, #3
     9e6:	d1e1      	bne.n	9ac <u8g2_draw_string+0x1c>
	  y -= delta;
     9e8:	1a36      	subs	r6, r6, r0
     9ea:	b2b6      	uxth	r6, r6
	  break;
     9ec:	e7de      	b.n	9ac <u8g2_draw_string+0x1c>
	  y += delta;
     9ee:	1836      	adds	r6, r6, r0
     9f0:	b2b6      	uxth	r6, r6
	  break;
     9f2:	e7db      	b.n	9ac <u8g2_draw_string+0x1c>
	  x -= delta;
     9f4:	1a3f      	subs	r7, r7, r0
     9f6:	b2bf      	uxth	r7, r7
	  break;
     9f8:	e7d8      	b.n	9ac <u8g2_draw_string+0x1c>
}
     9fa:	4640      	mov	r0, r8
     9fc:	bc04      	pop	{r2}
     9fe:	4690      	mov	r8, r2
     a00:	bdf0      	pop	{r4, r5, r6, r7, pc}
     a02:	46c0      	nop			; (mov r8, r8)
     a04:	0000ffff 	.word	0x0000ffff
     a08:	0000fffe 	.word	0x0000fffe

00000a0c <u8g2_DrawStr>:
{
     a0c:	b510      	push	{r4, lr}
  u8g2->u8x8.next_cb = u8x8_ascii_next;
     a0e:	4c02      	ldr	r4, [pc, #8]	; (a18 <u8g2_DrawStr+0xc>)
     a10:	6044      	str	r4, [r0, #4]
  return u8g2_draw_string(u8g2, x, y, str);
     a12:	f7ff ffbd 	bl	990 <u8g2_draw_string>
}
     a16:	bd10      	pop	{r4, pc}
     a18:	00000f6d 	.word	0x00000f6d

00000a1c <u8g2_UpdateRefHeight>:
{
     a1c:	b530      	push	{r4, r5, lr}
  if ( u8g2->font == NULL )
     a1e:	6d83      	ldr	r3, [r0, #88]	; 0x58
     a20:	2b00      	cmp	r3, #0
     a22:	d01d      	beq.n	a60 <u8g2_UpdateRefHeight+0x44>
  u8g2->font_ref_ascent = u8g2->font_info.ascent_A;
     a24:	2381      	movs	r3, #129	; 0x81
     a26:	56c1      	ldrsb	r1, [r0, r3]
     a28:	330d      	adds	r3, #13
     a2a:	54c1      	strb	r1, [r0, r3]
  u8g2->font_ref_descent = u8g2->font_info.descent_g;
     a2c:	3b0c      	subs	r3, #12
     a2e:	56c2      	ldrsb	r2, [r0, r3]
     a30:	330d      	adds	r3, #13
     a32:	54c2      	strb	r2, [r0, r3]
  if ( u8g2->font_height_mode == U8G2_FONT_HEIGHT_MODE_TEXT )
     a34:	3b02      	subs	r3, #2
     a36:	5cc3      	ldrb	r3, [r0, r3]
     a38:	2b00      	cmp	r3, #0
     a3a:	d011      	beq.n	a60 <u8g2_UpdateRefHeight+0x44>
  else if ( u8g2->font_height_mode == U8G2_FONT_HEIGHT_MODE_XTEXT )
     a3c:	2b01      	cmp	r3, #1
     a3e:	d010      	beq.n	a62 <u8g2_UpdateRefHeight+0x46>
    if ( u8g2->font_ref_ascent < u8g2->font_info.max_char_height+u8g2->font_info.y_offset )
     a40:	237e      	movs	r3, #126	; 0x7e
     a42:	56c3      	ldrsb	r3, [r0, r3]
     a44:	2480      	movs	r4, #128	; 0x80
     a46:	5704      	ldrsb	r4, [r0, r4]
     a48:	191d      	adds	r5, r3, r4
     a4a:	42a9      	cmp	r1, r5
     a4c:	da04      	bge.n	a58 <u8g2_UpdateRefHeight+0x3c>
      u8g2->font_ref_ascent = u8g2->font_info.max_char_height+u8g2->font_info.y_offset;
     a4e:	b2db      	uxtb	r3, r3
     a50:	b2e1      	uxtb	r1, r4
     a52:	185b      	adds	r3, r3, r1
     a54:	218e      	movs	r1, #142	; 0x8e
     a56:	5443      	strb	r3, [r0, r1]
    if ( u8g2->font_ref_descent > u8g2->font_info.y_offset )
     a58:	42a2      	cmp	r2, r4
     a5a:	dd01      	ble.n	a60 <u8g2_UpdateRefHeight+0x44>
      u8g2->font_ref_descent = u8g2->font_info.y_offset;
     a5c:	238f      	movs	r3, #143	; 0x8f
     a5e:	54c4      	strb	r4, [r0, r3]
}
     a60:	bd30      	pop	{r4, r5, pc}
    if ( u8g2->font_ref_ascent < u8g2->font_info.ascent_para )
     a62:	3382      	adds	r3, #130	; 0x82
     a64:	56c3      	ldrsb	r3, [r0, r3]
     a66:	4299      	cmp	r1, r3
     a68:	da01      	bge.n	a6e <u8g2_UpdateRefHeight+0x52>
      u8g2->font_ref_ascent = u8g2->font_info.ascent_para;
     a6a:	218e      	movs	r1, #142	; 0x8e
     a6c:	5443      	strb	r3, [r0, r1]
    if ( u8g2->font_ref_descent > u8g2->font_info.descent_para )
     a6e:	2384      	movs	r3, #132	; 0x84
     a70:	56c3      	ldrsb	r3, [r0, r3]
     a72:	429a      	cmp	r2, r3
     a74:	ddf4      	ble.n	a60 <u8g2_UpdateRefHeight+0x44>
      u8g2->font_ref_descent = u8g2->font_info.descent_para;
     a76:	228f      	movs	r2, #143	; 0x8f
     a78:	5483      	strb	r3, [r0, r2]
     a7a:	e7f1      	b.n	a60 <u8g2_UpdateRefHeight+0x44>

00000a7c <u8g2_SetFontPosBaseline>:

void u8g2_SetFontPosBaseline(u8g2_t *u8g2)
{
  u8g2->font_calc_vref = u8g2_font_calc_vref_font;
     a7c:	4b01      	ldr	r3, [pc, #4]	; (a84 <u8g2_SetFontPosBaseline+0x8>)
     a7e:	65c3      	str	r3, [r0, #92]	; 0x5c
}
     a80:	4770      	bx	lr
     a82:	46c0      	nop			; (mov r8, r8)
     a84:	000004a3 	.word	0x000004a3

00000a88 <u8g2_SetFont>:
}

/*===============================================*/

void u8g2_SetFont(u8g2_t *u8g2, const uint8_t  *font)
{
     a88:	b510      	push	{r4, lr}
     a8a:	0004      	movs	r4, r0
  if ( u8g2->font != font )
     a8c:	6d83      	ldr	r3, [r0, #88]	; 0x58
     a8e:	428b      	cmp	r3, r1
     a90:	d006      	beq.n	aa0 <u8g2_SetFont+0x18>
  {
//#ifdef  __unix__
//	u8g2->last_font_data = NULL;
//	u8g2->last_unicode = 0x0ffff;
//#endif 
    u8g2->font = font;
     a92:	6581      	str	r1, [r0, #88]	; 0x58
    u8g2_read_font_info(&(u8g2->font_info), font);
     a94:	3074      	adds	r0, #116	; 0x74
     a96:	f7ff fd06 	bl	4a6 <u8g2_read_font_info>
    u8g2_UpdateRefHeight(u8g2);
     a9a:	0020      	movs	r0, r4
     a9c:	f7ff ffbe 	bl	a1c <u8g2_UpdateRefHeight>
    /* u8g2_SetFontPosBaseline(u8g2); */ /* removed with issue 195 */
  }
}
     aa0:	bd10      	pop	{r4, pc}

00000aa2 <u8g2_clip_intersection2>:
  will return 0 if there is no intersection and if a > b

*/

static uint8_t u8g2_clip_intersection2(u8g2_uint_t *ap, u8g2_uint_t *len, u8g2_uint_t c, u8g2_uint_t d)
{
     aa2:	b530      	push	{r4, r5, lr}
  u8g2_uint_t a = *ap;
     aa4:	8805      	ldrh	r5, [r0, #0]
  u8g2_uint_t b;
  b  = a;
  b += *len;
     aa6:	880c      	ldrh	r4, [r1, #0]
     aa8:	192c      	adds	r4, r5, r4
     aaa:	b2a4      	uxth	r4, r4
  /* be removed completly (be aware about memory curruption for wrong */
  /* arguments) or return 0 for a>b (will lead to skipped lines for wrong */
  /* arguments) */  
  
  /* removing the following if clause completly may lead to memory corruption of a>b */
  if ( a > b )
     aac:	42a5      	cmp	r5, r4
     aae:	d903      	bls.n	ab8 <u8g2_clip_intersection2+0x16>
  {    
    /* replacing this if with a simple "return 0;" will not handle the case with negative a */    
    if ( a < d )
     ab0:	429d      	cmp	r5, r3
     ab2:	d210      	bcs.n	ad6 <u8g2_clip_intersection2+0x34>
    {
      b = d;
      b--;
     ab4:	1e5c      	subs	r4, r3, #1
     ab6:	b2a4      	uxth	r4, r4
    }
  }
  
  /* from now on, the asumption a <= b is ok */
  
  if ( a >= d )
     ab8:	429d      	cmp	r5, r3
     aba:	d20e      	bcs.n	ada <u8g2_clip_intersection2+0x38>
    return 0;
  if ( b <= c )
     abc:	4294      	cmp	r4, r2
     abe:	d90e      	bls.n	ade <u8g2_clip_intersection2+0x3c>
    return 0;
  if ( a < c )		
     ac0:	4295      	cmp	r5, r2
     ac2:	d300      	bcc.n	ac6 <u8g2_clip_intersection2+0x24>
     ac4:	002a      	movs	r2, r5
    a = c;
  if ( b > d )
     ac6:	429c      	cmp	r4, r3
     ac8:	d800      	bhi.n	acc <u8g2_clip_intersection2+0x2a>
     aca:	0023      	movs	r3, r4
    b = d;
  
  *ap = a;
     acc:	8002      	strh	r2, [r0, #0]
  b -= a;
     ace:	1a9b      	subs	r3, r3, r2
  *len = b;
     ad0:	800b      	strh	r3, [r1, #0]
  return 1;
     ad2:	2001      	movs	r0, #1
     ad4:	e002      	b.n	adc <u8g2_clip_intersection2+0x3a>
      a = c;
     ad6:	0015      	movs	r5, r2
     ad8:	e7ee      	b.n	ab8 <u8g2_clip_intersection2+0x16>
    return 0;
     ada:	2000      	movs	r0, #0
}
     adc:	bd30      	pop	{r4, r5, pc}
    return 0;
     ade:	2000      	movs	r0, #0
     ae0:	e7fc      	b.n	adc <u8g2_clip_intersection2+0x3a>

00000ae2 <u8g2_draw_hv_line_2dir>:
  This function first adjusts the y position to the local buffer. Then it
  will clip the line and call u8g2_draw_low_level_hv_line()

*/
void u8g2_draw_hv_line_2dir(u8g2_t *u8g2, u8g2_uint_t x, u8g2_uint_t y, u8g2_uint_t len, uint8_t dir)
{
     ae2:	b530      	push	{r4, r5, lr}
     ae4:	b083      	sub	sp, #12
     ae6:	ac06      	add	r4, sp, #24
     ae8:	7825      	ldrb	r5, [r4, #0]

  /* clipping happens before the display rotation */

  /* transform to pixel buffer coordinates */
  y -= u8g2->pixel_curr_row;
     aea:	8fc4      	ldrh	r4, [r0, #62]	; 0x3e
     aec:	1b12      	subs	r2, r2, r4
     aee:	b292      	uxth	r2, r2
  
  u8g2->ll_hvline(u8g2, x, y, len, dir);
     af0:	6ac4      	ldr	r4, [r0, #44]	; 0x2c
     af2:	9500      	str	r5, [sp, #0]
     af4:	47a0      	blx	r4
}
     af6:	b003      	add	sp, #12
     af8:	bd30      	pop	{r4, r5, pc}

00000afa <u8g2_DrawHVLine>:
  This function should be called by the user.
  
  "dir" may have 4 directions: 0 (left to right), 1, 2, 3 (down up)
*/
void u8g2_DrawHVLine(u8g2_t *u8g2, u8g2_uint_t x, u8g2_uint_t y, u8g2_uint_t len, uint8_t dir)
{
     afa:	b570      	push	{r4, r5, r6, lr}
     afc:	b084      	sub	sp, #16
     afe:	0004      	movs	r4, r0
     b00:	a808      	add	r0, sp, #32
     b02:	7805      	ldrb	r5, [r0, #0]
     b04:	200e      	movs	r0, #14
     b06:	4468      	add	r0, sp
     b08:	8001      	strh	r1, [r0, #0]
     b0a:	a903      	add	r1, sp, #12
     b0c:	800a      	strh	r2, [r1, #0]
     b0e:	220a      	movs	r2, #10
     b10:	446a      	add	r2, sp
     b12:	8013      	strh	r3, [r2, #0]
  /* Make a call to the callback function (e.g. u8g2_draw_l90_r0). */
  /* The callback may rotate the hv line */
  /* after rotation this will call u8g2_draw_hv_line_4dir() */
  
#ifdef U8G2_WITH_CLIP_WINDOW_SUPPORT
  if ( u8g2->is_page_clip_window_intersection != 0 )
     b14:	238c      	movs	r3, #140	; 0x8c
     b16:	5ce3      	ldrb	r3, [r4, r3]
     b18:	2b00      	cmp	r3, #0
     b1a:	d015      	beq.n	b48 <u8g2_DrawHVLine+0x4e>
#endif /* U8G2_WITH_CLIP_WINDOW_SUPPORT */
    if ( len != 0 )
     b1c:	8813      	ldrh	r3, [r2, #0]
     b1e:	2b00      	cmp	r3, #0
     b20:	d012      	beq.n	b48 <u8g2_DrawHVLine+0x4e>
    {
    
      /* convert to two directions */    
      if ( len > 1 )
     b22:	2b01      	cmp	r3, #1
     b24:	d903      	bls.n	b2e <u8g2_DrawHVLine+0x34>
      {
	if ( dir == 2 )
     b26:	2d02      	cmp	r5, #2
     b28:	d010      	beq.n	b4c <u8g2_DrawHVLine+0x52>
	{
	  x -= len;
	  x++;
	}
	else if ( dir == 3 )
     b2a:	2d03      	cmp	r5, #3
     b2c:	d014      	beq.n	b58 <u8g2_DrawHVLine+0x5e>
	{
	  y -= len;
	  y++;
	}
      }
      dir &= 1;  
     b2e:	2301      	movs	r3, #1
     b30:	401d      	ands	r5, r3
      
      /* clip against the user window */
      if ( dir == 0 )
     b32:	d132      	bne.n	b9a <u8g2_DrawHVLine+0xa0>
      {
	if ( y < u8g2->user_y0 )
     b34:	334b      	adds	r3, #75	; 0x4b
     b36:	5ae2      	ldrh	r2, [r4, r3]
     b38:	ab03      	add	r3, sp, #12
     b3a:	881b      	ldrh	r3, [r3, #0]
     b3c:	429a      	cmp	r2, r3
     b3e:	d803      	bhi.n	b48 <u8g2_DrawHVLine+0x4e>
	  return;
	if ( y >= u8g2->user_y1 )
     b40:	224e      	movs	r2, #78	; 0x4e
     b42:	5aa2      	ldrh	r2, [r4, r2]
     b44:	4293      	cmp	r3, r2
     b46:	d30e      	bcc.n	b66 <u8g2_DrawHVLine+0x6c>
      }
      
      
      u8g2->cb->draw_l90(u8g2, x, y, len, dir);
    }
}
     b48:	b004      	add	sp, #16
     b4a:	bd70      	pop	{r4, r5, r6, pc}
	  x -= len;
     b4c:	8802      	ldrh	r2, [r0, #0]
     b4e:	1ad3      	subs	r3, r2, r3
     b50:	b29b      	uxth	r3, r3
	  x++;
     b52:	3301      	adds	r3, #1
     b54:	8003      	strh	r3, [r0, #0]
     b56:	e7ea      	b.n	b2e <u8g2_DrawHVLine+0x34>
	  y -= len;
     b58:	a903      	add	r1, sp, #12
     b5a:	880a      	ldrh	r2, [r1, #0]
     b5c:	1ad3      	subs	r3, r2, r3
     b5e:	b29b      	uxth	r3, r3
	  y++;
     b60:	3301      	adds	r3, #1
     b62:	800b      	strh	r3, [r1, #0]
     b64:	e7e3      	b.n	b2e <u8g2_DrawHVLine+0x34>
	if ( u8g2_clip_intersection2(&x, &len, u8g2->user_x0, u8g2->user_x1) == 0 )
     b66:	234a      	movs	r3, #74	; 0x4a
     b68:	5ae3      	ldrh	r3, [r4, r3]
     b6a:	2248      	movs	r2, #72	; 0x48
     b6c:	5aa2      	ldrh	r2, [r4, r2]
     b6e:	210a      	movs	r1, #10
     b70:	4469      	add	r1, sp
     b72:	200e      	movs	r0, #14
     b74:	4468      	add	r0, sp
     b76:	f7ff ff94 	bl	aa2 <u8g2_clip_intersection2>
     b7a:	2800      	cmp	r0, #0
     b7c:	d0e4      	beq.n	b48 <u8g2_DrawHVLine+0x4e>
      u8g2->cb->draw_l90(u8g2, x, y, len, dir);
     b7e:	6b23      	ldr	r3, [r4, #48]	; 0x30
     b80:	689e      	ldr	r6, [r3, #8]
     b82:	230a      	movs	r3, #10
     b84:	446b      	add	r3, sp
     b86:	881b      	ldrh	r3, [r3, #0]
     b88:	aa03      	add	r2, sp, #12
     b8a:	8812      	ldrh	r2, [r2, #0]
     b8c:	210e      	movs	r1, #14
     b8e:	4469      	add	r1, sp
     b90:	8809      	ldrh	r1, [r1, #0]
     b92:	9500      	str	r5, [sp, #0]
     b94:	0020      	movs	r0, r4
     b96:	47b0      	blx	r6
     b98:	e7d6      	b.n	b48 <u8g2_DrawHVLine+0x4e>
	if ( x < u8g2->user_x0 )
     b9a:	2348      	movs	r3, #72	; 0x48
     b9c:	5ae2      	ldrh	r2, [r4, r3]
     b9e:	3b3a      	subs	r3, #58	; 0x3a
     ba0:	446b      	add	r3, sp
     ba2:	881b      	ldrh	r3, [r3, #0]
     ba4:	429a      	cmp	r2, r3
     ba6:	d8cf      	bhi.n	b48 <u8g2_DrawHVLine+0x4e>
	if ( x >= u8g2->user_x1 )
     ba8:	224a      	movs	r2, #74	; 0x4a
     baa:	5aa2      	ldrh	r2, [r4, r2]
     bac:	4293      	cmp	r3, r2
     bae:	d2cb      	bcs.n	b48 <u8g2_DrawHVLine+0x4e>
	if ( u8g2_clip_intersection2(&y, &len, u8g2->user_y0, u8g2->user_y1) == 0 )
     bb0:	234e      	movs	r3, #78	; 0x4e
     bb2:	5ae3      	ldrh	r3, [r4, r3]
     bb4:	224c      	movs	r2, #76	; 0x4c
     bb6:	5aa2      	ldrh	r2, [r4, r2]
     bb8:	210a      	movs	r1, #10
     bba:	4469      	add	r1, sp
     bbc:	a803      	add	r0, sp, #12
     bbe:	f7ff ff70 	bl	aa2 <u8g2_clip_intersection2>
     bc2:	2800      	cmp	r0, #0
     bc4:	d1db      	bne.n	b7e <u8g2_DrawHVLine+0x84>
     bc6:	e7bf      	b.n	b48 <u8g2_DrawHVLine+0x4e>

00000bc8 <u8g2_DrawHLine>:

void u8g2_DrawHLine(u8g2_t *u8g2, u8g2_uint_t x, u8g2_uint_t y, u8g2_uint_t len)
{
     bc8:	b510      	push	{r4, lr}
     bca:	b082      	sub	sp, #8
// #ifdef U8G2_WITH_INTERSECTION
//   if ( u8g2_IsIntersection(u8g2, x, y, x+len, y+1) == 0 ) 
//     return;
// #endif /* U8G2_WITH_INTERSECTION */
  u8g2_DrawHVLine(u8g2, x, y, len, 0);
     bcc:	2400      	movs	r4, #0
     bce:	9400      	str	r4, [sp, #0]
     bd0:	f7ff ff93 	bl	afa <u8g2_DrawHVLine>
}
     bd4:	b002      	add	sp, #8
     bd6:	bd10      	pop	{r4, pc}

00000bd8 <u8g2_DrawVLine>:

void u8g2_DrawVLine(u8g2_t *u8g2, u8g2_uint_t x, u8g2_uint_t y, u8g2_uint_t len)
{
     bd8:	b510      	push	{r4, lr}
     bda:	b082      	sub	sp, #8
// #ifdef U8G2_WITH_INTERSECTION
//   if ( u8g2_IsIntersection(u8g2, x, y, x+1, y+len) == 0 ) 
//     return;
// #endif /* U8G2_WITH_INTERSECTION */
  u8g2_DrawHVLine(u8g2, x, y, len, 1);
     bdc:	2401      	movs	r4, #1
     bde:	9400      	str	r4, [sp, #0]
     be0:	f7ff ff8b 	bl	afa <u8g2_DrawHVLine>
}
     be4:	b002      	add	sp, #8
     be6:	bd10      	pop	{r4, pc}

00000be8 <u8g2_DrawPixel>:

void u8g2_DrawPixel(u8g2_t *u8g2, u8g2_uint_t x, u8g2_uint_t y)
{
     be8:	b500      	push	{lr}
     bea:	b083      	sub	sp, #12
#ifdef U8G2_WITH_INTERSECTION
  if ( y < u8g2->user_y0 )
     bec:	234c      	movs	r3, #76	; 0x4c
     bee:	5ac3      	ldrh	r3, [r0, r3]
     bf0:	4293      	cmp	r3, r2
     bf2:	d80b      	bhi.n	c0c <u8g2_DrawPixel+0x24>
    return;
  if ( y >= u8g2->user_y1 )
     bf4:	234e      	movs	r3, #78	; 0x4e
     bf6:	5ac3      	ldrh	r3, [r0, r3]
     bf8:	429a      	cmp	r2, r3
     bfa:	d207      	bcs.n	c0c <u8g2_DrawPixel+0x24>
    return;
  if ( x < u8g2->user_x0 )
     bfc:	2348      	movs	r3, #72	; 0x48
     bfe:	5ac3      	ldrh	r3, [r0, r3]
     c00:	428b      	cmp	r3, r1
     c02:	d803      	bhi.n	c0c <u8g2_DrawPixel+0x24>
    return;
  if ( x >= u8g2->user_x1 )
     c04:	234a      	movs	r3, #74	; 0x4a
     c06:	5ac3      	ldrh	r3, [r0, r3]
     c08:	4299      	cmp	r1, r3
     c0a:	d301      	bcc.n	c10 <u8g2_DrawPixel+0x28>
    return;
#endif /* U8G2_WITH_INTERSECTION */
  u8g2_DrawHVLine(u8g2, x, y, 1, 0);
}
     c0c:	b003      	add	sp, #12
     c0e:	bd00      	pop	{pc}
  u8g2_DrawHVLine(u8g2, x, y, 1, 0);
     c10:	2300      	movs	r3, #0
     c12:	9300      	str	r3, [sp, #0]
     c14:	3301      	adds	r3, #1
     c16:	f7ff ff70 	bl	afa <u8g2_DrawHVLine>
     c1a:	e7f7      	b.n	c0c <u8g2_DrawPixel+0x24>

00000c1c <u8g2_is_intersection_decision_tree>:
  a1 and v1 are excluded
  v0 == v1 is not support end return 1
*/
uint8_t u8g2_is_intersection_decision_tree(u8g2_uint_t a0, u8g2_uint_t a1, u8g2_uint_t v0, u8g2_uint_t v1)
{
  if ( v0 < a1 )		// v0 <= a1
     c1c:	428a      	cmp	r2, r1
     c1e:	d205      	bcs.n	c2c <u8g2_is_intersection_decision_tree+0x10>
  {
    if ( v1 > a0 )	// v1 >= a0
     c20:	4283      	cmp	r3, r0
     c22:	d80b      	bhi.n	c3c <u8g2_is_intersection_decision_tree+0x20>
    {
      return 1;
    }
    else
    {
      if ( v0 > v1 )	// v0 > v1
     c24:	429a      	cmp	r2, r3
     c26:	d90b      	bls.n	c40 <u8g2_is_intersection_decision_tree+0x24>
      {
	return 1;
     c28:	2001      	movs	r0, #1
     c2a:	e008      	b.n	c3e <u8g2_is_intersection_decision_tree+0x22>
      }
    }
  }
  else
  {
    if ( v1 > a0 )	// v1 >= a0
     c2c:	4283      	cmp	r3, r0
     c2e:	d909      	bls.n	c44 <u8g2_is_intersection_decision_tree+0x28>
    {
      if ( v0 > v1 )	// v0 > v1
     c30:	429a      	cmp	r2, r3
     c32:	d801      	bhi.n	c38 <u8g2_is_intersection_decision_tree+0x1c>
      {
	return 1;
      }
      else
      {
	return 0;
     c34:	2000      	movs	r0, #0
     c36:	e002      	b.n	c3e <u8g2_is_intersection_decision_tree+0x22>
	return 1;
     c38:	2001      	movs	r0, #1
     c3a:	e000      	b.n	c3e <u8g2_is_intersection_decision_tree+0x22>
      return 1;
     c3c:	2001      	movs	r0, #1
    else
    {
      return 0;
    }
  }
}
     c3e:	4770      	bx	lr
	return 0;
     c40:	2000      	movs	r0, #0
     c42:	e7fc      	b.n	c3e <u8g2_is_intersection_decision_tree+0x22>
      return 0;
     c44:	2000      	movs	r0, #0
     c46:	e7fa      	b.n	c3e <u8g2_is_intersection_decision_tree+0x22>

00000c48 <u8g2_IsIntersection>:



/* upper limits are not included (asymetric boundaries) */
uint8_t u8g2_IsIntersection(u8g2_t *u8g2, u8g2_uint_t x0, u8g2_uint_t y0, u8g2_uint_t x1, u8g2_uint_t y1)
{
     c48:	b570      	push	{r4, r5, r6, lr}
     c4a:	0006      	movs	r6, r0
     c4c:	000c      	movs	r4, r1
     c4e:	001d      	movs	r5, r3
     c50:	ab04      	add	r3, sp, #16
     c52:	881b      	ldrh	r3, [r3, #0]
  if ( u8g2_is_intersection_decision_tree(u8g2->user_y0, u8g2->user_y1, y0, y1) == 0 )
     c54:	214e      	movs	r1, #78	; 0x4e
     c56:	5a41      	ldrh	r1, [r0, r1]
     c58:	204c      	movs	r0, #76	; 0x4c
     c5a:	5a30      	ldrh	r0, [r6, r0]
     c5c:	f7ff ffde 	bl	c1c <u8g2_is_intersection_decision_tree>
     c60:	2800      	cmp	r0, #0
     c62:	d007      	beq.n	c74 <u8g2_IsIntersection+0x2c>
    return 0; 
  
  return u8g2_is_intersection_decision_tree(u8g2->user_x0, u8g2->user_x1, x0, x1);
     c64:	234a      	movs	r3, #74	; 0x4a
     c66:	5af1      	ldrh	r1, [r6, r3]
     c68:	3b02      	subs	r3, #2
     c6a:	5af0      	ldrh	r0, [r6, r3]
     c6c:	002b      	movs	r3, r5
     c6e:	0022      	movs	r2, r4
     c70:	f7ff ffd4 	bl	c1c <u8g2_is_intersection_decision_tree>
}
     c74:	bd70      	pop	{r4, r5, r6, pc}
	...

00000c78 <u8g2_DrawLine>:

#include "u8g2.h"


void u8g2_DrawLine(u8g2_t *u8g2, u8g2_uint_t x1, u8g2_uint_t y1, u8g2_uint_t x2, u8g2_uint_t y2)
{
     c78:	b5f0      	push	{r4, r5, r6, r7, lr}
     c7a:	46de      	mov	lr, fp
     c7c:	4657      	mov	r7, sl
     c7e:	464e      	mov	r6, r9
     c80:	b5c0      	push	{r6, r7, lr}
     c82:	b082      	sub	sp, #8
     c84:	9000      	str	r0, [sp, #0]
     c86:	0017      	movs	r7, r2
     c88:	001e      	movs	r6, r3
     c8a:	ab0a      	add	r3, sp, #40	; 0x28
     c8c:	881c      	ldrh	r4, [r3, #0]

  uint8_t swapxy = 0;
  
  /* no intersection check at the moment, should be added... */

  if ( x1 > x2 ) dx = x1-x2; else dx = x2-x1;
     c8e:	42b1      	cmp	r1, r6
     c90:	d929      	bls.n	ce6 <u8g2_DrawLine+0x6e>
     c92:	1b8b      	subs	r3, r1, r6
     c94:	b29b      	uxth	r3, r3
     c96:	4699      	mov	r9, r3
  if ( y1 > y2 ) dy = y1-y2; else dy = y2-y1;
     c98:	42a7      	cmp	r7, r4
     c9a:	d928      	bls.n	cee <u8g2_DrawLine+0x76>
     c9c:	1b3b      	subs	r3, r7, r4
     c9e:	b29b      	uxth	r3, r3
     ca0:	469b      	mov	fp, r3

  if ( dy > dx ) 
     ca2:	45d9      	cmp	r9, fp
     ca4:	d327      	bcc.n	cf6 <u8g2_DrawLine+0x7e>
     ca6:	465b      	mov	r3, fp
     ca8:	46cb      	mov	fp, r9
     caa:	4699      	mov	r9, r3
     cac:	0023      	movs	r3, r4
     cae:	0034      	movs	r4, r6
     cb0:	001e      	movs	r6, r3
     cb2:	003b      	movs	r3, r7
     cb4:	000f      	movs	r7, r1
     cb6:	0019      	movs	r1, r3
  uint8_t swapxy = 0;
     cb8:	2300      	movs	r3, #0
     cba:	469a      	mov	sl, r3
    swapxy = 1;
    tmp = dx; dx =dy; dy = tmp;
    tmp = x1; x1 =y1; y1 = tmp;
    tmp = x2; x2 =y2; y2 = tmp;
  }
  if ( x1 > x2 ) 
     cbc:	42a7      	cmp	r7, r4
     cbe:	d805      	bhi.n	ccc <u8g2_DrawLine+0x54>
     cc0:	0033      	movs	r3, r6
     cc2:	000e      	movs	r6, r1
     cc4:	0019      	movs	r1, r3
     cc6:	0023      	movs	r3, r4
     cc8:	003c      	movs	r4, r7
     cca:	001f      	movs	r7, r3
  {
    tmp = x1; x1 =x2; x2 = tmp;
    tmp = y1; y1 =y2; y2 = tmp;
  }
  err = dx >> 1;
     ccc:	465b      	mov	r3, fp
     cce:	085d      	lsrs	r5, r3, #1
     cd0:	b22d      	sxth	r5, r5
  if ( y2 > y1 ) ystep = 1; else ystep = -1;
     cd2:	428e      	cmp	r6, r1
     cd4:	d212      	bcs.n	cfc <u8g2_DrawLine+0x84>
     cd6:	2301      	movs	r3, #1
     cd8:	9301      	str	r3, [sp, #4]

#ifndef  U8G2_16BIT
  if ( x2 == 255 )
    x2--;
#else
  if ( x2 == 0xffff )
     cda:	4b1d      	ldr	r3, [pc, #116]	; (d50 <u8g2_DrawLine+0xd8>)
     cdc:	429f      	cmp	r7, r3
     cde:	d11e      	bne.n	d1e <u8g2_DrawLine+0xa6>
    x2--;
     ce0:	3f01      	subs	r7, #1
     ce2:	b2bf      	uxth	r7, r7
#endif

  for( x = x1; x <= x2; x++ )
     ce4:	e01b      	b.n	d1e <u8g2_DrawLine+0xa6>
  if ( x1 > x2 ) dx = x1-x2; else dx = x2-x1;
     ce6:	1a73      	subs	r3, r6, r1
     ce8:	b29b      	uxth	r3, r3
     cea:	4699      	mov	r9, r3
     cec:	e7d4      	b.n	c98 <u8g2_DrawLine+0x20>
  if ( y1 > y2 ) dy = y1-y2; else dy = y2-y1;
     cee:	1be3      	subs	r3, r4, r7
     cf0:	b29b      	uxth	r3, r3
     cf2:	469b      	mov	fp, r3
     cf4:	e7d5      	b.n	ca2 <u8g2_DrawLine+0x2a>
    swapxy = 1;
     cf6:	2301      	movs	r3, #1
     cf8:	469a      	mov	sl, r3
     cfa:	e7df      	b.n	cbc <u8g2_DrawLine+0x44>
  if ( y2 > y1 ) ystep = 1; else ystep = -1;
     cfc:	2301      	movs	r3, #1
     cfe:	425b      	negs	r3, r3
     d00:	9301      	str	r3, [sp, #4]
     d02:	e7ea      	b.n	cda <u8g2_DrawLine+0x62>
  {
    if ( swapxy == 0 ) 
      u8g2_DrawPixel(u8g2, x, y); 
    else 
      u8g2_DrawPixel(u8g2, y, x); 
     d04:	0022      	movs	r2, r4
     d06:	0031      	movs	r1, r6
     d08:	9800      	ldr	r0, [sp, #0]
     d0a:	f7ff ff6d 	bl	be8 <u8g2_DrawPixel>
    err -= (u8g2_uint_t)dy;
     d0e:	464b      	mov	r3, r9
     d10:	1aed      	subs	r5, r5, r3
     d12:	b2ab      	uxth	r3, r5
     d14:	b21d      	sxth	r5, r3
    if ( err < 0 ) 
     d16:	2d00      	cmp	r5, #0
     d18:	db0c      	blt.n	d34 <u8g2_DrawLine+0xbc>
  for( x = x1; x <= x2; x++ )
     d1a:	3401      	adds	r4, #1
     d1c:	b2a4      	uxth	r4, r4
     d1e:	42a7      	cmp	r7, r4
     d20:	d30f      	bcc.n	d42 <u8g2_DrawLine+0xca>
    if ( swapxy == 0 ) 
     d22:	4653      	mov	r3, sl
     d24:	2b00      	cmp	r3, #0
     d26:	d1ed      	bne.n	d04 <u8g2_DrawLine+0x8c>
      u8g2_DrawPixel(u8g2, x, y); 
     d28:	0032      	movs	r2, r6
     d2a:	0021      	movs	r1, r4
     d2c:	9800      	ldr	r0, [sp, #0]
     d2e:	f7ff ff5b 	bl	be8 <u8g2_DrawPixel>
     d32:	e7ec      	b.n	d0e <u8g2_DrawLine+0x96>
    {
      y += (u8g2_uint_t)ystep;
     d34:	466a      	mov	r2, sp
     d36:	8892      	ldrh	r2, [r2, #4]
     d38:	18b6      	adds	r6, r6, r2
     d3a:	b2b6      	uxth	r6, r6
      err += (u8g2_uint_t)dx;
     d3c:	445b      	add	r3, fp
     d3e:	b21d      	sxth	r5, r3
     d40:	e7eb      	b.n	d1a <u8g2_DrawLine+0xa2>
    }
  }
}
     d42:	b002      	add	sp, #8
     d44:	bc1c      	pop	{r2, r3, r4}
     d46:	4691      	mov	r9, r2
     d48:	469a      	mov	sl, r3
     d4a:	46a3      	mov	fp, r4
     d4c:	bdf0      	pop	{r4, r5, r6, r7, pc}
     d4e:	46c0      	nop			; (mov r8, r8)
     d50:	0000ffff 	.word	0x0000ffff

00000d54 <u8g2_ll_hvline_vertical_top_lsb>:
		1: vertical line (top to bottom)
  asumption: 
    all clipping done
*/
void u8g2_ll_hvline_vertical_top_lsb(u8g2_t *u8g2, u8g2_uint_t x, u8g2_uint_t y, u8g2_uint_t len, uint8_t dir)
{
     d54:	b5f0      	push	{r4, r5, r6, r7, lr}
     d56:	46c6      	mov	lr, r8
     d58:	b500      	push	{lr}
     d5a:	4688      	mov	r8, r1
     d5c:	ac06      	add	r4, sp, #24
     d5e:	7827      	ldrb	r7, [r4, #0]
  //assert(y >= u8g2->buf_y0);
  //assert(y < u8g2_GetU8x8(u8g2)->display_info->tile_height*8);
  
  /* bytes are vertical, lsb on top (y=0), msb at bottom (y=7) */
  bit_pos = y;		/* overflow truncate is ok here... */
  bit_pos &= 7; 	/* ... because only the lowest 3 bits are needed */
     d60:	2407      	movs	r4, #7
     d62:	4014      	ands	r4, r2
  mask = 1;
  mask <<= bit_pos;
     d64:	2501      	movs	r5, #1
     d66:	40a5      	lsls	r5, r4
     d68:	b2ed      	uxtb	r5, r5

  or_mask = 0;
  xor_mask = 0;
  if ( u8g2->draw_color <= 1 )
     d6a:	2692      	movs	r6, #146	; 0x92
     d6c:	5d86      	ldrb	r6, [r0, r6]
     d6e:	46b4      	mov	ip, r6
     d70:	2e01      	cmp	r6, #1
     d72:	d91f      	bls.n	db4 <u8g2_ll_hvline_vertical_top_lsb+0x60>
  or_mask = 0;
     d74:	2600      	movs	r6, #0
    or_mask  = mask;
  if ( u8g2->draw_color != 1 )
     d76:	4661      	mov	r1, ip
     d78:	2901      	cmp	r1, #1
     d7a:	d01d      	beq.n	db8 <u8g2_ll_hvline_vertical_top_lsb+0x64>
    xor_mask = mask;


  offset = y;		/* y might be 8 or 16 bit, but we need 16 bit, so use a 16 bit variable */
  offset &= ~7;
     d7c:	2107      	movs	r1, #7
     d7e:	438a      	bics	r2, r1
     d80:	4694      	mov	ip, r2
  offset *= u8g2_GetU8x8(u8g2)->display_info->tile_width;
     d82:	6802      	ldr	r2, [r0, #0]
     d84:	7c12      	ldrb	r2, [r2, #16]
     d86:	4661      	mov	r1, ip
     d88:	434a      	muls	r2, r1
     d8a:	b292      	uxth	r2, r2
  ptr = u8g2->tile_buf_ptr;
  ptr += offset;
  ptr += x;
     d8c:	4442      	add	r2, r8
     d8e:	0011      	movs	r1, r2
     d90:	6b42      	ldr	r2, [r0, #52]	; 0x34
     d92:	4694      	mov	ip, r2
     d94:	4461      	add	r1, ip
  
  if ( dir == 0 )
     d96:	2f00      	cmp	r7, #0
     d98:	d118      	bne.n	dcc <u8g2_ll_hvline_vertical_top_lsb+0x78>
      do
      {
#ifdef __unix
	assert(ptr < max_ptr);
#endif
	*ptr |= or_mask;
     d9a:	780a      	ldrb	r2, [r1, #0]
     d9c:	4332      	orrs	r2, r6
     d9e:	b2d2      	uxtb	r2, r2
	*ptr ^= xor_mask;
     da0:	406a      	eors	r2, r5
     da2:	700a      	strb	r2, [r1, #0]
	ptr++;
     da4:	3101      	adds	r1, #1
	len--;
     da6:	3b01      	subs	r3, #1
     da8:	b29b      	uxth	r3, r3
      } while( len != 0 );
     daa:	2b00      	cmp	r3, #0
     dac:	d1f5      	bne.n	d9a <u8g2_ll_hvline_vertical_top_lsb+0x46>
	or_mask <<= 1;
	xor_mask <<= 1;
      }
    } while( len != 0 );
  }
}
     dae:	bc04      	pop	{r2}
     db0:	4690      	mov	r8, r2
     db2:	bdf0      	pop	{r4, r5, r6, r7, pc}
    or_mask  = mask;
     db4:	002e      	movs	r6, r5
     db6:	e7de      	b.n	d76 <u8g2_ll_hvline_vertical_top_lsb+0x22>
  xor_mask = 0;
     db8:	2500      	movs	r5, #0
     dba:	e7df      	b.n	d7c <u8g2_ll_hvline_vertical_top_lsb+0x28>
	  or_mask  = 1;
     dbc:	2601      	movs	r6, #1
     dbe:	e017      	b.n	df0 <u8g2_ll_hvline_vertical_top_lsb+0x9c>
	or_mask <<= 1;
     dc0:	0076      	lsls	r6, r6, #1
     dc2:	b2f6      	uxtb	r6, r6
	xor_mask <<= 1;
     dc4:	006d      	lsls	r5, r5, #1
     dc6:	b2ed      	uxtb	r5, r5
    } while( len != 0 );
     dc8:	2b00      	cmp	r3, #0
     dca:	d0f0      	beq.n	dae <u8g2_ll_hvline_vertical_top_lsb+0x5a>
      *ptr |= or_mask;
     dcc:	780a      	ldrb	r2, [r1, #0]
     dce:	4332      	orrs	r2, r6
     dd0:	b2d2      	uxtb	r2, r2
      *ptr ^= xor_mask;
     dd2:	406a      	eors	r2, r5
     dd4:	700a      	strb	r2, [r1, #0]
      bit_pos++;
     dd6:	3401      	adds	r4, #1
      bit_pos &= 7;
     dd8:	2207      	movs	r2, #7
     dda:	4014      	ands	r4, r2
      len--;
     ddc:	3b01      	subs	r3, #1
     dde:	b29b      	uxth	r3, r3
      if ( bit_pos == 0 )
     de0:	2c00      	cmp	r4, #0
     de2:	d1ed      	bne.n	dc0 <u8g2_ll_hvline_vertical_top_lsb+0x6c>
	ptr+=u8g2->pixel_buf_width;	/* 6 Jan 17: Changed u8g2->width to u8g2->pixel_buf_width, issue #148 */
     de4:	8f42      	ldrh	r2, [r0, #58]	; 0x3a
     de6:	1889      	adds	r1, r1, r2
	if ( u8g2->draw_color <= 1 )
     de8:	2292      	movs	r2, #146	; 0x92
     dea:	5c82      	ldrb	r2, [r0, r2]
     dec:	2a01      	cmp	r2, #1
     dee:	d9e5      	bls.n	dbc <u8g2_ll_hvline_vertical_top_lsb+0x68>
	if ( u8g2->draw_color != 1 )
     df0:	2a01      	cmp	r2, #1
     df2:	d0e9      	beq.n	dc8 <u8g2_ll_hvline_vertical_top_lsb+0x74>
	  xor_mask = 1;
     df4:	2501      	movs	r5, #1
     df6:	e7e7      	b.n	dc8 <u8g2_ll_hvline_vertical_top_lsb+0x74>

00000df8 <u8g2_update_dimension_common>:
    u8g2_uint_t buf_y0;
    u8g2_uint_t buf_y1; 	
*/

static void u8g2_update_dimension_common(u8g2_t *u8g2)
{
     df8:	b5f0      	push	{r4, r5, r6, r7, lr}
  const u8x8_display_info_t *display_info = u8g2_GetU8x8(u8g2)->display_info;
     dfa:	6801      	ldr	r1, [r0, #0]
  u8g2_uint_t t;
  
  t = u8g2->tile_buf_height;
     dfc:	2338      	movs	r3, #56	; 0x38
     dfe:	5cc4      	ldrb	r4, [r0, r3]
     e00:	b2a3      	uxth	r3, r4
  t *= 8;
     e02:	00da      	lsls	r2, r3, #3
  u8g2->pixel_buf_height = t;
     e04:	8782      	strh	r2, [r0, #60]	; 0x3c
  
  t = display_info->tile_width;
     e06:	7c0a      	ldrb	r2, [r1, #16]
#ifndef U8G2_16BIT
  if ( t >= 32 )
    t = 31;
#endif
  t *= 8;
     e08:	00d2      	lsls	r2, r2, #3
  u8g2->pixel_buf_width = t;
     e0a:	8742      	strh	r2, [r0, #58]	; 0x3a
  
  t = u8g2->tile_curr_row;
     e0c:	2239      	movs	r2, #57	; 0x39
     e0e:	5c86      	ldrb	r6, [r0, r2]
     e10:	b2b7      	uxth	r7, r6
  t *= 8;
     e12:	00fa      	lsls	r2, r7, #3
  u8g2->pixel_curr_row = t;
     e14:	87c2      	strh	r2, [r0, #62]	; 0x3e
  
  t = u8g2->tile_buf_height;
  /* handle the case, where the buffer is larger than the (remaining) part of the display */
  if ( t + u8g2->tile_curr_row > display_info->tile_height )
     e16:	19a4      	adds	r4, r4, r6
     e18:	7c4d      	ldrb	r5, [r1, #17]
     e1a:	42ac      	cmp	r4, r5
     e1c:	dd01      	ble.n	e22 <u8g2_update_dimension_common+0x2a>
    t = display_info->tile_height - u8g2->tile_curr_row;
     e1e:	1beb      	subs	r3, r5, r7
     e20:	b29b      	uxth	r3, r3
  t *= 8;
     e22:	00db      	lsls	r3, r3, #3
     e24:	b29b      	uxth	r3, r3
  
  u8g2->buf_y0 = u8g2->pixel_curr_row;   
     e26:	2440      	movs	r4, #64	; 0x40
     e28:	5302      	strh	r2, [r0, r4]
  u8g2->buf_y1 = u8g2->buf_y0;
  u8g2->buf_y1 += t;
     e2a:	18d3      	adds	r3, r2, r3
     e2c:	2242      	movs	r2, #66	; 0x42
     e2e:	5283      	strh	r3, [r0, r2]

  
#ifdef U8G2_16BIT
  u8g2->width = display_info->pixel_width;
     e30:	8a8a      	ldrh	r2, [r1, #20]
     e32:	2344      	movs	r3, #68	; 0x44
     e34:	52c2      	strh	r2, [r0, r3]
  u8g2->height = display_info->pixel_height;
     e36:	8aca      	ldrh	r2, [r1, #22]
     e38:	3302      	adds	r3, #2
     e3a:	52c2      	strh	r2, [r0, r3]
  if ( display_info->pixel_width <= 240 )
    u8g2->width = display_info->pixel_width;
  u8g2->height = display_info->pixel_height;
#endif

}
     e3c:	bdf0      	pop	{r4, r5, r6, r7, pc}

00000e3e <u8g2_update_dimension_r0>:

/*==========================================================*/


void u8g2_update_dimension_r0(u8g2_t *u8g2)
{
     e3e:	b510      	push	{r4, lr}
  u8g2_update_dimension_common(u8g2);  
     e40:	f7ff ffda 	bl	df8 <u8g2_update_dimension_common>
}
     e44:	bd10      	pop	{r4, pc}

00000e46 <u8g2_apply_clip_window>:
{
     e46:	b510      	push	{r4, lr}
     e48:	b082      	sub	sp, #8
     e4a:	0004      	movs	r4, r0
  if ( u8g2_IsIntersection(u8g2, u8g2->clip_x0, u8g2->clip_y0, u8g2->clip_x1, u8g2->clip_y1) == 0 ) 
     e4c:	2352      	movs	r3, #82	; 0x52
     e4e:	5ac3      	ldrh	r3, [r0, r3]
     e50:	2254      	movs	r2, #84	; 0x54
     e52:	5a82      	ldrh	r2, [r0, r2]
     e54:	2150      	movs	r1, #80	; 0x50
     e56:	5a41      	ldrh	r1, [r0, r1]
     e58:	2056      	movs	r0, #86	; 0x56
     e5a:	5a20      	ldrh	r0, [r4, r0]
     e5c:	9000      	str	r0, [sp, #0]
     e5e:	0020      	movs	r0, r4
     e60:	f7ff fef2 	bl	c48 <u8g2_IsIntersection>
     e64:	2800      	cmp	r0, #0
     e66:	d023      	beq.n	eb0 <u8g2_apply_clip_window+0x6a>
    u8g2->is_page_clip_window_intersection = 1;
     e68:	2201      	movs	r2, #1
     e6a:	238c      	movs	r3, #140	; 0x8c
     e6c:	54e2      	strb	r2, [r4, r3]
    if ( u8g2->user_x0 < u8g2->clip_x0 )
     e6e:	3b44      	subs	r3, #68	; 0x44
     e70:	5ae2      	ldrh	r2, [r4, r3]
     e72:	3308      	adds	r3, #8
     e74:	5ae3      	ldrh	r3, [r4, r3]
     e76:	429a      	cmp	r2, r3
     e78:	d201      	bcs.n	e7e <u8g2_apply_clip_window+0x38>
      u8g2->user_x0 = u8g2->clip_x0;
     e7a:	2248      	movs	r2, #72	; 0x48
     e7c:	52a3      	strh	r3, [r4, r2]
    if ( u8g2->user_x1 > u8g2->clip_x1 )
     e7e:	234a      	movs	r3, #74	; 0x4a
     e80:	5ae2      	ldrh	r2, [r4, r3]
     e82:	3308      	adds	r3, #8
     e84:	5ae3      	ldrh	r3, [r4, r3]
     e86:	429a      	cmp	r2, r3
     e88:	d901      	bls.n	e8e <u8g2_apply_clip_window+0x48>
      u8g2->user_x1 = u8g2->clip_x1;
     e8a:	224a      	movs	r2, #74	; 0x4a
     e8c:	52a3      	strh	r3, [r4, r2]
    if ( u8g2->user_y0 < u8g2->clip_y0 )
     e8e:	234c      	movs	r3, #76	; 0x4c
     e90:	5ae2      	ldrh	r2, [r4, r3]
     e92:	3308      	adds	r3, #8
     e94:	5ae3      	ldrh	r3, [r4, r3]
     e96:	429a      	cmp	r2, r3
     e98:	d201      	bcs.n	e9e <u8g2_apply_clip_window+0x58>
      u8g2->user_y0 = u8g2->clip_y0;
     e9a:	224c      	movs	r2, #76	; 0x4c
     e9c:	52a3      	strh	r3, [r4, r2]
    if ( u8g2->user_y1 > u8g2->clip_y1 )
     e9e:	234e      	movs	r3, #78	; 0x4e
     ea0:	5ae2      	ldrh	r2, [r4, r3]
     ea2:	3308      	adds	r3, #8
     ea4:	5ae3      	ldrh	r3, [r4, r3]
     ea6:	429a      	cmp	r2, r3
     ea8:	d905      	bls.n	eb6 <u8g2_apply_clip_window+0x70>
      u8g2->user_y1 = u8g2->clip_y1;
     eaa:	224e      	movs	r2, #78	; 0x4e
     eac:	52a3      	strh	r3, [r4, r2]
}
     eae:	e002      	b.n	eb6 <u8g2_apply_clip_window+0x70>
    u8g2->is_page_clip_window_intersection = 0;
     eb0:	2200      	movs	r2, #0
     eb2:	238c      	movs	r3, #140	; 0x8c
     eb4:	54e2      	strb	r2, [r4, r3]
}
     eb6:	b002      	add	sp, #8
     eb8:	bd10      	pop	{r4, pc}

00000eba <u8g2_update_page_win_r0>:

void u8g2_update_page_win_r0(u8g2_t *u8g2)
{
     eba:	b510      	push	{r4, lr}
  u8g2->user_x0 = 0;
     ebc:	2200      	movs	r2, #0
     ebe:	2348      	movs	r3, #72	; 0x48
     ec0:	52c2      	strh	r2, [r0, r3]
  u8g2->user_x1 = u8g2->width;			/* pixel_buf_width replaced with width */
     ec2:	3b04      	subs	r3, #4
     ec4:	5ac2      	ldrh	r2, [r0, r3]
     ec6:	3306      	adds	r3, #6
     ec8:	52c2      	strh	r2, [r0, r3]
  
  u8g2->user_y0 = u8g2->buf_y0;
     eca:	3b0a      	subs	r3, #10
     ecc:	5ac2      	ldrh	r2, [r0, r3]
     ece:	330c      	adds	r3, #12
     ed0:	52c2      	strh	r2, [r0, r3]
  u8g2->user_y1 = u8g2->buf_y1;
     ed2:	3b0a      	subs	r3, #10
     ed4:	5ac2      	ldrh	r2, [r0, r3]
     ed6:	330c      	adds	r3, #12
     ed8:	52c2      	strh	r2, [r0, r3]
  
#ifdef U8G2_WITH_CLIP_WINDOW_SUPPORT
  u8g2_apply_clip_window(u8g2);
     eda:	f7ff ffb4 	bl	e46 <u8g2_apply_clip_window>
#endif /* U8G2_WITH_CLIP_WINDOW_SUPPORT */
}
     ede:	bd10      	pop	{r4, pc}

00000ee0 <u8g2_draw_mirror_vertical_r0>:
  }
  u8g2_draw_hv_line_2dir(u8g2, xx, y, len, dir);
}

void u8g2_draw_mirror_vertical_r0(u8g2_t *u8g2, u8g2_uint_t x, u8g2_uint_t y, u8g2_uint_t len, uint8_t dir)
{
     ee0:	b530      	push	{r4, r5, lr}
     ee2:	b083      	sub	sp, #12
     ee4:	ac06      	add	r4, sp, #24
     ee6:	7825      	ldrb	r5, [r4, #0]
  u8g2_uint_t yy;
  yy = u8g2->height;
     ee8:	2446      	movs	r4, #70	; 0x46
     eea:	5b04      	ldrh	r4, [r0, r4]
  yy -= y;
     eec:	1aa2      	subs	r2, r4, r2
     eee:	b292      	uxth	r2, r2
  if ( (dir & 1) == 1 )
     ef0:	07ec      	lsls	r4, r5, #31
     ef2:	d406      	bmi.n	f02 <u8g2_draw_mirror_vertical_r0+0x22>
  {
    yy -= len;
  }
  else
  {
    yy--;
     ef4:	3a01      	subs	r2, #1
     ef6:	b292      	uxth	r2, r2
  }
  u8g2_draw_hv_line_2dir(u8g2, x, yy, len, dir);
     ef8:	9500      	str	r5, [sp, #0]
     efa:	f7ff fdf2 	bl	ae2 <u8g2_draw_hv_line_2dir>
}
     efe:	b003      	add	sp, #12
     f00:	bd30      	pop	{r4, r5, pc}
    yy -= len;
     f02:	1ad2      	subs	r2, r2, r3
     f04:	b292      	uxth	r2, r2
     f06:	e7f7      	b.n	ef8 <u8g2_draw_mirror_vertical_r0+0x18>

00000f08 <u8g2_SetMaxClipWindow>:
{
     f08:	b510      	push	{r4, lr}
  u8g2->clip_x0 = 0;
     f0a:	2300      	movs	r3, #0
     f0c:	2250      	movs	r2, #80	; 0x50
     f0e:	5283      	strh	r3, [r0, r2]
  u8g2->clip_y0 = 0;
     f10:	3204      	adds	r2, #4
     f12:	5283      	strh	r3, [r0, r2]
  u8g2->clip_x1 = (u8g2_uint_t)~(u8g2_uint_t)0;
     f14:	3b01      	subs	r3, #1
     f16:	3a02      	subs	r2, #2
     f18:	5283      	strh	r3, [r0, r2]
  u8g2->clip_y1 = (u8g2_uint_t)~(u8g2_uint_t)0;
     f1a:	3204      	adds	r2, #4
     f1c:	5283      	strh	r3, [r0, r2]
  u8g2->cb->update_page_win(u8g2);
     f1e:	6b03      	ldr	r3, [r0, #48]	; 0x30
     f20:	685b      	ldr	r3, [r3, #4]
     f22:	4798      	blx	r3
}
     f24:	bd10      	pop	{r4, pc}

00000f26 <u8g2_SetupBuffer>:
{
     f26:	b570      	push	{r4, r5, r6, lr}
     f28:	0004      	movs	r4, r0
     f2a:	9804      	ldr	r0, [sp, #16]
  u8g2->font = NULL;
     f2c:	2500      	movs	r5, #0
     f2e:	65a5      	str	r5, [r4, #88]	; 0x58
  u8g2->ll_hvline = ll_hvline_cb;
     f30:	62e3      	str	r3, [r4, #44]	; 0x2c
  u8g2->tile_buf_ptr = buf;
     f32:	6361      	str	r1, [r4, #52]	; 0x34
  u8g2->tile_buf_height = tile_buf_height;
     f34:	2338      	movs	r3, #56	; 0x38
     f36:	54e2      	strb	r2, [r4, r3]
  u8g2->tile_curr_row = 0;
     f38:	3301      	adds	r3, #1
     f3a:	54e5      	strb	r5, [r4, r3]
  u8g2->font_decode.is_transparent = 0; /* issue 443 */
     f3c:	3334      	adds	r3, #52	; 0x34
     f3e:	54e5      	strb	r5, [r4, r3]
  u8g2->bitmap_transparency = 0;
     f40:	3324      	adds	r3, #36	; 0x24
     f42:	54e5      	strb	r5, [r4, r3]
  u8g2->font_height_mode = 0; /* issue 2046 */
     f44:	3b04      	subs	r3, #4
     f46:	54e5      	strb	r5, [r4, r3]
  u8g2->draw_color = 1;
     f48:	3b8c      	subs	r3, #140	; 0x8c
     f4a:	2292      	movs	r2, #146	; 0x92
     f4c:	54a3      	strb	r3, [r4, r2]
  u8g2->is_auto_page_clear = 1;
     f4e:	3201      	adds	r2, #1
     f50:	54a3      	strb	r3, [r4, r2]
  u8g2->cb = u8g2_cb;
     f52:	6320      	str	r0, [r4, #48]	; 0x30
  u8g2->cb->update_dimension(u8g2);
     f54:	6803      	ldr	r3, [r0, #0]
     f56:	0020      	movs	r0, r4
     f58:	4798      	blx	r3
  u8g2_SetMaxClipWindow(u8g2);		/* assign a clip window and call the update() procedure */
     f5a:	0020      	movs	r0, r4
     f5c:	f7ff ffd4 	bl	f08 <u8g2_SetMaxClipWindow>
  u8g2_SetFontPosBaseline(u8g2);  /* issue 195 */
     f60:	0020      	movs	r0, r4
     f62:	f7ff fd8b 	bl	a7c <u8g2_SetFontPosBaseline>
  u8g2->font_decode.dir = 0;
     f66:	2370      	movs	r3, #112	; 0x70
     f68:	54e5      	strb	r5, [r4, r3]
}
     f6a:	bd70      	pop	{r4, r5, r6, pc}

00000f6c <u8x8_ascii_next>:
  u8x8->utf8_state = 0;	/* also reset during u8x8_SetupDefaults() */
}

uint16_t u8x8_ascii_next(U8X8_UNUSED u8x8_t *u8x8, uint8_t b)
{
  if ( b == 0 || b == '\n' ) /* '\n' terminates the string to support the string list procedures */
     f6c:	2900      	cmp	r1, #0
     f6e:	d101      	bne.n	f74 <u8x8_ascii_next+0x8>
    return 0x0ffff;	/* end of string detected*/
     f70:	4803      	ldr	r0, [pc, #12]	; (f80 <u8x8_ascii_next+0x14>)
  return b;
}
     f72:	4770      	bx	lr
  if ( b == 0 || b == '\n' ) /* '\n' terminates the string to support the string list procedures */
     f74:	290a      	cmp	r1, #10
     f76:	d001      	beq.n	f7c <u8x8_ascii_next+0x10>
  return b;
     f78:	b288      	uxth	r0, r1
     f7a:	e7fa      	b.n	f72 <u8x8_ascii_next+0x6>
    return 0x0ffff;	/* end of string detected*/
     f7c:	4800      	ldr	r0, [pc, #0]	; (f80 <u8x8_ascii_next+0x14>)
     f7e:	e7f8      	b.n	f72 <u8x8_ascii_next+0x6>
     f80:	0000ffff 	.word	0x0000ffff

00000f84 <u8x8_utf8_init>:
  u8x8->utf8_state = 0;	/* also reset during u8x8_SetupDefaults() */
     f84:	2200      	movs	r2, #0
     f86:	2326      	movs	r3, #38	; 0x26
     f88:	54c2      	strb	r2, [r0, r3]
}
     f8a:	4770      	bx	lr

00000f8c <u8x8_byte_SetDC>:
*/

#include "u8x8.h"

uint8_t u8x8_byte_SetDC(u8x8_t *u8x8, uint8_t dc)
{
     f8c:	b510      	push	{r4, lr}
     f8e:	000a      	movs	r2, r1
  return u8x8->byte_cb(u8x8, U8X8_MSG_BYTE_SET_DC, dc, NULL);
     f90:	6904      	ldr	r4, [r0, #16]
     f92:	2300      	movs	r3, #0
     f94:	2120      	movs	r1, #32
     f96:	47a0      	blx	r4
}
     f98:	bd10      	pop	{r4, pc}

00000f9a <u8x8_byte_SendBytes>:

uint8_t u8x8_byte_SendBytes(u8x8_t *u8x8, uint8_t cnt, uint8_t *data)
{
     f9a:	b510      	push	{r4, lr}
     f9c:	0013      	movs	r3, r2
  return u8x8->byte_cb(u8x8, U8X8_MSG_BYTE_SEND, cnt, (void *)data);
     f9e:	6904      	ldr	r4, [r0, #16]
     fa0:	000a      	movs	r2, r1
     fa2:	2117      	movs	r1, #23
     fa4:	47a0      	blx	r4
}
     fa6:	bd10      	pop	{r4, pc}

00000fa8 <u8x8_byte_SendByte>:

uint8_t u8x8_byte_SendByte(u8x8_t *u8x8, uint8_t byte)
{
     fa8:	b500      	push	{lr}
     faa:	b083      	sub	sp, #12
     fac:	466b      	mov	r3, sp
     fae:	1dda      	adds	r2, r3, #7
     fb0:	7011      	strb	r1, [r2, #0]
  return u8x8_byte_SendBytes(u8x8, 1, &byte);
     fb2:	2101      	movs	r1, #1
     fb4:	f7ff fff1 	bl	f9a <u8x8_byte_SendBytes>
}
     fb8:	b003      	add	sp, #12
     fba:	bd00      	pop	{pc}

00000fbc <u8x8_cad_SendCmd>:
*/

#include "u8x8.h"

uint8_t u8x8_cad_SendCmd(u8x8_t *u8x8, uint8_t cmd)
{
     fbc:	b510      	push	{r4, lr}
     fbe:	000a      	movs	r2, r1
  return u8x8->cad_cb(u8x8, U8X8_MSG_CAD_SEND_CMD, cmd, NULL);
     fc0:	68c4      	ldr	r4, [r0, #12]
     fc2:	2300      	movs	r3, #0
     fc4:	2115      	movs	r1, #21
     fc6:	47a0      	blx	r4
}
     fc8:	bd10      	pop	{r4, pc}

00000fca <u8x8_cad_SendArg>:

uint8_t u8x8_cad_SendArg(u8x8_t *u8x8, uint8_t arg)
{
     fca:	b510      	push	{r4, lr}
     fcc:	000a      	movs	r2, r1
  return u8x8->cad_cb(u8x8, U8X8_MSG_CAD_SEND_ARG, arg, NULL);
     fce:	68c4      	ldr	r4, [r0, #12]
     fd0:	2300      	movs	r3, #0
     fd2:	2116      	movs	r1, #22
     fd4:	47a0      	blx	r4
}
     fd6:	bd10      	pop	{r4, pc}

00000fd8 <u8x8_cad_SendData>:
  }
  return 1;
}

uint8_t u8x8_cad_SendData(u8x8_t *u8x8, uint8_t cnt, uint8_t *data)
{
     fd8:	b510      	push	{r4, lr}
     fda:	0013      	movs	r3, r2
  return u8x8->cad_cb(u8x8, U8X8_MSG_CAD_SEND_DATA, cnt, data);
     fdc:	68c4      	ldr	r4, [r0, #12]
     fde:	000a      	movs	r2, r1
     fe0:	2117      	movs	r1, #23
     fe2:	47a0      	blx	r4
}
     fe4:	bd10      	pop	{r4, pc}

00000fe6 <u8x8_cad_StartTransfer>:

uint8_t u8x8_cad_StartTransfer(u8x8_t *u8x8)
{
     fe6:	b510      	push	{r4, lr}
  return u8x8->cad_cb(u8x8, U8X8_MSG_CAD_START_TRANSFER, 0, NULL);
     fe8:	68c4      	ldr	r4, [r0, #12]
     fea:	2300      	movs	r3, #0
     fec:	2200      	movs	r2, #0
     fee:	2118      	movs	r1, #24
     ff0:	47a0      	blx	r4
}
     ff2:	bd10      	pop	{r4, pc}

00000ff4 <u8x8_cad_EndTransfer>:

uint8_t u8x8_cad_EndTransfer(u8x8_t *u8x8)
{
     ff4:	b510      	push	{r4, lr}
  return u8x8->cad_cb(u8x8, U8X8_MSG_CAD_END_TRANSFER, 0, NULL);
     ff6:	68c4      	ldr	r4, [r0, #12]
     ff8:	2300      	movs	r3, #0
     ffa:	2200      	movs	r2, #0
     ffc:	2119      	movs	r1, #25
     ffe:	47a0      	blx	r4
}
    1000:	bd10      	pop	{r4, pc}

00001002 <u8x8_cad_SendSequence>:
  254 milli	delay by milliseconds
  255		end of sequence
*/

void u8x8_cad_SendSequence(u8x8_t *u8x8, uint8_t const *data)
{
    1002:	b570      	push	{r4, r5, r6, lr}
    1004:	b082      	sub	sp, #8
    1006:	0006      	movs	r6, r0
    1008:	000c      	movs	r4, r1
  uint8_t cmd;
  uint8_t v;

  for(;;)
  {
    cmd = *data;
    100a:	7821      	ldrb	r1, [r4, #0]
    data++;
    100c:	1c65      	adds	r5, r4, #1
    switch( cmd )
    100e:	2917      	cmp	r1, #23
    1010:	d018      	beq.n	1044 <u8x8_cad_SendSequence+0x42>
    1012:	d90c      	bls.n	102e <u8x8_cad_SendSequence+0x2c>
    1014:	2919      	cmp	r1, #25
    1016:	d91f      	bls.n	1058 <u8x8_cad_SendSequence+0x56>
    1018:	29fe      	cmp	r1, #254	; 0xfe
    101a:	d124      	bne.n	1066 <u8x8_cad_SendSequence+0x64>
      case U8X8_MSG_CAD_START_TRANSFER:
      case U8X8_MSG_CAD_END_TRANSFER:
	  u8x8->cad_cb(u8x8, cmd, 0, NULL);
	  break;
      case 0x0fe:
	  v = *data;
    101c:	782a      	ldrb	r2, [r5, #0]
    101e:	466b      	mov	r3, sp
    1020:	71da      	strb	r2, [r3, #7]
	  u8x8_gpio_Delay(u8x8, U8X8_MSG_DELAY_MILLI, v);	    
    1022:	2129      	movs	r1, #41	; 0x29
    1024:	0030      	movs	r0, r6
    1026:	f000 f967 	bl	12f8 <u8x8_gpio_call>
	  data++;
    102a:	3402      	adds	r4, #2
	  break;
    102c:	e7ed      	b.n	100a <u8x8_cad_SendSequence+0x8>
    switch( cmd )
    102e:	2915      	cmp	r1, #21
    1030:	d319      	bcc.n	1066 <u8x8_cad_SendSequence+0x64>
	  v = *data;
    1032:	782a      	ldrb	r2, [r5, #0]
    1034:	466b      	mov	r3, sp
    1036:	71da      	strb	r2, [r3, #7]
	  u8x8->cad_cb(u8x8, cmd, v, NULL);
    1038:	2300      	movs	r3, #0
    103a:	0030      	movs	r0, r6
    103c:	68f5      	ldr	r5, [r6, #12]
    103e:	47a8      	blx	r5
	  data++;
    1040:	3402      	adds	r4, #2
	  break;
    1042:	e7e2      	b.n	100a <u8x8_cad_SendSequence+0x8>
	  v = *data;
    1044:	7863      	ldrb	r3, [r4, #1]
    1046:	466a      	mov	r2, sp
    1048:	3207      	adds	r2, #7
    104a:	7013      	strb	r3, [r2, #0]
	  u8x8_cad_SendData(u8x8, 1, &v);
    104c:	2101      	movs	r1, #1
    104e:	0030      	movs	r0, r6
    1050:	f7ff ffc2 	bl	fd8 <u8x8_cad_SendData>
	  data++;
    1054:	3402      	adds	r4, #2
	  break;
    1056:	e7d8      	b.n	100a <u8x8_cad_SendSequence+0x8>
	  u8x8->cad_cb(u8x8, cmd, 0, NULL);
    1058:	2300      	movs	r3, #0
    105a:	2200      	movs	r2, #0
    105c:	0030      	movs	r0, r6
    105e:	68f4      	ldr	r4, [r6, #12]
    1060:	47a0      	blx	r4
    data++;
    1062:	002c      	movs	r4, r5
	  break;
    1064:	e7d1      	b.n	100a <u8x8_cad_SendSequence+0x8>
      default:
	return;
    }
  }
}
    1066:	b002      	add	sp, #8
    1068:	bd70      	pop	{r4, r5, r6, pc}
	...

0000106c <u8x8_cad_001>:
  convert to bytes by using 
    dc = 0 for commands and args and
    dc = 1 for data
*/
uint8_t u8x8_cad_001(u8x8_t *u8x8, uint8_t msg, uint8_t arg_int, void *arg_ptr)
{
    106c:	b5f0      	push	{r4, r5, r6, r7, lr}
    106e:	b083      	sub	sp, #12
    1070:	0004      	movs	r4, r0
    1072:	000d      	movs	r5, r1
    1074:	0016      	movs	r6, r2
    1076:	9301      	str	r3, [sp, #4]
  switch(msg)
    1078:	000b      	movs	r3, r1
    107a:	3b14      	subs	r3, #20
    107c:	b2da      	uxtb	r2, r3
    107e:	2a05      	cmp	r2, #5
    1080:	d820      	bhi.n	10c4 <u8x8_cad_001+0x58>
    1082:	0093      	lsls	r3, r2, #2
    1084:	4a10      	ldr	r2, [pc, #64]	; (10c8 <u8x8_cad_001+0x5c>)
    1086:	58d3      	ldr	r3, [r2, r3]
    1088:	469f      	mov	pc, r3
  {
    case U8X8_MSG_CAD_SEND_CMD:
      u8x8_byte_SetDC(u8x8, 0);
    108a:	2100      	movs	r1, #0
    108c:	f7ff ff7e 	bl	f8c <u8x8_byte_SetDC>
      u8x8_byte_SendByte(u8x8, arg_int);
    1090:	0031      	movs	r1, r6
    1092:	0020      	movs	r0, r4
    1094:	f7ff ff88 	bl	fa8 <u8x8_byte_SendByte>
    case U8X8_MSG_CAD_END_TRANSFER:
      return u8x8->byte_cb(u8x8, msg, arg_int, arg_ptr);
    default:
      return 0;
  }
  return 1;
    1098:	2001      	movs	r0, #1
      break;
    109a:	e011      	b.n	10c0 <u8x8_cad_001+0x54>
      u8x8_byte_SetDC(u8x8, 0);
    109c:	2100      	movs	r1, #0
    109e:	f7ff ff75 	bl	f8c <u8x8_byte_SetDC>
      u8x8_byte_SendByte(u8x8, arg_int);
    10a2:	0031      	movs	r1, r6
    10a4:	0020      	movs	r0, r4
    10a6:	f7ff ff7f 	bl	fa8 <u8x8_byte_SendByte>
  return 1;
    10aa:	2001      	movs	r0, #1
      break;
    10ac:	e008      	b.n	10c0 <u8x8_cad_001+0x54>
      u8x8_byte_SetDC(u8x8, 1);
    10ae:	2101      	movs	r1, #1
    10b0:	f7ff ff6c 	bl	f8c <u8x8_byte_SetDC>
      return u8x8->byte_cb(u8x8, msg, arg_int, arg_ptr);
    10b4:	6927      	ldr	r7, [r4, #16]
    10b6:	9b01      	ldr	r3, [sp, #4]
    10b8:	0032      	movs	r2, r6
    10ba:	0029      	movs	r1, r5
    10bc:	0020      	movs	r0, r4
    10be:	47b8      	blx	r7
}
    10c0:	b003      	add	sp, #12
    10c2:	bdf0      	pop	{r4, r5, r6, r7, pc}
      return 0;
    10c4:	2000      	movs	r0, #0
    10c6:	e7fb      	b.n	10c0 <u8x8_cad_001+0x54>
    10c8:	0000af50 	.word	0x0000af50

000010cc <u8x8_d_helper_display_setup_memory>:
  
*/
void u8x8_d_helper_display_setup_memory(u8x8_t *u8x8, const u8x8_display_info_t *display_info)
{
      /* 1) set display info struct */
      u8x8->display_info = display_info;
    10cc:	6001      	str	r1, [r0, #0]
      u8x8->x_offset = u8x8->display_info->default_x_offset;
    10ce:	7c8a      	ldrb	r2, [r1, #18]
    10d0:	2322      	movs	r3, #34	; 0x22
    10d2:	54c2      	strb	r2, [r0, r3]
}
    10d4:	4770      	bx	lr

000010d6 <u8x8_d_helper_display_init>:
  this is a helper function for the U8X8_MSG_DISPLAY_INIT function.
  It can be called within the display callback function to carry out the usual standard tasks.
  
*/
void u8x8_d_helper_display_init(u8x8_t *u8x8)
{
    10d6:	b570      	push	{r4, r5, r6, lr}
    10d8:	0004      	movs	r4, r0
      /* 2) apply port directions to the GPIO lines and apply default values for the IO lines*/
      u8x8_gpio_Init(u8x8);
    10da:	2300      	movs	r3, #0
    10dc:	2200      	movs	r2, #0
    10de:	2128      	movs	r1, #40	; 0x28
    10e0:	6945      	ldr	r5, [r0, #20]
    10e2:	47a8      	blx	r5
      u8x8_cad_Init(u8x8);              /* this will also call U8X8_MSG_BYTE_INIT, byte init will NOT call GPIO_INIT */
    10e4:	2300      	movs	r3, #0
    10e6:	2200      	movs	r2, #0
    10e8:	2114      	movs	r1, #20
    10ea:	0020      	movs	r0, r4
    10ec:	68e5      	ldr	r5, [r4, #12]
    10ee:	47a8      	blx	r5

      /* 3) do reset */
      u8x8_gpio_SetReset(u8x8, 1);
    10f0:	2201      	movs	r2, #1
    10f2:	214b      	movs	r1, #75	; 0x4b
    10f4:	0020      	movs	r0, r4
    10f6:	f000 f8ff 	bl	12f8 <u8x8_gpio_call>
      u8x8_gpio_Delay(u8x8, U8X8_MSG_DELAY_MILLI, u8x8->display_info->reset_pulse_width_ms);
    10fa:	6823      	ldr	r3, [r4, #0]
    10fc:	791a      	ldrb	r2, [r3, #4]
    10fe:	2129      	movs	r1, #41	; 0x29
    1100:	0020      	movs	r0, r4
    1102:	f000 f8f9 	bl	12f8 <u8x8_gpio_call>
      u8x8_gpio_SetReset(u8x8, 0);
    1106:	2200      	movs	r2, #0
    1108:	214b      	movs	r1, #75	; 0x4b
    110a:	0020      	movs	r0, r4
    110c:	f000 f8f4 	bl	12f8 <u8x8_gpio_call>
      u8x8_gpio_Delay(u8x8, U8X8_MSG_DELAY_MILLI, u8x8->display_info->reset_pulse_width_ms);
    1110:	6823      	ldr	r3, [r4, #0]
    1112:	791a      	ldrb	r2, [r3, #4]
    1114:	2129      	movs	r1, #41	; 0x29
    1116:	0020      	movs	r0, r4
    1118:	f000 f8ee 	bl	12f8 <u8x8_gpio_call>
      u8x8_gpio_SetReset(u8x8, 1);
    111c:	2201      	movs	r2, #1
    111e:	214b      	movs	r1, #75	; 0x4b
    1120:	0020      	movs	r0, r4
    1122:	f000 f8e9 	bl	12f8 <u8x8_gpio_call>
      u8x8_gpio_Delay(u8x8, U8X8_MSG_DELAY_MILLI, u8x8->display_info->post_reset_wait_ms);
    1126:	6823      	ldr	r3, [r4, #0]
    1128:	795a      	ldrb	r2, [r3, #5]
    112a:	2129      	movs	r1, #41	; 0x29
    112c:	0020      	movs	r0, r4
    112e:	f000 f8e3 	bl	12f8 <u8x8_gpio_call>
}    
    1132:	bd70      	pop	{r4, r5, r6, pc}

00001134 <u8x8_DrawTile>:

/*==========================================*/
/* official functions */

uint8_t u8x8_DrawTile(u8x8_t *u8x8, uint8_t x, uint8_t y, uint8_t cnt, uint8_t *tile_ptr)
{
    1134:	b510      	push	{r4, lr}
    1136:	b082      	sub	sp, #8
  u8x8_tile_t tile;
  tile.x_pos = x;
    1138:	466c      	mov	r4, sp
    113a:	7161      	strb	r1, [r4, #5]
  tile.y_pos = y;
    113c:	71a2      	strb	r2, [r4, #6]
  tile.cnt = cnt;
    113e:	7123      	strb	r3, [r4, #4]
  tile.tile_ptr = tile_ptr;
    1140:	9b04      	ldr	r3, [sp, #16]
    1142:	9300      	str	r3, [sp, #0]
  return u8x8->display_cb(u8x8, U8X8_MSG_DISPLAY_DRAW_TILE, 1, (void *)&tile);
    1144:	6884      	ldr	r4, [r0, #8]
    1146:	466b      	mov	r3, sp
    1148:	2201      	movs	r2, #1
    114a:	210f      	movs	r1, #15
    114c:	47a0      	blx	r4
}
    114e:	b002      	add	sp, #8
    1150:	bd10      	pop	{r4, pc}

00001152 <u8x8_SetupMemory>:

/* should be implemented as macro */
void u8x8_SetupMemory(u8x8_t *u8x8)
{
    1152:	b510      	push	{r4, lr}
  u8x8->display_cb(u8x8, U8X8_MSG_DISPLAY_SETUP_MEMORY, 0, NULL);  
    1154:	6884      	ldr	r4, [r0, #8]
    1156:	2300      	movs	r3, #0
    1158:	2200      	movs	r2, #0
    115a:	2109      	movs	r1, #9
    115c:	47a0      	blx	r4
}
    115e:	bd10      	pop	{r4, pc}

00001160 <u8x8_InitDisplay>:
  In some cases it is not required to init the display (for example if the display is already running, but the controller comes out of deep sleep mode).
  Then InitDisplay can be skipped, but u8x8_InitInterface()  (== u8x8_gpio_Init() and u8x8_cad_Init()) need to be executed.

*/
void u8x8_InitDisplay(u8x8_t *u8x8)
{
    1160:	b510      	push	{r4, lr}
  u8x8->display_cb(u8x8, U8X8_MSG_DISPLAY_INIT, 0, NULL);       /* this will call u8x8_d_helper_display_init() and send the init seqence to the display */
    1162:	6884      	ldr	r4, [r0, #8]
    1164:	2300      	movs	r3, #0
    1166:	2200      	movs	r2, #0
    1168:	210a      	movs	r1, #10
    116a:	47a0      	blx	r4
  /* u8x8->display_cb(u8x8, U8X8_MSG_DISPLAY_SET_FLIP_MODE, 0, NULL);  */ /* It would make sense to call flip mode 0 here after U8X8_MSG_DISPLAY_INIT */
}
    116c:	bd10      	pop	{r4, pc}

0000116e <u8x8_SetPowerSave>:

void u8x8_SetPowerSave(u8x8_t *u8x8, uint8_t is_enable)
{
    116e:	b510      	push	{r4, lr}
    1170:	000a      	movs	r2, r1
  u8x8->display_cb(u8x8, U8X8_MSG_DISPLAY_SET_POWER_SAVE, is_enable, NULL);  
    1172:	6884      	ldr	r4, [r0, #8]
    1174:	2300      	movs	r3, #0
    1176:	210b      	movs	r1, #11
    1178:	47a0      	blx	r4
}
    117a:	bd10      	pop	{r4, pc}

0000117c <u8x8_SetFlipMode>:

void u8x8_SetFlipMode(u8x8_t *u8x8, uint8_t mode)
{
    117c:	b510      	push	{r4, lr}
    117e:	000a      	movs	r2, r1
  u8x8->display_cb(u8x8, U8X8_MSG_DISPLAY_SET_FLIP_MODE, mode, NULL);  
    1180:	6884      	ldr	r4, [r0, #8]
    1182:	2300      	movs	r3, #0
    1184:	210d      	movs	r1, #13
    1186:	47a0      	blx	r4
}
    1188:	bd10      	pop	{r4, pc}

0000118a <u8x8_SetContrast>:

void u8x8_SetContrast(u8x8_t *u8x8, uint8_t value)
{
    118a:	b510      	push	{r4, lr}
    118c:	000a      	movs	r2, r1
  u8x8->display_cb(u8x8, U8X8_MSG_DISPLAY_SET_CONTRAST, value, NULL);  
    118e:	6884      	ldr	r4, [r0, #8]
    1190:	2300      	movs	r3, #0
    1192:	210e      	movs	r1, #14
    1194:	47a0      	blx	r4
}
    1196:	bd10      	pop	{r4, pc}

00001198 <u8x8_RefreshDisplay>:

void u8x8_RefreshDisplay(u8x8_t *u8x8)
{
    1198:	b510      	push	{r4, lr}
  u8x8->display_cb(u8x8, U8X8_MSG_DISPLAY_REFRESH, 0, NULL);  
    119a:	6884      	ldr	r4, [r0, #8]
    119c:	2300      	movs	r3, #0
    119e:	2200      	movs	r2, #0
    11a0:	2110      	movs	r1, #16
    11a2:	47a0      	blx	r4
}
    11a4:	bd10      	pop	{r4, pc}
	...

000011a8 <u8x8_d_st7565_common>:
  /* pixel_width = */ 128,
  /* pixel_height = */ 64
};

uint8_t u8x8_d_st7565_common(u8x8_t *u8x8, uint8_t msg, uint8_t arg_int, void *arg_ptr)
{
    11a8:	b5f0      	push	{r4, r5, r6, r7, lr}
    11aa:	46c6      	mov	lr, r8
    11ac:	b500      	push	{lr}
    11ae:	0005      	movs	r5, r0
    11b0:	0014      	movs	r4, r2
    11b2:	001f      	movs	r7, r3
  uint8_t x, c;
  uint8_t *ptr;
  switch(msg)
    11b4:	290e      	cmp	r1, #14
    11b6:	d04d      	beq.n	1254 <u8x8_d_st7565_common+0xac>
    11b8:	290f      	cmp	r1, #15
    11ba:	d003      	beq.n	11c4 <u8x8_d_st7565_common+0x1c>
    11bc:	290b      	cmp	r1, #11
    11be:	d03d      	beq.n	123c <u8x8_d_st7565_common+0x94>
      u8x8_cad_SendArg(u8x8, arg_int >> 2 );	/* st7565 has range from 0 to 63 */
      u8x8_cad_EndTransfer(u8x8);
      break;
#endif
    default:
      return 0;
    11c0:	2000      	movs	r0, #0
    11c2:	e038      	b.n	1236 <u8x8_d_st7565_common+0x8e>
      u8x8_cad_StartTransfer(u8x8);
    11c4:	f7ff ff0f 	bl	fe6 <u8x8_cad_StartTransfer>
      x = ((u8x8_tile_t *)arg_ptr)->x_pos;
    11c8:	797e      	ldrb	r6, [r7, #5]
      x *= 8;
    11ca:	00f6      	lsls	r6, r6, #3
    11cc:	b2f6      	uxtb	r6, r6
      x += u8x8->x_offset;
    11ce:	2322      	movs	r3, #34	; 0x22
    11d0:	5ceb      	ldrb	r3, [r5, r3]
    11d2:	18f6      	adds	r6, r6, r3
    11d4:	b2f3      	uxtb	r3, r6
    11d6:	4698      	mov	r8, r3
      u8x8_cad_SendCmd(u8x8, 0x010 | (x>>4) );
    11d8:	0919      	lsrs	r1, r3, #4
    11da:	2310      	movs	r3, #16
    11dc:	4319      	orrs	r1, r3
    11de:	b2c9      	uxtb	r1, r1
    11e0:	0028      	movs	r0, r5
    11e2:	f7ff feeb 	bl	fbc <u8x8_cad_SendCmd>
      u8x8_cad_SendCmd(u8x8, 0x000 | ((x&15)));
    11e6:	210f      	movs	r1, #15
    11e8:	4643      	mov	r3, r8
    11ea:	4019      	ands	r1, r3
    11ec:	0028      	movs	r0, r5
    11ee:	f7ff fee5 	bl	fbc <u8x8_cad_SendCmd>
      u8x8_cad_SendCmd(u8x8, 0x0b0 | (((u8x8_tile_t *)arg_ptr)->y_pos));
    11f2:	79bb      	ldrb	r3, [r7, #6]
    11f4:	2150      	movs	r1, #80	; 0x50
    11f6:	4249      	negs	r1, r1
    11f8:	4319      	orrs	r1, r3
    11fa:	b2c9      	uxtb	r1, r1
    11fc:	0028      	movs	r0, r5
    11fe:	f7ff fedd 	bl	fbc <u8x8_cad_SendCmd>
      c = ((u8x8_tile_t *)arg_ptr)->cnt;
    1202:	793e      	ldrb	r6, [r7, #4]
      c *= 8;
    1204:	00f6      	lsls	r6, r6, #3
    1206:	b2f6      	uxtb	r6, r6
      ptr = ((u8x8_tile_t *)arg_ptr)->tile_ptr;
    1208:	683f      	ldr	r7, [r7, #0]
      if ( c + x > 132u )
    120a:	4643      	mov	r3, r8
    120c:	18f3      	adds	r3, r6, r3
    120e:	2b84      	cmp	r3, #132	; 0x84
    1210:	d904      	bls.n	121c <u8x8_d_st7565_common+0x74>
	c -= x;
    1212:	267c      	movs	r6, #124	; 0x7c
    1214:	4276      	negs	r6, r6
    1216:	4643      	mov	r3, r8
    1218:	1af6      	subs	r6, r6, r3
    121a:	b2f6      	uxtb	r6, r6
	u8x8_cad_SendData(u8x8, c, ptr);	/* note: SendData can not handle more than 255 bytes */
    121c:	003a      	movs	r2, r7
    121e:	0031      	movs	r1, r6
    1220:	0028      	movs	r0, r5
    1222:	f7ff fed9 	bl	fd8 <u8x8_cad_SendData>
	arg_int--;
    1226:	3c01      	subs	r4, #1
    1228:	b2e4      	uxtb	r4, r4
      } while( arg_int > 0 );
    122a:	2c00      	cmp	r4, #0
    122c:	d1f6      	bne.n	121c <u8x8_d_st7565_common+0x74>
      u8x8_cad_EndTransfer(u8x8);
    122e:	0028      	movs	r0, r5
    1230:	f7ff fee0 	bl	ff4 <u8x8_cad_EndTransfer>
  }
  return 1;
    1234:	2001      	movs	r0, #1
}
    1236:	bc04      	pop	{r2}
    1238:	4690      	mov	r8, r2
    123a:	bdf0      	pop	{r4, r5, r6, r7, pc}
      if ( arg_int == 0 )
    123c:	2a00      	cmp	r2, #0
    123e:	d104      	bne.n	124a <u8x8_d_st7565_common+0xa2>
	u8x8_cad_SendSequence(u8x8, u8x8_d_st7565_powersave0_seq);
    1240:	490c      	ldr	r1, [pc, #48]	; (1274 <u8x8_d_st7565_common+0xcc>)
    1242:	f7ff fede 	bl	1002 <u8x8_cad_SendSequence>
  return 1;
    1246:	2001      	movs	r0, #1
    1248:	e7f5      	b.n	1236 <u8x8_d_st7565_common+0x8e>
	u8x8_cad_SendSequence(u8x8, u8x8_d_st7565_powersave1_seq);
    124a:	490b      	ldr	r1, [pc, #44]	; (1278 <u8x8_d_st7565_common+0xd0>)
    124c:	f7ff fed9 	bl	1002 <u8x8_cad_SendSequence>
  return 1;
    1250:	2001      	movs	r0, #1
    1252:	e7f0      	b.n	1236 <u8x8_d_st7565_common+0x8e>
      u8x8_cad_StartTransfer(u8x8);
    1254:	f7ff fec7 	bl	fe6 <u8x8_cad_StartTransfer>
      u8x8_cad_SendCmd(u8x8, 0x081 );
    1258:	2181      	movs	r1, #129	; 0x81
    125a:	0028      	movs	r0, r5
    125c:	f7ff feae 	bl	fbc <u8x8_cad_SendCmd>
      u8x8_cad_SendArg(u8x8, arg_int >> 2 );	/* st7565 has range from 0 to 63 */
    1260:	08a1      	lsrs	r1, r4, #2
    1262:	0028      	movs	r0, r5
    1264:	f7ff feb1 	bl	fca <u8x8_cad_SendArg>
      u8x8_cad_EndTransfer(u8x8);
    1268:	0028      	movs	r0, r5
    126a:	f7ff fec3 	bl	ff4 <u8x8_cad_EndTransfer>
  return 1;
    126e:	2001      	movs	r0, #1
      break;
    1270:	e7e1      	b.n	1236 <u8x8_d_st7565_common+0x8e>
    1272:	46c0      	nop			; (mov r8, r8)
    1274:	0000af68 	.word	0x0000af68
    1278:	0000af70 	.word	0x0000af70

0000127c <u8x8_d_st7565_zolen_128x64>:
  U8X8_END_TRANSFER(),             	/* disable chip */
  U8X8_END()             			/* end of sequence */
};

uint8_t u8x8_d_st7565_zolen_128x64(u8x8_t *u8x8, uint8_t msg, uint8_t arg_int, void *arg_ptr)
{
    127c:	b570      	push	{r4, r5, r6, lr}
    127e:	0005      	movs	r5, r0
    1280:	000c      	movs	r4, r1
    1282:	0016      	movs	r6, r2
  /* call common procedure first and handle messages there */
  if ( u8x8_d_st7565_common(u8x8, msg, arg_int, arg_ptr) == 0 )
    1284:	f7ff ff90 	bl	11a8 <u8x8_d_st7565_common>
    1288:	2800      	cmp	r0, #0
    128a:	d12a      	bne.n	12e2 <u8x8_d_st7565_zolen_128x64+0x66>
  {
    /* msg not handled, then try here */
    switch(msg)
    128c:	2c0a      	cmp	r4, #10
    128e:	d009      	beq.n	12a4 <u8x8_d_st7565_zolen_128x64+0x28>
    1290:	2c0d      	cmp	r4, #13
    1292:	d010      	beq.n	12b6 <u8x8_d_st7565_zolen_128x64+0x3a>
    1294:	2c09      	cmp	r4, #9
    1296:	d125      	bne.n	12e4 <u8x8_d_st7565_zolen_128x64+0x68>
    {
      case U8X8_MSG_DISPLAY_SETUP_MEMORY:
	u8x8_d_helper_display_setup_memory(u8x8, &u8x8_st7565_128x64_display_info);
    1298:	4913      	ldr	r1, [pc, #76]	; (12e8 <u8x8_d_st7565_zolen_128x64+0x6c>)
    129a:	0028      	movs	r0, r5
    129c:	f7ff ff16 	bl	10cc <u8x8_d_helper_display_setup_memory>
	break;
      default:
	return 0;		/* msg unknown */
    }
  }
  return 1;
    12a0:	2001      	movs	r0, #1
	break;
    12a2:	e01f      	b.n	12e4 <u8x8_d_st7565_zolen_128x64+0x68>
	u8x8_d_helper_display_init(u8x8);
    12a4:	0028      	movs	r0, r5
    12a6:	f7ff ff16 	bl	10d6 <u8x8_d_helper_display_init>
	u8x8_cad_SendSequence(u8x8, u8x8_d_st7565_zolen_128x64_init_seq);
    12aa:	4910      	ldr	r1, [pc, #64]	; (12ec <u8x8_d_st7565_zolen_128x64+0x70>)
    12ac:	0028      	movs	r0, r5
    12ae:	f7ff fea8 	bl	1002 <u8x8_cad_SendSequence>
  return 1;
    12b2:	2001      	movs	r0, #1
	break;
    12b4:	e016      	b.n	12e4 <u8x8_d_st7565_zolen_128x64+0x68>
	if ( arg_int == 0 )
    12b6:	2e00      	cmp	r6, #0
    12b8:	d009      	beq.n	12ce <u8x8_d_st7565_zolen_128x64+0x52>
	  u8x8_cad_SendSequence(u8x8, u8x8_d_st7565_zflip1_seq);
    12ba:	490d      	ldr	r1, [pc, #52]	; (12f0 <u8x8_d_st7565_zolen_128x64+0x74>)
    12bc:	0028      	movs	r0, r5
    12be:	f7ff fea0 	bl	1002 <u8x8_cad_SendSequence>
	  u8x8->x_offset = u8x8->display_info->flipmode_x_offset;
    12c2:	682b      	ldr	r3, [r5, #0]
    12c4:	7cda      	ldrb	r2, [r3, #19]
    12c6:	2322      	movs	r3, #34	; 0x22
    12c8:	54ea      	strb	r2, [r5, r3]
  return 1;
    12ca:	2001      	movs	r0, #1
    12cc:	e00a      	b.n	12e4 <u8x8_d_st7565_zolen_128x64+0x68>
	  u8x8_cad_SendSequence(u8x8, u8x8_d_st7565_zflip0_seq);
    12ce:	4909      	ldr	r1, [pc, #36]	; (12f4 <u8x8_d_st7565_zolen_128x64+0x78>)
    12d0:	0028      	movs	r0, r5
    12d2:	f7ff fe96 	bl	1002 <u8x8_cad_SendSequence>
	  u8x8->x_offset = u8x8->display_info->default_x_offset;
    12d6:	682b      	ldr	r3, [r5, #0]
    12d8:	7c9a      	ldrb	r2, [r3, #18]
    12da:	2322      	movs	r3, #34	; 0x22
    12dc:	54ea      	strb	r2, [r5, r3]
  return 1;
    12de:	2001      	movs	r0, #1
    12e0:	e000      	b.n	12e4 <u8x8_d_st7565_zolen_128x64+0x68>
    12e2:	2001      	movs	r0, #1
}
    12e4:	bd70      	pop	{r4, r5, r6, pc}
    12e6:	46c0      	nop			; (mov r8, r8)
    12e8:	0000afac 	.word	0x0000afac
    12ec:	0000af88 	.word	0x0000af88
    12f0:	0000af80 	.word	0x0000af80
    12f4:	0000af78 	.word	0x0000af78

000012f8 <u8x8_gpio_call>:

#include "u8x8.h"


void u8x8_gpio_call(u8x8_t *u8x8, uint8_t msg, uint8_t arg)
{
    12f8:	b510      	push	{r4, lr}
  u8x8->gpio_and_delay_cb(u8x8, msg, arg, NULL);
    12fa:	6944      	ldr	r4, [r0, #20]
    12fc:	2300      	movs	r3, #0
    12fe:	47a0      	blx	r4
}
    1300:	bd10      	pop	{r4, pc}

00001302 <u8x8_dummy_cb>:
/* universal dummy callback, which will be default for all callbacks */
uint8_t u8x8_dummy_cb(U8X8_UNUSED u8x8_t *u8x8, U8X8_UNUSED uint8_t msg, U8X8_UNUSED uint8_t arg_int, U8X8_UNUSED void *arg_ptr)
{
  /* the dummy callback will not handle any message and will fail for all messages */
  return 0;
}
    1302:	2000      	movs	r0, #0
    1304:	4770      	bx	lr
	...

00001308 <u8x8_SetupDefaults>:
  Args:
    u8x8	An empty u8x8 structure
*/
void u8x8_SetupDefaults(u8x8_t *u8x8)
{
    u8x8->display_info = NULL;
    1308:	2300      	movs	r3, #0
    130a:	6003      	str	r3, [r0, #0]
    u8x8->display_cb = u8x8_dummy_cb;
    130c:	4a07      	ldr	r2, [pc, #28]	; (132c <u8x8_SetupDefaults+0x24>)
    130e:	6082      	str	r2, [r0, #8]
    u8x8->cad_cb = u8x8_dummy_cb;
    1310:	60c2      	str	r2, [r0, #12]
    u8x8->byte_cb = u8x8_dummy_cb;
    1312:	6102      	str	r2, [r0, #16]
    u8x8->gpio_and_delay_cb = u8x8_dummy_cb;
    1314:	6142      	str	r2, [r0, #20]
    u8x8->is_font_inverse_mode = 0;
    1316:	2223      	movs	r2, #35	; 0x23
    1318:	5483      	strb	r3, [r0, r2]
    //u8x8->device_address = 0;
    u8x8->utf8_state = 0;		/* also reset by u8x8_utf8_init */
    131a:	3203      	adds	r2, #3
    131c:	5483      	strb	r3, [r0, r2]
    u8x8->bus_clock = 0;		/* issue 769 */
    131e:	6183      	str	r3, [r0, #24]
    u8x8->i2c_address = 255;
    1320:	33ff      	adds	r3, #255	; 0xff
    1322:	3a02      	subs	r2, #2
    1324:	5483      	strb	r3, [r0, r2]
    u8x8->debounce_default_pin_state = 255;	/* assume all low active buttons */
    1326:	3204      	adds	r2, #4
    1328:	5483      	strb	r3, [r0, r2]
    uint8_t i;
    for( i = 0; i < U8X8_PIN_CNT; i++ )
      u8x8->pins[i] = U8X8_PIN_NONE;
  }
#endif
}
    132a:	4770      	bx	lr
    132c:	00001303 	.word	0x00001303

00001330 <u8x8_Setup>:
    byte_cb			Display controller/communication specific callback funtion
    gpio_and_delay_cb	Environment specific callback function

*/
void u8x8_Setup(u8x8_t *u8x8, u8x8_msg_cb display_cb, u8x8_msg_cb cad_cb, u8x8_msg_cb byte_cb, u8x8_msg_cb gpio_and_delay_cb)
{
    1330:	b5f8      	push	{r3, r4, r5, r6, r7, lr}
    1332:	0004      	movs	r4, r0
    1334:	000f      	movs	r7, r1
    1336:	0016      	movs	r6, r2
    1338:	001d      	movs	r5, r3
  /* setup defaults and reset pins to U8X8_PIN_NONE */
  u8x8_SetupDefaults(u8x8);
    133a:	f7ff ffe5 	bl	1308 <u8x8_SetupDefaults>

  /* setup specific callbacks */
  u8x8->display_cb = display_cb;
    133e:	60a7      	str	r7, [r4, #8]
  u8x8->cad_cb = cad_cb;
    1340:	60e6      	str	r6, [r4, #12]
  u8x8->byte_cb = byte_cb;
    1342:	6125      	str	r5, [r4, #16]
  u8x8->gpio_and_delay_cb = gpio_and_delay_cb;
    1344:	9b06      	ldr	r3, [sp, #24]
    1346:	6163      	str	r3, [r4, #20]

  /* setup display info */
  u8x8_SetupMemory(u8x8);
    1348:	0020      	movs	r0, r4
    134a:	f7ff ff02 	bl	1152 <u8x8_SetupMemory>
}
    134e:	bdf8      	pop	{r3, r4, r5, r6, r7, pc}

00001350 <Dummy_Handler>:

/**
 * \brief Default interrupt handler for unused IRQs.
 */
void Dummy_Handler(void)
{
    1350:	e7fe      	b.n	1350 <Dummy_Handler>
	...

00001354 <Reset_Handler>:
{
    1354:	b510      	push	{r4, lr}
        if (pSrc != pDest) {
    1356:	4a12      	ldr	r2, [pc, #72]	; (13a0 <Reset_Handler+0x4c>)
    1358:	4b12      	ldr	r3, [pc, #72]	; (13a4 <Reset_Handler+0x50>)
    135a:	429a      	cmp	r2, r3
    135c:	d009      	beq.n	1372 <Reset_Handler+0x1e>
    135e:	4b11      	ldr	r3, [pc, #68]	; (13a4 <Reset_Handler+0x50>)
    1360:	4a0f      	ldr	r2, [pc, #60]	; (13a0 <Reset_Handler+0x4c>)
    1362:	e003      	b.n	136c <Reset_Handler+0x18>
                        *pDest++ = *pSrc++;
    1364:	6811      	ldr	r1, [r2, #0]
    1366:	6019      	str	r1, [r3, #0]
    1368:	3304      	adds	r3, #4
    136a:	3204      	adds	r2, #4
                for (; pDest < &_erelocate;) {
    136c:	490e      	ldr	r1, [pc, #56]	; (13a8 <Reset_Handler+0x54>)
    136e:	428b      	cmp	r3, r1
    1370:	d3f8      	bcc.n	1364 <Reset_Handler+0x10>
                        *pDest++ = *pSrc++;
    1372:	4b0e      	ldr	r3, [pc, #56]	; (13ac <Reset_Handler+0x58>)
    1374:	e002      	b.n	137c <Reset_Handler+0x28>
                *pDest++ = 0;
    1376:	2200      	movs	r2, #0
    1378:	601a      	str	r2, [r3, #0]
    137a:	3304      	adds	r3, #4
        for (pDest = &_szero; pDest < &_ezero;) {
    137c:	4a0c      	ldr	r2, [pc, #48]	; (13b0 <Reset_Handler+0x5c>)
    137e:	4293      	cmp	r3, r2
    1380:	d3f9      	bcc.n	1376 <Reset_Handler+0x22>
        SCB->VTOR = ((uint32_t) pSrc & SCB_VTOR_TBLOFF_Msk);
    1382:	4a0c      	ldr	r2, [pc, #48]	; (13b4 <Reset_Handler+0x60>)
    1384:	21ff      	movs	r1, #255	; 0xff
    1386:	4b0c      	ldr	r3, [pc, #48]	; (13b8 <Reset_Handler+0x64>)
    1388:	438b      	bics	r3, r1
    138a:	6093      	str	r3, [r2, #8]
        NVMCTRL->CTRLB.bit.MANW = 1;
    138c:	4a0b      	ldr	r2, [pc, #44]	; (13bc <Reset_Handler+0x68>)
    138e:	6851      	ldr	r1, [r2, #4]
    1390:	2380      	movs	r3, #128	; 0x80
    1392:	430b      	orrs	r3, r1
    1394:	6053      	str	r3, [r2, #4]
        __libc_init_array();
    1396:	f004 fecd 	bl	6134 <__libc_init_array>
        main();
    139a:	f002 f957 	bl	364c <main>
    139e:	e7fe      	b.n	139e <Reset_Handler+0x4a>
    13a0:	0000b69c 	.word	0x0000b69c
    13a4:	20000000 	.word	0x20000000
    13a8:	200009c8 	.word	0x200009c8
    13ac:	200009c8 	.word	0x200009c8
    13b0:	200010b4 	.word	0x200010b4
    13b4:	e000ed00 	.word	0xe000ed00
    13b8:	00000000 	.word	0x00000000
    13bc:	41004000 	.word	0x41004000

000013c0 <EXTERNAL_IRQ_0_init>:
//struct usart_sync_descriptor DEBUG_SERIAL;

//struct i2c_m_sync_desc EXT_I2C;

void EXTERNAL_IRQ_0_init(void)
{
    13c0:	b570      	push	{r4, r5, r6, lr}
}

static inline void hri_gclk_write_CLKCTRL_reg(const void *const hw, hri_gclk_clkctrl_reg_t data)
{
	GCLK_CRITICAL_SECTION_ENTER();
	((Gclk *)hw)->CLKCTRL.reg = data;
    13c2:	4a16      	ldr	r2, [pc, #88]	; (141c <EXTERNAL_IRQ_0_init+0x5c>)
    13c4:	4b16      	ldr	r3, [pc, #88]	; (1420 <EXTERNAL_IRQ_0_init+0x60>)
    13c6:	805a      	strh	r2, [r3, #2]
	((Port *)hw)->Group[submodule_index].DIRCLR.reg = ~data;
}

static inline void hri_port_clear_DIR_reg(const void *const hw, uint8_t submodule_index, hri_port_dir_reg_t mask)
{
	((Port *)hw)->Group[submodule_index].DIRCLR.reg = mask;
    13c8:	2102      	movs	r1, #2
    13ca:	2384      	movs	r3, #132	; 0x84
    13cc:	22c0      	movs	r2, #192	; 0xc0
    13ce:	05d2      	lsls	r2, r2, #23
    13d0:	50d1      	str	r1, [r2, r3]

static inline void hri_port_write_WRCONFIG_reg(const void *const hw, uint8_t submodule_index,
                                               hri_port_wrconfig_reg_t data)
{
	PORT_CRITICAL_SECTION_ENTER();
	((Port *)hw)->Group[submodule_index].WRCONFIG.reg = data;
    13d2:	4b14      	ldr	r3, [pc, #80]	; (1424 <EXTERNAL_IRQ_0_init+0x64>)
    13d4:	22a8      	movs	r2, #168	; 0xa8
    13d6:	4914      	ldr	r1, [pc, #80]	; (1428 <EXTERNAL_IRQ_0_init+0x68>)
    13d8:	5099      	str	r1, [r3, r2]
    13da:	4914      	ldr	r1, [pc, #80]	; (142c <EXTERNAL_IRQ_0_init+0x6c>)
    13dc:	5099      	str	r1, [r3, r2]
	((Port *)hw)->Group[submodule_index].PINCFG[index].reg &= ~PORT_PINCFG_PULLEN;
    13de:	20c1      	movs	r0, #193	; 0xc1
    13e0:	5c1a      	ldrb	r2, [r3, r0]
    13e2:	2104      	movs	r1, #4
    13e4:	438a      	bics	r2, r1
    13e6:	541a      	strb	r2, [r3, r0]
	tmp = ((Port *)hw)->Group[submodule_index].PINCFG[index].reg;
    13e8:	5c19      	ldrb	r1, [r3, r0]
	tmp &= ~PORT_PINCFG_PMUXEN;
    13ea:	2501      	movs	r5, #1
    13ec:	43a9      	bics	r1, r5
	tmp |= value << PORT_PINCFG_PMUXEN_Pos;
    13ee:	2401      	movs	r4, #1
    13f0:	4321      	orrs	r1, r4
    13f2:	b2c9      	uxtb	r1, r1
	((Port *)hw)->Group[submodule_index].PINCFG[index].reg = tmp;
    13f4:	5419      	strb	r1, [r3, r0]
	tmp = ((Port *)hw)->Group[submodule_index].PMUX[index].reg;
    13f6:	22b0      	movs	r2, #176	; 0xb0
    13f8:	5c99      	ldrb	r1, [r3, r2]
	tmp &= ~PORT_PMUX_PMUXO_Msk;
    13fa:	38b2      	subs	r0, #178	; 0xb2
    13fc:	4001      	ands	r1, r0
	((Port *)hw)->Group[submodule_index].PMUX[index].reg = tmp;
    13fe:	5499      	strb	r1, [r3, r2]
	tmp = ((Port *)hw)->Group[submodule_index].PINCFG[index].reg;
    1400:	21c8      	movs	r1, #200	; 0xc8
    1402:	5c5a      	ldrb	r2, [r3, r1]
	tmp &= ~PORT_PINCFG_PMUXEN;
    1404:	43aa      	bics	r2, r5
	tmp |= value << PORT_PINCFG_PMUXEN_Pos;
    1406:	4322      	orrs	r2, r4
    1408:	b2d2      	uxtb	r2, r2
	((Port *)hw)->Group[submodule_index].PINCFG[index].reg = tmp;
    140a:	545a      	strb	r2, [r3, r1]
	tmp = ((Port *)hw)->Group[submodule_index].PMUX[index].reg;
    140c:	3914      	subs	r1, #20
    140e:	5c5a      	ldrb	r2, [r3, r1]
	tmp &= ~PORT_PMUX_PMUXE_Msk;
    1410:	4382      	bics	r2, r0
	((Port *)hw)->Group[submodule_index].PMUX[index].reg = tmp;
    1412:	545a      	strb	r2, [r3, r1]
	gpio_set_pin_function(BTN, PINMUX_PB01A_EIC_EXTINT1);

	
	gpio_set_pin_function(EXT_I2C_IRQ, PORT_PB08A_EIC_EXTINT8);

	ext_irq_init();
    1414:	f000 f89a 	bl	154c <ext_irq_init>
}
    1418:	bd70      	pop	{r4, r5, r6, pc}
    141a:	46c0      	nop			; (mov r8, r8)
    141c:	00004003 	.word	0x00004003
    1420:	40000c00 	.word	0x40000c00
    1424:	41004400 	.word	0x41004400
    1428:	40020002 	.word	0x40020002
    142c:	c0020000 	.word	0xc0020000

00001430 <delay_driver_init>:




void delay_driver_init(void)
{
    1430:	b510      	push	{r4, lr}
	delay_init(SysTick);
    1432:	4802      	ldr	r0, [pc, #8]	; (143c <delay_driver_init+0xc>)
    1434:	f000 f848 	bl	14c8 <delay_init>
}
    1438:	bd10      	pop	{r4, pc}
    143a:	46c0      	nop			; (mov r8, r8)
    143c:	e000e010 	.word	0xe000e010

00001440 <system_init>:

void system_init(void)
{
    1440:	b5f0      	push	{r4, r5, r6, r7, lr}
    1442:	46c6      	mov	lr, r8
    1444:	b500      	push	{lr}
 * Currently the following initialization functions are supported:
 *  - System clock initialization
 */
static inline void init_mcu(void)
{
	_init_chip();
    1446:	f000 fb33 	bl	1ab0 <_init_chip>
	((Port *)hw)->Group[submodule_index].OUTCLR.reg = mask;
    144a:	22c0      	movs	r2, #192	; 0xc0
    144c:	05d2      	lsls	r2, r2, #23
    144e:	2494      	movs	r4, #148	; 0x94
    1450:	2001      	movs	r0, #1
    1452:	5110      	str	r0, [r2, r4]
	((Port *)hw)->Group[submodule_index].DIRSET.reg = mask;
    1454:	2588      	movs	r5, #136	; 0x88
    1456:	5150      	str	r0, [r2, r5]
	((Port *)hw)->Group[submodule_index].WRCONFIG.reg = data;
    1458:	4b17      	ldr	r3, [pc, #92]	; (14b8 <system_init+0x78>)
    145a:	21a8      	movs	r1, #168	; 0xa8
    145c:	4e17      	ldr	r6, [pc, #92]	; (14bc <system_init+0x7c>)
    145e:	505e      	str	r6, [r3, r1]
    1460:	26c0      	movs	r6, #192	; 0xc0
    1462:	0636      	lsls	r6, r6, #24
    1464:	46b0      	mov	r8, r6
    1466:	505e      	str	r6, [r3, r1]
	tmp = ((Port *)hw)->Group[submodule_index].PINCFG[index].reg;
    1468:	26c0      	movs	r6, #192	; 0xc0
    146a:	46b4      	mov	ip, r6
    146c:	5d9e      	ldrb	r6, [r3, r6]
	tmp &= ~PORT_PINCFG_PMUXEN;
    146e:	4386      	bics	r6, r0
	((Port *)hw)->Group[submodule_index].PINCFG[index].reg = tmp;
    1470:	4667      	mov	r7, ip
    1472:	55de      	strb	r6, [r3, r7]
	((Port *)hw)->Group[submodule_index].OUTCLR.reg = mask;
    1474:	2680      	movs	r6, #128	; 0x80
    1476:	5116      	str	r6, [r2, r4]
	((Port *)hw)->Group[submodule_index].DIRSET.reg = mask;
    1478:	5156      	str	r6, [r2, r5]
	((Port *)hw)->Group[submodule_index].WRCONFIG.reg = data;
    147a:	4e11      	ldr	r6, [pc, #68]	; (14c0 <system_init+0x80>)
    147c:	505e      	str	r6, [r3, r1]
    147e:	4646      	mov	r6, r8
    1480:	505e      	str	r6, [r3, r1]
	tmp = ((Port *)hw)->Group[submodule_index].PINCFG[index].reg;
    1482:	3707      	adds	r7, #7
    1484:	5dde      	ldrb	r6, [r3, r7]
	tmp &= ~PORT_PINCFG_PMUXEN;
    1486:	4386      	bics	r6, r0
	((Port *)hw)->Group[submodule_index].PINCFG[index].reg = tmp;
    1488:	55de      	strb	r6, [r3, r7]
	((Port *)hw)->Group[submodule_index].OUTCLR.reg = mask;
    148a:	2680      	movs	r6, #128	; 0x80
    148c:	0076      	lsls	r6, r6, #1
    148e:	5116      	str	r6, [r2, r4]
    1490:	2680      	movs	r6, #128	; 0x80
    1492:	0636      	lsls	r6, r6, #24
    1494:	5116      	str	r6, [r2, r4]
	((Port *)hw)->Group[submodule_index].DIRSET.reg = mask;
    1496:	5156      	str	r6, [r2, r5]
	((Port *)hw)->Group[submodule_index].WRCONFIG.reg = data;
    1498:	2280      	movs	r2, #128	; 0x80
    149a:	05d2      	lsls	r2, r2, #23
    149c:	505a      	str	r2, [r3, r1]
    149e:	4a09      	ldr	r2, [pc, #36]	; (14c4 <system_init+0x84>)
    14a0:	505a      	str	r2, [r3, r1]
	tmp = ((Port *)hw)->Group[submodule_index].PINCFG[index].reg;
    14a2:	3137      	adds	r1, #55	; 0x37
    14a4:	5c5a      	ldrb	r2, [r3, r1]
	tmp &= ~PORT_PINCFG_PMUXEN;
    14a6:	4382      	bics	r2, r0
	((Port *)hw)->Group[submodule_index].PINCFG[index].reg = tmp;
    14a8:	545a      	strb	r2, [r3, r1]
	// Set pin direction to output
	gpio_set_pin_direction(LED_R, GPIO_DIRECTION_OUT);

	gpio_set_pin_function(LED_R, GPIO_PIN_FUNCTION_OFF);

	EXTERNAL_IRQ_0_init();
    14aa:	f7ff ff89 	bl	13c0 <EXTERNAL_IRQ_0_init>

	//RF_SPI_init();

	//DEBUG_SERIAL_init();

	delay_driver_init();
    14ae:	f7ff ffbf 	bl	1430 <delay_driver_init>
}
    14b2:	bc04      	pop	{r2}
    14b4:	4690      	mov	r8, r2
    14b6:	bdf0      	pop	{r4, r5, r6, r7, pc}
    14b8:	41004400 	.word	0x41004400
    14bc:	40000001 	.word	0x40000001
    14c0:	40000080 	.word	0x40000080
    14c4:	c0008000 	.word	0xc0008000

000014c8 <delay_init>:

/**
 * \brief Initialize Delay driver
 */
void delay_init(void *const hw)
{
    14c8:	b510      	push	{r4, lr}
	_delay_init(hardware = hw);
    14ca:	4b02      	ldr	r3, [pc, #8]	; (14d4 <delay_init+0xc>)
    14cc:	6018      	str	r0, [r3, #0]
    14ce:	f001 f907 	bl	26e0 <_delay_init>
}
    14d2:	bd10      	pop	{r4, pc}
    14d4:	20000de4 	.word	0x20000de4

000014d8 <delay_us>:

/**
 * \brief Perform delay in us
 */
void delay_us(const uint16_t us)
{
    14d8:	b510      	push	{r4, lr}
	_delay_cycles(hardware, _get_cycles_for_us(us));
    14da:	4b04      	ldr	r3, [pc, #16]	; (14ec <delay_us+0x14>)
    14dc:	681c      	ldr	r4, [r3, #0]
    14de:	f000 fad7 	bl	1a90 <_get_cycles_for_us>
    14e2:	0001      	movs	r1, r0
    14e4:	0020      	movs	r0, r4
    14e6:	f001 f8ff 	bl	26e8 <_delay_cycles>
}
    14ea:	bd10      	pop	{r4, pc}
    14ec:	20000de4 	.word	0x20000de4

000014f0 <delay_ms>:

/**
 * \brief Perform delay in ms
 */
void delay_ms(const uint16_t ms)
{
    14f0:	b510      	push	{r4, lr}
	_delay_cycles(hardware, _get_cycles_for_ms(ms));
    14f2:	4b04      	ldr	r3, [pc, #16]	; (1504 <delay_ms+0x14>)
    14f4:	681c      	ldr	r4, [r3, #0]
    14f6:	f000 fad5 	bl	1aa4 <_get_cycles_for_ms>
    14fa:	0001      	movs	r1, r0
    14fc:	0020      	movs	r0, r4
    14fe:	f001 f8f3 	bl	26e8 <_delay_cycles>
}
    1502:	bd10      	pop	{r4, pc}
    1504:	20000de4 	.word	0x20000de4

00001508 <process_ext_irq>:
 * \brief Interrupt processing routine
 *
 * \param[in] pin The pin which triggered the interrupt
 */
static void process_ext_irq(const uint32_t pin)
{
    1508:	b570      	push	{r4, r5, r6, lr}
	uint8_t lower = 0, middle, upper = EXT_IRQ_AMOUNT;
    150a:	2503      	movs	r5, #3
    150c:	2400      	movs	r4, #0

	while (upper >= lower) {
    150e:	e007      	b.n	1520 <process_ext_irq+0x18>
		if (middle >= EXT_IRQ_AMOUNT) {
			return;
		}

		if (ext_irqs[middle].pin == pin) {
			if (ext_irqs[middle].cb) {
    1510:	4a0d      	ldr	r2, [pc, #52]	; (1548 <process_ext_irq+0x40>)
    1512:	58b3      	ldr	r3, [r6, r2]
    1514:	2b00      	cmp	r3, #0
    1516:	d000      	beq.n	151a <process_ext_irq+0x12>
				ext_irqs[middle].cb();
    1518:	4798      	blx	r3
			lower = middle + 1;
		} else {
			upper = middle - 1;
		}
	}
}
    151a:	bd70      	pop	{r4, r5, r6, pc}
			upper = middle - 1;
    151c:	3a01      	subs	r2, #1
    151e:	b2d5      	uxtb	r5, r2
	while (upper >= lower) {
    1520:	42ac      	cmp	r4, r5
    1522:	d8fa      	bhi.n	151a <process_ext_irq+0x12>
		middle = (upper + lower) >> 1;
    1524:	192b      	adds	r3, r5, r4
    1526:	105b      	asrs	r3, r3, #1
    1528:	b2da      	uxtb	r2, r3
		if (middle >= EXT_IRQ_AMOUNT) {
    152a:	2a02      	cmp	r2, #2
    152c:	d8f5      	bhi.n	151a <process_ext_irq+0x12>
    152e:	21ff      	movs	r1, #255	; 0xff
    1530:	400b      	ands	r3, r1
		if (ext_irqs[middle].pin == pin) {
    1532:	00de      	lsls	r6, r3, #3
    1534:	4904      	ldr	r1, [pc, #16]	; (1548 <process_ext_irq+0x40>)
    1536:	1989      	adds	r1, r1, r6
    1538:	6849      	ldr	r1, [r1, #4]
    153a:	4281      	cmp	r1, r0
    153c:	d0e8      	beq.n	1510 <process_ext_irq+0x8>
		if (ext_irqs[middle].pin < pin) {
    153e:	d2ed      	bcs.n	151c <process_ext_irq+0x14>
			lower = middle + 1;
    1540:	3201      	adds	r2, #1
    1542:	b2d4      	uxtb	r4, r2
    1544:	e7ec      	b.n	1520 <process_ext_irq+0x18>
    1546:	46c0      	nop			; (mov r8, r8)
    1548:	20000de8 	.word	0x20000de8

0000154c <ext_irq_init>:
{
    154c:	b510      	push	{r4, lr}
	for (i = 0; i < EXT_IRQ_AMOUNT; i++) {
    154e:	2300      	movs	r3, #0
    1550:	e009      	b.n	1566 <ext_irq_init+0x1a>
		ext_irqs[i].pin = 0xFFFFFFFF;
    1552:	4a08      	ldr	r2, [pc, #32]	; (1574 <ext_irq_init+0x28>)
    1554:	00d9      	lsls	r1, r3, #3
    1556:	1850      	adds	r0, r2, r1
    1558:	2401      	movs	r4, #1
    155a:	4264      	negs	r4, r4
    155c:	6044      	str	r4, [r0, #4]
		ext_irqs[i].cb  = NULL;
    155e:	2000      	movs	r0, #0
    1560:	5088      	str	r0, [r1, r2]
	for (i = 0; i < EXT_IRQ_AMOUNT; i++) {
    1562:	3301      	adds	r3, #1
    1564:	b29b      	uxth	r3, r3
    1566:	2b02      	cmp	r3, #2
    1568:	d9f3      	bls.n	1552 <ext_irq_init+0x6>
	return _ext_irq_init(process_ext_irq);
    156a:	4803      	ldr	r0, [pc, #12]	; (1578 <ext_irq_init+0x2c>)
    156c:	f000 fab6 	bl	1adc <_ext_irq_init>
}
    1570:	bd10      	pop	{r4, pc}
    1572:	46c0      	nop			; (mov r8, r8)
    1574:	20000de8 	.word	0x20000de8
    1578:	00001509 	.word	0x00001509

0000157c <ext_irq_register>:
{
    157c:	b5f0      	push	{r4, r5, r6, r7, lr}
    157e:	46d6      	mov	lr, sl
    1580:	464f      	mov	r7, r9
    1582:	4646      	mov	r6, r8
    1584:	b5c0      	push	{r6, r7, lr}
    1586:	b084      	sub	sp, #16
	uint8_t i = 0, j = 0;
    1588:	2300      	movs	r3, #0
	for (; i < EXT_IRQ_AMOUNT; i++) {
    158a:	2b02      	cmp	r3, #2
    158c:	d80c      	bhi.n	15a8 <ext_irq_register+0x2c>
		if (ext_irqs[i].pin == pin) {
    158e:	00dc      	lsls	r4, r3, #3
    1590:	4a32      	ldr	r2, [pc, #200]	; (165c <ext_irq_register+0xe0>)
    1592:	1912      	adds	r2, r2, r4
    1594:	6852      	ldr	r2, [r2, #4]
    1596:	4282      	cmp	r2, r0
    1598:	d002      	beq.n	15a0 <ext_irq_register+0x24>
	for (; i < EXT_IRQ_AMOUNT; i++) {
    159a:	3301      	adds	r3, #1
    159c:	b2db      	uxtb	r3, r3
    159e:	e7f4      	b.n	158a <ext_irq_register+0xe>
			ext_irqs[i].cb = cb;
    15a0:	4b2e      	ldr	r3, [pc, #184]	; (165c <ext_irq_register+0xe0>)
    15a2:	50e1      	str	r1, [r4, r3]
			found          = true;
    15a4:	2601      	movs	r6, #1
			break;
    15a6:	e000      	b.n	15aa <ext_irq_register+0x2e>
	bool    found = false;
    15a8:	2600      	movs	r6, #0
	if (NULL == cb) {
    15aa:	2900      	cmp	r1, #0
    15ac:	d00c      	beq.n	15c8 <ext_irq_register+0x4c>
	if (!found) {
    15ae:	2e00      	cmp	r6, #0
    15b0:	d142      	bne.n	1638 <ext_irq_register+0xbc>
    15b2:	2300      	movs	r3, #0
		for (i = 0; i < EXT_IRQ_AMOUNT; i++) {
    15b4:	2b02      	cmp	r3, #2
    15b6:	d811      	bhi.n	15dc <ext_irq_register+0x60>
			if (NULL == ext_irqs[i].cb) {
    15b8:	00da      	lsls	r2, r3, #3
    15ba:	4d28      	ldr	r5, [pc, #160]	; (165c <ext_irq_register+0xe0>)
    15bc:	5952      	ldr	r2, [r2, r5]
    15be:	2a00      	cmp	r2, #0
    15c0:	d007      	beq.n	15d2 <ext_irq_register+0x56>
		for (i = 0; i < EXT_IRQ_AMOUNT; i++) {
    15c2:	3301      	adds	r3, #1
    15c4:	b2db      	uxtb	r3, r3
    15c6:	e7f5      	b.n	15b4 <ext_irq_register+0x38>
		if (!found) {
    15c8:	2e00      	cmp	r6, #0
    15ca:	d040      	beq.n	164e <ext_irq_register+0xd2>
		return _ext_irq_enable(pin, false);
    15cc:	f000 fad6 	bl	1b7c <_ext_irq_enable>
    15d0:	e037      	b.n	1642 <ext_irq_register+0xc6>
				ext_irqs[i].cb  = cb;
    15d2:	00dc      	lsls	r4, r3, #3
    15d4:	5161      	str	r1, [r4, r5]
				ext_irqs[i].pin = pin;
    15d6:	192c      	adds	r4, r5, r4
    15d8:	6060      	str	r0, [r4, #4]
				found           = true;
    15da:	2601      	movs	r6, #1
    15dc:	2200      	movs	r2, #0
    15de:	e001      	b.n	15e4 <ext_irq_register+0x68>
		for (; (j < EXT_IRQ_AMOUNT) && (i < EXT_IRQ_AMOUNT); j++) {
    15e0:	3201      	adds	r2, #1
    15e2:	b2d2      	uxtb	r2, r2
    15e4:	2a02      	cmp	r2, #2
    15e6:	d827      	bhi.n	1638 <ext_irq_register+0xbc>
    15e8:	2b02      	cmp	r3, #2
    15ea:	d825      	bhi.n	1638 <ext_irq_register+0xbc>
			if ((ext_irqs[i].pin < ext_irqs[j].pin) && (ext_irqs[j].pin != 0xFFFFFFFF)) {
    15ec:	9301      	str	r3, [sp, #4]
    15ee:	491b      	ldr	r1, [pc, #108]	; (165c <ext_irq_register+0xe0>)
    15f0:	00dc      	lsls	r4, r3, #3
    15f2:	190c      	adds	r4, r1, r4
    15f4:	6867      	ldr	r7, [r4, #4]
    15f6:	00d4      	lsls	r4, r2, #3
    15f8:	1909      	adds	r1, r1, r4
    15fa:	6849      	ldr	r1, [r1, #4]
    15fc:	428f      	cmp	r7, r1
    15fe:	d2ef      	bcs.n	15e0 <ext_irq_register+0x64>
    1600:	1c4c      	adds	r4, r1, #1
    1602:	d0ed      	beq.n	15e0 <ext_irq_register+0x64>
				struct ext_irq tmp = ext_irqs[j];
    1604:	a902      	add	r1, sp, #8
    1606:	468c      	mov	ip, r1
    1608:	4c14      	ldr	r4, [pc, #80]	; (165c <ext_irq_register+0xe0>)
    160a:	46a0      	mov	r8, r4
    160c:	00d4      	lsls	r4, r2, #3
    160e:	46a1      	mov	r9, r4
    1610:	4644      	mov	r4, r8
    1612:	444c      	add	r4, r9
    1614:	4665      	mov	r5, ip
    1616:	cc82      	ldmia	r4!, {r1, r7}
    1618:	c582      	stmia	r5!, {r1, r7}
				ext_irqs[j] = ext_irqs[i];
    161a:	9901      	ldr	r1, [sp, #4]
    161c:	00c9      	lsls	r1, r1, #3
    161e:	468a      	mov	sl, r1
    1620:	4649      	mov	r1, r9
    1622:	4441      	add	r1, r8
    1624:	4644      	mov	r4, r8
    1626:	4454      	add	r4, sl
    1628:	cca0      	ldmia	r4!, {r5, r7}
    162a:	c1a0      	stmia	r1!, {r5, r7}
				ext_irqs[i] = tmp;
    162c:	4645      	mov	r5, r8
    162e:	4455      	add	r5, sl
    1630:	4661      	mov	r1, ip
    1632:	c990      	ldmia	r1!, {r4, r7}
    1634:	c590      	stmia	r5!, {r4, r7}
    1636:	e7d3      	b.n	15e0 <ext_irq_register+0x64>
	if (!found) {
    1638:	2e00      	cmp	r6, #0
    163a:	d00b      	beq.n	1654 <ext_irq_register+0xd8>
	return _ext_irq_enable(pin, true);
    163c:	2101      	movs	r1, #1
    163e:	f000 fa9d 	bl	1b7c <_ext_irq_enable>
}
    1642:	b004      	add	sp, #16
    1644:	bc1c      	pop	{r2, r3, r4}
    1646:	4690      	mov	r8, r2
    1648:	4699      	mov	r9, r3
    164a:	46a2      	mov	sl, r4
    164c:	bdf0      	pop	{r4, r5, r6, r7, pc}
			return ERR_INVALID_ARG;
    164e:	200d      	movs	r0, #13
    1650:	4240      	negs	r0, r0
    1652:	e7f6      	b.n	1642 <ext_irq_register+0xc6>
		return ERR_INVALID_ARG;
    1654:	200d      	movs	r0, #13
    1656:	4240      	negs	r0, r0
    1658:	e7f3      	b.n	1642 <ext_irq_register+0xc6>
    165a:	46c0      	nop			; (mov r8, r8)
    165c:	20000de8 	.word	0x20000de8

00001660 <i2c_m_sync_write>:

/**
 * \brief Sync version of I2C I/O write
 */
static int32_t i2c_m_sync_write(struct io_descriptor *io, const uint8_t *buf, const uint16_t n)
{
    1660:	b510      	push	{r4, lr}
    1662:	b084      	sub	sp, #16
	struct i2c_m_sync_desc *i2c = CONTAINER_OF(io, struct i2c_m_sync_desc, io);
	struct _i2c_m_msg       msg;
	int32_t                 ret;

	msg.addr   = i2c->slave_addr;
    1664:	3814      	subs	r0, #20
    1666:	8b84      	ldrh	r4, [r0, #28]
    1668:	ab01      	add	r3, sp, #4
    166a:	801c      	strh	r4, [r3, #0]
	msg.len    = n;
    166c:	0014      	movs	r4, r2
    166e:	9202      	str	r2, [sp, #8]
	msg.flags  = I2C_M_STOP;
    1670:	4a06      	ldr	r2, [pc, #24]	; (168c <i2c_m_sync_write+0x2c>)
    1672:	805a      	strh	r2, [r3, #2]
	msg.buffer = (uint8_t *)buf;
    1674:	9103      	str	r1, [sp, #12]

	ret = _i2c_m_sync_transfer(&i2c->device, &msg);
    1676:	0019      	movs	r1, r3
    1678:	f000 fd48 	bl	210c <_i2c_m_sync_transfer>

	if (ret) {
    167c:	2800      	cmp	r0, #0
    167e:	d102      	bne.n	1686 <i2c_m_sync_write+0x26>
		return ret;
	}

	return n;
}
    1680:	0020      	movs	r0, r4
    1682:	b004      	add	sp, #16
    1684:	bd10      	pop	{r4, pc}
		return ret;
    1686:	0004      	movs	r4, r0
    1688:	e7fa      	b.n	1680 <i2c_m_sync_write+0x20>
    168a:	46c0      	nop			; (mov r8, r8)
    168c:	ffff8000 	.word	0xffff8000

00001690 <i2c_m_sync_read>:
{
    1690:	b510      	push	{r4, lr}
    1692:	b084      	sub	sp, #16
	msg.addr   = i2c->slave_addr;
    1694:	3814      	subs	r0, #20
    1696:	8b84      	ldrh	r4, [r0, #28]
    1698:	ab01      	add	r3, sp, #4
    169a:	801c      	strh	r4, [r3, #0]
	msg.len    = n;
    169c:	0014      	movs	r4, r2
    169e:	9202      	str	r2, [sp, #8]
	msg.flags  = I2C_M_STOP | I2C_M_RD;
    16a0:	4a06      	ldr	r2, [pc, #24]	; (16bc <i2c_m_sync_read+0x2c>)
    16a2:	805a      	strh	r2, [r3, #2]
	msg.buffer = buf;
    16a4:	9103      	str	r1, [sp, #12]
	ret = _i2c_m_sync_transfer(&i2c->device, &msg);
    16a6:	0019      	movs	r1, r3
    16a8:	f000 fd30 	bl	210c <_i2c_m_sync_transfer>
	if (ret) {
    16ac:	2800      	cmp	r0, #0
    16ae:	d102      	bne.n	16b6 <i2c_m_sync_read+0x26>
}
    16b0:	0020      	movs	r0, r4
    16b2:	b004      	add	sp, #16
    16b4:	bd10      	pop	{r4, pc}
		return ret;
    16b6:	0004      	movs	r4, r0
    16b8:	e7fa      	b.n	16b0 <i2c_m_sync_read+0x20>
    16ba:	46c0      	nop			; (mov r8, r8)
    16bc:	ffff8001 	.word	0xffff8001

000016c0 <i2c_m_sync_init>:

/**
 * \brief Sync version of i2c initialize
 */
int32_t i2c_m_sync_init(struct i2c_m_sync_desc *i2c, void *hw)
{
    16c0:	b570      	push	{r4, r5, r6, lr}
    16c2:	0004      	movs	r4, r0
    16c4:	000d      	movs	r5, r1
	int32_t init_status;
	ASSERT(i2c);
    16c6:	1e43      	subs	r3, r0, #1
    16c8:	4198      	sbcs	r0, r3
    16ca:	b2c0      	uxtb	r0, r0
    16cc:	225e      	movs	r2, #94	; 0x5e
    16ce:	4907      	ldr	r1, [pc, #28]	; (16ec <i2c_m_sync_init+0x2c>)
    16d0:	f000 f9c8 	bl	1a64 <assert>

	init_status = _i2c_m_sync_init(&i2c->device, hw);
    16d4:	0029      	movs	r1, r5
    16d6:	0020      	movs	r0, r4
    16d8:	f000 fc8c 	bl	1ff4 <_i2c_m_sync_init>
	if (init_status) {
    16dc:	2800      	cmp	r0, #0
    16de:	d103      	bne.n	16e8 <i2c_m_sync_init+0x28>
		return init_status;
	}

	/* Init I/O */
	i2c->io.read  = i2c_m_sync_read;
    16e0:	4b03      	ldr	r3, [pc, #12]	; (16f0 <i2c_m_sync_init+0x30>)
    16e2:	61a3      	str	r3, [r4, #24]
	i2c->io.write = i2c_m_sync_write;
    16e4:	4b03      	ldr	r3, [pc, #12]	; (16f4 <i2c_m_sync_init+0x34>)
    16e6:	6163      	str	r3, [r4, #20]

	return ERR_NONE;
}
    16e8:	bd70      	pop	{r4, r5, r6, pc}
    16ea:	46c0      	nop			; (mov r8, r8)
    16ec:	0000afc4 	.word	0x0000afc4
    16f0:	00001691 	.word	0x00001691
    16f4:	00001661 	.word	0x00001661

000016f8 <i2c_m_sync_enable>:

/**
 * \brief Sync version of i2c enable
 */
int32_t i2c_m_sync_enable(struct i2c_m_sync_desc *i2c)
{
    16f8:	b510      	push	{r4, lr}
	return _i2c_m_sync_enable(&i2c->device);
    16fa:	f000 fccd 	bl	2098 <_i2c_m_sync_enable>
}
    16fe:	bd10      	pop	{r4, pc}

00001700 <i2c_m_sync_set_slaveaddr>:
/**
 * \brief Sync version of i2c set slave address
 */
int32_t i2c_m_sync_set_slaveaddr(struct i2c_m_sync_desc *i2c, int16_t addr, int32_t addr_len)
{
	return i2c->slave_addr = (addr & 0x3ff) | (addr_len & I2C_M_TEN);
    1700:	0589      	lsls	r1, r1, #22
    1702:	0d89      	lsrs	r1, r1, #22
    1704:	2380      	movs	r3, #128	; 0x80
    1706:	00db      	lsls	r3, r3, #3
    1708:	401a      	ands	r2, r3
    170a:	430a      	orrs	r2, r1
    170c:	8382      	strh	r2, [r0, #28]
}
    170e:	0010      	movs	r0, r2
    1710:	4770      	bx	lr
	...

00001714 <i2c_m_sync_cmd_read>:

/**
 * \brief Sync version of i2c read command
 */
int32_t i2c_m_sync_cmd_read(struct i2c_m_sync_desc *i2c, uint8_t reg, uint8_t *buffer, uint8_t length)
{
    1714:	b570      	push	{r4, r5, r6, lr}
    1716:	b086      	sub	sp, #24
    1718:	0004      	movs	r4, r0
    171a:	0016      	movs	r6, r2
    171c:	001d      	movs	r5, r3
    171e:	466b      	mov	r3, sp
    1720:	71d9      	strb	r1, [r3, #7]
    1722:	3307      	adds	r3, #7
	struct _i2c_m_msg msg;
	int32_t           ret;

	msg.addr   = i2c->slave_addr;
    1724:	8b82      	ldrh	r2, [r0, #28]
    1726:	a903      	add	r1, sp, #12
    1728:	800a      	strh	r2, [r1, #0]
	msg.len    = 1;
    172a:	2201      	movs	r2, #1
    172c:	604a      	str	r2, [r1, #4]
	msg.flags  = 0;
    172e:	2200      	movs	r2, #0
    1730:	804a      	strh	r2, [r1, #2]
	msg.buffer = &reg;
    1732:	608b      	str	r3, [r1, #8]

	ret = _i2c_m_sync_transfer(&i2c->device, &msg);
    1734:	f000 fcea 	bl	210c <_i2c_m_sync_transfer>

	if (ret != 0) {
    1738:	2800      	cmp	r0, #0
    173a:	d001      	beq.n	1740 <i2c_m_sync_cmd_read+0x2c>
		/* error occurred */
		return ret;
	}

	return ERR_NONE;
}
    173c:	b006      	add	sp, #24
    173e:	bd70      	pop	{r4, r5, r6, pc}
	msg.flags  = I2C_M_STOP | I2C_M_RD;
    1740:	a903      	add	r1, sp, #12
    1742:	4b04      	ldr	r3, [pc, #16]	; (1754 <i2c_m_sync_cmd_read+0x40>)
    1744:	804b      	strh	r3, [r1, #2]
	msg.buffer = buffer;
    1746:	608e      	str	r6, [r1, #8]
	msg.len    = length;
    1748:	604d      	str	r5, [r1, #4]
	ret = _i2c_m_sync_transfer(&i2c->device, &msg);
    174a:	0020      	movs	r0, r4
    174c:	f000 fcde 	bl	210c <_i2c_m_sync_transfer>
    1750:	e7f4      	b.n	173c <i2c_m_sync_cmd_read+0x28>
    1752:	46c0      	nop			; (mov r8, r8)
    1754:	ffff8001 	.word	0xffff8001

00001758 <i2c_m_sync_get_io_descriptor>:
/**
 * \brief Retrieve I/O descriptor
 */
int32_t i2c_m_sync_get_io_descriptor(struct i2c_m_sync_desc *const i2c, struct io_descriptor **io)
{
	*io = &i2c->io;
    1758:	3014      	adds	r0, #20
    175a:	6008      	str	r0, [r1, #0]
	return ERR_NONE;
}
    175c:	2000      	movs	r0, #0
    175e:	4770      	bx	lr

00001760 <io_write>:

/**
 * \brief I/O write interface
 */
int32_t io_write(struct io_descriptor *const io_descr, const uint8_t *const buf, const uint16_t length)
{
    1760:	b570      	push	{r4, r5, r6, lr}
    1762:	0004      	movs	r4, r0
    1764:	000d      	movs	r5, r1
    1766:	0016      	movs	r6, r2
	ASSERT(io_descr && buf);
    1768:	2800      	cmp	r0, #0
    176a:	d00e      	beq.n	178a <io_write+0x2a>
    176c:	2900      	cmp	r1, #0
    176e:	d00a      	beq.n	1786 <io_write+0x26>
    1770:	2001      	movs	r0, #1
    1772:	2234      	movs	r2, #52	; 0x34
    1774:	4906      	ldr	r1, [pc, #24]	; (1790 <io_write+0x30>)
    1776:	f000 f975 	bl	1a64 <assert>
	return io_descr->write(io_descr, buf, length);
    177a:	6823      	ldr	r3, [r4, #0]
    177c:	0032      	movs	r2, r6
    177e:	0029      	movs	r1, r5
    1780:	0020      	movs	r0, r4
    1782:	4798      	blx	r3
}
    1784:	bd70      	pop	{r4, r5, r6, pc}
	ASSERT(io_descr && buf);
    1786:	2000      	movs	r0, #0
    1788:	e7f3      	b.n	1772 <io_write+0x12>
    178a:	2000      	movs	r0, #0
    178c:	e7f1      	b.n	1772 <io_write+0x12>
    178e:	46c0      	nop			; (mov r8, r8)
    1790:	0000afe0 	.word	0x0000afe0

00001794 <io_read>:

/**
 * \brief I/O read interface
 */
int32_t io_read(struct io_descriptor *const io_descr, uint8_t *const buf, const uint16_t length)
{
    1794:	b570      	push	{r4, r5, r6, lr}
    1796:	0004      	movs	r4, r0
    1798:	000d      	movs	r5, r1
    179a:	0016      	movs	r6, r2
	ASSERT(io_descr && buf);
    179c:	2800      	cmp	r0, #0
    179e:	d00e      	beq.n	17be <io_read+0x2a>
    17a0:	2900      	cmp	r1, #0
    17a2:	d00a      	beq.n	17ba <io_read+0x26>
    17a4:	2001      	movs	r0, #1
    17a6:	223d      	movs	r2, #61	; 0x3d
    17a8:	4906      	ldr	r1, [pc, #24]	; (17c4 <io_read+0x30>)
    17aa:	f000 f95b 	bl	1a64 <assert>
	return io_descr->read(io_descr, buf, length);
    17ae:	6863      	ldr	r3, [r4, #4]
    17b0:	0032      	movs	r2, r6
    17b2:	0029      	movs	r1, r5
    17b4:	0020      	movs	r0, r4
    17b6:	4798      	blx	r3
}
    17b8:	bd70      	pop	{r4, r5, r6, pc}
	ASSERT(io_descr && buf);
    17ba:	2000      	movs	r0, #0
    17bc:	e7f3      	b.n	17a6 <io_read+0x12>
    17be:	2000      	movs	r0, #0
    17c0:	e7f1      	b.n	17a6 <io_read+0x12>
    17c2:	46c0      	nop			; (mov r8, r8)
    17c4:	0000afe0 	.word	0x0000afe0

000017c8 <spi_m_sync_init>:
	ASSERT(spi);
	spi->func = (struct _spi_m_sync_hpl_interface *)func;
}

int32_t spi_m_sync_init(struct spi_m_sync_descriptor *spi, void *const hw)
{
    17c8:	b570      	push	{r4, r5, r6, lr}
    17ca:	0004      	movs	r4, r0
    17cc:	000d      	movs	r5, r1
	int32_t rc = 0;
	ASSERT(spi && hw);
    17ce:	2800      	cmp	r0, #0
    17d0:	d017      	beq.n	1802 <spi_m_sync_init+0x3a>
    17d2:	2900      	cmp	r1, #0
    17d4:	d013      	beq.n	17fe <spi_m_sync_init+0x36>
    17d6:	2001      	movs	r0, #1
    17d8:	2240      	movs	r2, #64	; 0x40
    17da:	490b      	ldr	r1, [pc, #44]	; (1808 <spi_m_sync_init+0x40>)
    17dc:	f000 f942 	bl	1a64 <assert>
	spi->dev.prvt = (void *)hw;
    17e0:	6065      	str	r5, [r4, #4]
	rc            = _spi_m_sync_init(&spi->dev, hw);
    17e2:	1d20      	adds	r0, r4, #4
    17e4:	0029      	movs	r1, r5
    17e6:	f000 fd9d 	bl	2324 <_spi_m_sync_init>

	if (rc < 0) {
    17ea:	2800      	cmp	r0, #0
    17ec:	db06      	blt.n	17fc <spi_m_sync_init+0x34>
		return rc;
	}

	spi->flags    = SPI_DEACTIVATE_NEXT;
    17ee:	4b07      	ldr	r3, [pc, #28]	; (180c <spi_m_sync_init+0x44>)
    17f0:	82a3      	strh	r3, [r4, #20]
	spi->io.read  = _spi_m_sync_io_read;
    17f2:	4b07      	ldr	r3, [pc, #28]	; (1810 <spi_m_sync_init+0x48>)
    17f4:	6123      	str	r3, [r4, #16]
	spi->io.write = _spi_m_sync_io_write;
    17f6:	4b07      	ldr	r3, [pc, #28]	; (1814 <spi_m_sync_init+0x4c>)
    17f8:	60e3      	str	r3, [r4, #12]

	return ERR_NONE;
    17fa:	2000      	movs	r0, #0
}
    17fc:	bd70      	pop	{r4, r5, r6, pc}
	ASSERT(spi && hw);
    17fe:	2000      	movs	r0, #0
    1800:	e7ea      	b.n	17d8 <spi_m_sync_init+0x10>
    1802:	2000      	movs	r0, #0
    1804:	e7e8      	b.n	17d8 <spi_m_sync_init+0x10>
    1806:	46c0      	nop			; (mov r8, r8)
    1808:	0000aff4 	.word	0x0000aff4
    180c:	ffff8000 	.word	0xffff8000
    1810:	000018ad 	.word	0x000018ad
    1814:	00001879 	.word	0x00001879

00001818 <spi_m_sync_enable>:
	ASSERT(spi);
	_spi_m_sync_deinit(&spi->dev);
}

void spi_m_sync_enable(struct spi_m_sync_descriptor *spi)
{
    1818:	b510      	push	{r4, lr}
    181a:	0004      	movs	r4, r0
	ASSERT(spi);
    181c:	1e43      	subs	r3, r0, #1
    181e:	4198      	sbcs	r0, r3
    1820:	b2c0      	uxtb	r0, r0
    1822:	2257      	movs	r2, #87	; 0x57
    1824:	4903      	ldr	r1, [pc, #12]	; (1834 <spi_m_sync_enable+0x1c>)
    1826:	f000 f91d 	bl	1a64 <assert>
	_spi_m_sync_enable(&spi->dev);
    182a:	1d20      	adds	r0, r4, #4
    182c:	f000 fe54 	bl	24d8 <_spi_m_sync_enable>
}
    1830:	bd10      	pop	{r4, pc}
    1832:	46c0      	nop			; (mov r8, r8)
    1834:	0000aff4 	.word	0x0000aff4

00001838 <spi_m_sync_transfer>:

	return spi_m_sync_transfer(spi, &xfer);
}

int32_t spi_m_sync_transfer(struct spi_m_sync_descriptor *spi, const struct spi_xfer *p_xfer)
{
    1838:	b530      	push	{r4, r5, lr}
    183a:	b087      	sub	sp, #28
    183c:	0004      	movs	r4, r0
    183e:	000d      	movs	r5, r1
	struct spi_msg msg;

	ASSERT(spi && p_xfer);
    1840:	2800      	cmp	r0, #0
    1842:	d015      	beq.n	1870 <spi_m_sync_transfer+0x38>
    1844:	2900      	cmp	r1, #0
    1846:	d011      	beq.n	186c <spi_m_sync_transfer+0x34>
    1848:	2001      	movs	r0, #1
    184a:	22b3      	movs	r2, #179	; 0xb3
    184c:	4909      	ldr	r1, [pc, #36]	; (1874 <spi_m_sync_transfer+0x3c>)
    184e:	f000 f909 	bl	1a64 <assert>

	msg.txbuf = p_xfer->txbuf;
    1852:	682b      	ldr	r3, [r5, #0]
    1854:	9303      	str	r3, [sp, #12]
	msg.rxbuf = p_xfer->rxbuf;
    1856:	686b      	ldr	r3, [r5, #4]
    1858:	9304      	str	r3, [sp, #16]
	msg.size  = p_xfer->size;
    185a:	68ab      	ldr	r3, [r5, #8]
    185c:	9301      	str	r3, [sp, #4]
    185e:	9305      	str	r3, [sp, #20]
	return _spi_m_sync_trans(&spi->dev, &msg);
    1860:	1d20      	adds	r0, r4, #4
    1862:	a903      	add	r1, sp, #12
    1864:	f000 fe50 	bl	2508 <_spi_m_sync_trans>
}
    1868:	b007      	add	sp, #28
    186a:	bd30      	pop	{r4, r5, pc}
	ASSERT(spi && p_xfer);
    186c:	2000      	movs	r0, #0
    186e:	e7ec      	b.n	184a <spi_m_sync_transfer+0x12>
    1870:	2000      	movs	r0, #0
    1872:	e7ea      	b.n	184a <spi_m_sync_transfer+0x12>
    1874:	0000aff4 	.word	0x0000aff4

00001878 <_spi_m_sync_io_write>:
{
    1878:	b570      	push	{r4, r5, r6, lr}
    187a:	b084      	sub	sp, #16
    187c:	0004      	movs	r4, r0
    187e:	000e      	movs	r6, r1
    1880:	0015      	movs	r5, r2
	ASSERT(io);
    1882:	1e43      	subs	r3, r0, #1
    1884:	4198      	sbcs	r0, r3
    1886:	b2c0      	uxtb	r0, r0
    1888:	22a3      	movs	r2, #163	; 0xa3
    188a:	4907      	ldr	r1, [pc, #28]	; (18a8 <_spi_m_sync_io_write+0x30>)
    188c:	f000 f8ea 	bl	1a64 <assert>
	struct spi_m_sync_descriptor *spi = CONTAINER_OF(io, struct spi_m_sync_descriptor, io);
    1890:	0020      	movs	r0, r4
    1892:	380c      	subs	r0, #12
	xfer.rxbuf = 0;
    1894:	2300      	movs	r3, #0
    1896:	9302      	str	r3, [sp, #8]
	xfer.txbuf = (uint8_t *)buf;
    1898:	9601      	str	r6, [sp, #4]
	xfer.size  = length;
    189a:	9503      	str	r5, [sp, #12]
	return spi_m_sync_transfer(spi, &xfer);
    189c:	a901      	add	r1, sp, #4
    189e:	f7ff ffcb 	bl	1838 <spi_m_sync_transfer>
}
    18a2:	b004      	add	sp, #16
    18a4:	bd70      	pop	{r4, r5, r6, pc}
    18a6:	46c0      	nop			; (mov r8, r8)
    18a8:	0000aff4 	.word	0x0000aff4

000018ac <_spi_m_sync_io_read>:
{
    18ac:	b570      	push	{r4, r5, r6, lr}
    18ae:	b084      	sub	sp, #16
    18b0:	0004      	movs	r4, r0
    18b2:	000e      	movs	r6, r1
    18b4:	0015      	movs	r5, r2
	ASSERT(io);
    18b6:	1e43      	subs	r3, r0, #1
    18b8:	4198      	sbcs	r0, r3
    18ba:	b2c0      	uxtb	r0, r0
    18bc:	2287      	movs	r2, #135	; 0x87
    18be:	4907      	ldr	r1, [pc, #28]	; (18dc <_spi_m_sync_io_read+0x30>)
    18c0:	f000 f8d0 	bl	1a64 <assert>
	struct spi_m_sync_descriptor *spi = CONTAINER_OF(io, struct spi_m_sync_descriptor, io);
    18c4:	0020      	movs	r0, r4
    18c6:	380c      	subs	r0, #12
	xfer.rxbuf = buf;
    18c8:	9602      	str	r6, [sp, #8]
	xfer.txbuf = 0;
    18ca:	2300      	movs	r3, #0
    18cc:	9301      	str	r3, [sp, #4]
	xfer.size  = length;
    18ce:	9503      	str	r5, [sp, #12]
	return spi_m_sync_transfer(spi, &xfer);
    18d0:	a901      	add	r1, sp, #4
    18d2:	f7ff ffb1 	bl	1838 <spi_m_sync_transfer>
}
    18d6:	b004      	add	sp, #16
    18d8:	bd70      	pop	{r4, r5, r6, pc}
    18da:	46c0      	nop			; (mov r8, r8)
    18dc:	0000aff4 	.word	0x0000aff4

000018e0 <spi_m_sync_get_io_descriptor>:

int32_t spi_m_sync_get_io_descriptor(struct spi_m_sync_descriptor *const spi, struct io_descriptor **io)
{
    18e0:	b570      	push	{r4, r5, r6, lr}
    18e2:	0004      	movs	r4, r0
    18e4:	000d      	movs	r5, r1
	ASSERT(spi && io);
    18e6:	2800      	cmp	r0, #0
    18e8:	d00c      	beq.n	1904 <spi_m_sync_get_io_descriptor+0x24>
    18ea:	2900      	cmp	r1, #0
    18ec:	d008      	beq.n	1900 <spi_m_sync_get_io_descriptor+0x20>
    18ee:	2001      	movs	r0, #1
    18f0:	22bd      	movs	r2, #189	; 0xbd
    18f2:	4905      	ldr	r1, [pc, #20]	; (1908 <spi_m_sync_get_io_descriptor+0x28>)
    18f4:	f000 f8b6 	bl	1a64 <assert>
	*io = &spi->io;
    18f8:	340c      	adds	r4, #12
    18fa:	602c      	str	r4, [r5, #0]
	return 0;
}
    18fc:	2000      	movs	r0, #0
    18fe:	bd70      	pop	{r4, r5, r6, pc}
	ASSERT(spi && io);
    1900:	2000      	movs	r0, #0
    1902:	e7f5      	b.n	18f0 <spi_m_sync_get_io_descriptor+0x10>
    1904:	2000      	movs	r0, #0
    1906:	e7f3      	b.n	18f0 <spi_m_sync_get_io_descriptor+0x10>
    1908:	0000aff4 	.word	0x0000aff4

0000190c <usart_sync_write>:
 * \param[in] length The number of bytes to write
 *
 * \return The number of bytes written.
 */
static int32_t usart_sync_write(struct io_descriptor *const io_descr, const uint8_t *const buf, const uint16_t length)
{
    190c:	b5f8      	push	{r3, r4, r5, r6, r7, lr}
    190e:	0005      	movs	r5, r0
    1910:	000e      	movs	r6, r1
    1912:	0017      	movs	r7, r2
	uint32_t                      offset = 0;
	struct usart_sync_descriptor *descr  = CONTAINER_OF(io_descr, struct usart_sync_descriptor, io);

	ASSERT(io_descr && buf && length);
    1914:	2800      	cmp	r0, #0
    1916:	d023      	beq.n	1960 <usart_sync_write+0x54>
    1918:	2900      	cmp	r1, #0
    191a:	d023      	beq.n	1964 <usart_sync_write+0x58>
    191c:	2a00      	cmp	r2, #0
    191e:	d123      	bne.n	1968 <usart_sync_write+0x5c>
    1920:	2000      	movs	r0, #0
    1922:	22f1      	movs	r2, #241	; 0xf1
    1924:	4911      	ldr	r1, [pc, #68]	; (196c <usart_sync_write+0x60>)
    1926:	f000 f89d 	bl	1a64 <assert>
	while (!_usart_sync_is_ready_to_send(&descr->device))
    192a:	002c      	movs	r4, r5
    192c:	3408      	adds	r4, #8
    192e:	0020      	movs	r0, r4
    1930:	f000 fb4f 	bl	1fd2 <_usart_sync_is_ready_to_send>
    1934:	2800      	cmp	r0, #0
    1936:	d0f8      	beq.n	192a <usart_sync_write+0x1e>
    1938:	2500      	movs	r5, #0
		;
	do {
		_usart_sync_write_byte(&descr->device, buf[offset]);
    193a:	5d71      	ldrb	r1, [r6, r5]
    193c:	0020      	movs	r0, r4
    193e:	f000 fb40 	bl	1fc2 <_usart_sync_write_byte>
		while (!_usart_sync_is_ready_to_send(&descr->device))
    1942:	0020      	movs	r0, r4
    1944:	f000 fb45 	bl	1fd2 <_usart_sync_is_ready_to_send>
    1948:	2800      	cmp	r0, #0
    194a:	d0fa      	beq.n	1942 <usart_sync_write+0x36>
			;
	} while (++offset < length);
    194c:	3501      	adds	r5, #1
    194e:	42bd      	cmp	r5, r7
    1950:	d3f3      	bcc.n	193a <usart_sync_write+0x2e>
	while (!_usart_sync_is_transmit_done(&descr->device))
    1952:	0020      	movs	r0, r4
    1954:	f000 fb42 	bl	1fdc <_usart_sync_is_transmit_done>
    1958:	2800      	cmp	r0, #0
    195a:	d0fa      	beq.n	1952 <usart_sync_write+0x46>
		;
	return (int32_t)offset;
}
    195c:	0028      	movs	r0, r5
    195e:	bdf8      	pop	{r3, r4, r5, r6, r7, pc}
	ASSERT(io_descr && buf && length);
    1960:	2000      	movs	r0, #0
    1962:	e7de      	b.n	1922 <usart_sync_write+0x16>
    1964:	2000      	movs	r0, #0
    1966:	e7dc      	b.n	1922 <usart_sync_write+0x16>
    1968:	2001      	movs	r0, #1
    196a:	e7da      	b.n	1922 <usart_sync_write+0x16>
    196c:	0000b010 	.word	0x0000b010

00001970 <usart_sync_read>:
 * \param[in] length The size of a buffer
 *
 * \return The number of bytes read.
 */
static int32_t usart_sync_read(struct io_descriptor *const io_descr, uint8_t *const buf, const uint16_t length)
{
    1970:	b5f8      	push	{r3, r4, r5, r6, r7, lr}
    1972:	46ce      	mov	lr, r9
    1974:	4647      	mov	r7, r8
    1976:	b580      	push	{r7, lr}
    1978:	1e05      	subs	r5, r0, #0
    197a:	4688      	mov	r8, r1
    197c:	4691      	mov	r9, r2
	uint32_t                      offset = 0;
	struct usart_sync_descriptor *descr  = CONTAINER_OF(io_descr, struct usart_sync_descriptor, io);

	ASSERT(io_descr && buf && length);
    197e:	d01f      	beq.n	19c0 <usart_sync_read+0x50>
    1980:	2900      	cmp	r1, #0
    1982:	d01f      	beq.n	19c4 <usart_sync_read+0x54>
    1984:	2a00      	cmp	r2, #0
    1986:	d11f      	bne.n	19c8 <usart_sync_read+0x58>
    1988:	2000      	movs	r0, #0
    198a:	2286      	movs	r2, #134	; 0x86
    198c:	0052      	lsls	r2, r2, #1
    198e:	490f      	ldr	r1, [pc, #60]	; (19cc <usart_sync_read+0x5c>)
    1990:	f000 f868 	bl	1a64 <assert>
	uint32_t                      offset = 0;
    1994:	2600      	movs	r6, #0
	do {
		while (!_usart_sync_is_byte_received(&descr->device))
    1996:	002c      	movs	r4, r5
    1998:	3408      	adds	r4, #8
    199a:	0020      	movs	r0, r4
    199c:	f000 fb24 	bl	1fe8 <_usart_sync_is_byte_received>
    19a0:	2800      	cmp	r0, #0
    19a2:	d0f8      	beq.n	1996 <usart_sync_read+0x26>
			;
		buf[offset] = _usart_sync_read_byte(&descr->device);
    19a4:	4643      	mov	r3, r8
    19a6:	199f      	adds	r7, r3, r6
    19a8:	0020      	movs	r0, r4
    19aa:	f000 fb0e 	bl	1fca <_usart_sync_read_byte>
    19ae:	7038      	strb	r0, [r7, #0]
	} while (++offset < length);
    19b0:	3601      	adds	r6, #1
    19b2:	454e      	cmp	r6, r9
    19b4:	d3ef      	bcc.n	1996 <usart_sync_read+0x26>

	return (int32_t)offset;
}
    19b6:	0030      	movs	r0, r6
    19b8:	bc0c      	pop	{r2, r3}
    19ba:	4690      	mov	r8, r2
    19bc:	4699      	mov	r9, r3
    19be:	bdf8      	pop	{r3, r4, r5, r6, r7, pc}
	ASSERT(io_descr && buf && length);
    19c0:	2000      	movs	r0, #0
    19c2:	e7e2      	b.n	198a <usart_sync_read+0x1a>
    19c4:	2000      	movs	r0, #0
    19c6:	e7e0      	b.n	198a <usart_sync_read+0x1a>
    19c8:	2001      	movs	r0, #1
    19ca:	e7de      	b.n	198a <usart_sync_read+0x1a>
    19cc:	0000b010 	.word	0x0000b010

000019d0 <usart_sync_init>:
{
    19d0:	b570      	push	{r4, r5, r6, lr}
    19d2:	0004      	movs	r4, r0
    19d4:	000d      	movs	r5, r1
	ASSERT(descr && hw);
    19d6:	2800      	cmp	r0, #0
    19d8:	d014      	beq.n	1a04 <usart_sync_init+0x34>
    19da:	2900      	cmp	r1, #0
    19dc:	d010      	beq.n	1a00 <usart_sync_init+0x30>
    19de:	2001      	movs	r0, #1
    19e0:	2234      	movs	r2, #52	; 0x34
    19e2:	4909      	ldr	r1, [pc, #36]	; (1a08 <usart_sync_init+0x38>)
    19e4:	f000 f83e 	bl	1a64 <assert>
	init_status = _usart_sync_init(&descr->device, hw);
    19e8:	0020      	movs	r0, r4
    19ea:	3008      	adds	r0, #8
    19ec:	0029      	movs	r1, r5
    19ee:	f000 facd 	bl	1f8c <_usart_sync_init>
	if (init_status) {
    19f2:	2800      	cmp	r0, #0
    19f4:	d103      	bne.n	19fe <usart_sync_init+0x2e>
	descr->io.read  = usart_sync_read;
    19f6:	4b05      	ldr	r3, [pc, #20]	; (1a0c <usart_sync_init+0x3c>)
    19f8:	6063      	str	r3, [r4, #4]
	descr->io.write = usart_sync_write;
    19fa:	4b05      	ldr	r3, [pc, #20]	; (1a10 <usart_sync_init+0x40>)
    19fc:	6023      	str	r3, [r4, #0]
}
    19fe:	bd70      	pop	{r4, r5, r6, pc}
	ASSERT(descr && hw);
    1a00:	2000      	movs	r0, #0
    1a02:	e7ed      	b.n	19e0 <usart_sync_init+0x10>
    1a04:	2000      	movs	r0, #0
    1a06:	e7eb      	b.n	19e0 <usart_sync_init+0x10>
    1a08:	0000b010 	.word	0x0000b010
    1a0c:	00001971 	.word	0x00001971
    1a10:	0000190d 	.word	0x0000190d

00001a14 <usart_sync_enable>:
{
    1a14:	b510      	push	{r4, lr}
    1a16:	0004      	movs	r4, r0
	ASSERT(descr);
    1a18:	1e43      	subs	r3, r0, #1
    1a1a:	4198      	sbcs	r0, r3
    1a1c:	b2c0      	uxtb	r0, r0
    1a1e:	2253      	movs	r2, #83	; 0x53
    1a20:	4904      	ldr	r1, [pc, #16]	; (1a34 <usart_sync_enable+0x20>)
    1a22:	f000 f81f 	bl	1a64 <assert>
	_usart_sync_enable(&descr->device);
    1a26:	0020      	movs	r0, r4
    1a28:	3008      	adds	r0, #8
    1a2a:	f000 fac1 	bl	1fb0 <_usart_sync_enable>
}
    1a2e:	2000      	movs	r0, #0
    1a30:	bd10      	pop	{r4, pc}
    1a32:	46c0      	nop			; (mov r8, r8)
    1a34:	0000b010 	.word	0x0000b010

00001a38 <usart_sync_get_io_descriptor>:
{
    1a38:	b570      	push	{r4, r5, r6, lr}
    1a3a:	0004      	movs	r4, r0
    1a3c:	000d      	movs	r5, r1
	ASSERT(descr && io);
    1a3e:	2800      	cmp	r0, #0
    1a40:	d00b      	beq.n	1a5a <usart_sync_get_io_descriptor+0x22>
    1a42:	2900      	cmp	r1, #0
    1a44:	d007      	beq.n	1a56 <usart_sync_get_io_descriptor+0x1e>
    1a46:	2001      	movs	r0, #1
    1a48:	2269      	movs	r2, #105	; 0x69
    1a4a:	4905      	ldr	r1, [pc, #20]	; (1a60 <usart_sync_get_io_descriptor+0x28>)
    1a4c:	f000 f80a 	bl	1a64 <assert>
	*io = &descr->io;
    1a50:	602c      	str	r4, [r5, #0]
}
    1a52:	2000      	movs	r0, #0
    1a54:	bd70      	pop	{r4, r5, r6, pc}
	ASSERT(descr && io);
    1a56:	2000      	movs	r0, #0
    1a58:	e7f6      	b.n	1a48 <usart_sync_get_io_descriptor+0x10>
    1a5a:	2000      	movs	r0, #0
    1a5c:	e7f4      	b.n	1a48 <usart_sync_get_io_descriptor+0x10>
    1a5e:	46c0      	nop			; (mov r8, r8)
    1a60:	0000b010 	.word	0x0000b010

00001a64 <assert>:
/**
 * \brief Assert function
 */
void assert(const bool condition, const char *const file, const int line)
{
	if (!(condition)) {
    1a64:	2800      	cmp	r0, #0
    1a66:	d100      	bne.n	1a6a <assert+0x6>
		__asm("BKPT #0");
    1a68:	be00      	bkpt	0x0000
	}
	(void)file;
	(void)line;
}
    1a6a:	4770      	bx	lr

00001a6c <_sbrk>:

/**
 * \brief Replacement of C library of _sbrk
 */
extern caddr_t _sbrk(int incr)
{
    1a6c:	0003      	movs	r3, r0
	static unsigned char *heap = NULL;
	unsigned char *       prev_heap;

	if (heap == NULL) {
    1a6e:	4a06      	ldr	r2, [pc, #24]	; (1a88 <_sbrk+0x1c>)
    1a70:	6812      	ldr	r2, [r2, #0]
    1a72:	2a00      	cmp	r2, #0
    1a74:	d004      	beq.n	1a80 <_sbrk+0x14>
		heap = (unsigned char *)&_end;
	}
	prev_heap = heap;
    1a76:	4a04      	ldr	r2, [pc, #16]	; (1a88 <_sbrk+0x1c>)
    1a78:	6810      	ldr	r0, [r2, #0]

	heap += incr;
    1a7a:	18c3      	adds	r3, r0, r3
    1a7c:	6013      	str	r3, [r2, #0]

	return (caddr_t)prev_heap;
}
    1a7e:	4770      	bx	lr
		heap = (unsigned char *)&_end;
    1a80:	4902      	ldr	r1, [pc, #8]	; (1a8c <_sbrk+0x20>)
    1a82:	4a01      	ldr	r2, [pc, #4]	; (1a88 <_sbrk+0x1c>)
    1a84:	6011      	str	r1, [r2, #0]
    1a86:	e7f6      	b.n	1a76 <_sbrk+0xa>
    1a88:	20000e00 	.word	0x20000e00
    1a8c:	200030b8 	.word	0x200030b8

00001a90 <_get_cycles_for_us>:

/**
 * \brief Retrieve the amount of cycles to delay for the given amount of us
 */
uint32_t _get_cycles_for_us(const uint16_t us)
{
    1a90:	b510      	push	{r4, lr}
		return (us * (freq / 100000) - 1) / 10 + 1;
    1a92:	0103      	lsls	r3, r0, #4
    1a94:	1a1b      	subs	r3, r3, r0
    1a96:	0158      	lsls	r0, r3, #5
    1a98:	3801      	subs	r0, #1
    1a9a:	210a      	movs	r1, #10
    1a9c:	f001 ffa6 	bl	39ec <__udivsi3>
    1aa0:	3001      	adds	r0, #1
	return _get_cycles_for_us_internal(us, CONF_CPU_FREQUENCY, CPU_FREQ_POWER);
}
    1aa2:	bd10      	pop	{r4, pc}

00001aa4 <_get_cycles_for_ms>:
 */
static inline uint32_t _get_cycles_for_ms_internal(const uint16_t ms, const uint32_t freq, const uint8_t power)
{
	switch (power) {
	case 8:
		return (ms * (freq / 100000)) * 100;
    1aa4:	0103      	lsls	r3, r0, #4
    1aa6:	1a1b      	subs	r3, r3, r0
    1aa8:	015a      	lsls	r2, r3, #5
    1aaa:	2064      	movs	r0, #100	; 0x64
    1aac:	4350      	muls	r0, r2
 * \brief Retrieve the amount of cycles to delay for the given amount of ms
 */
uint32_t _get_cycles_for_ms(const uint16_t ms)
{
	return _get_cycles_for_ms_internal(ms, CONF_CPU_FREQUENCY, CPU_FREQ_POWER);
}
    1aae:	4770      	bx	lr

00001ab0 <_init_chip>:

/**
 * \brief Initialize the hardware abstraction layer
 */
void _init_chip(void)
{
    1ab0:	b510      	push	{r4, lr}
}

static inline void hri_nvmctrl_set_CTRLB_RWS_bf(const void *const hw, hri_nvmctrl_ctrlb_reg_t mask)
{
	NVMCTRL_CRITICAL_SECTION_ENTER();
	((Nvmctrl *)hw)->CTRLB.reg |= NVMCTRL_CTRLB_RWS(mask);
    1ab2:	4a09      	ldr	r2, [pc, #36]	; (1ad8 <_init_chip+0x28>)
    1ab4:	6853      	ldr	r3, [r2, #4]
    1ab6:	2106      	movs	r1, #6
    1ab8:	430b      	orrs	r3, r1
    1aba:	6053      	str	r3, [r2, #4]
	hri_nvmctrl_set_CTRLB_RWS_bf(NVMCTRL, CONF_NVM_WAIT_STATE);

	_pm_init();
    1abc:	f000 f902 	bl	1cc4 <_pm_init>
	_sysctrl_init_sources();
    1ac0:	f000 fd94 	bl	25ec <_sysctrl_init_sources>
#if _GCLK_INIT_1ST
	_gclk_init_generators_by_fref(_GCLK_INIT_1ST);
    1ac4:	2008      	movs	r0, #8
    1ac6:	f000 f8dd 	bl	1c84 <_gclk_init_generators_by_fref>
#endif
	_sysctrl_init_referenced_generators();
    1aca:	f000 fdc3 	bl	2654 <_sysctrl_init_referenced_generators>
	_gclk_init_generators_by_fref(_GCLK_INIT_LAST);
    1ace:	20f7      	movs	r0, #247	; 0xf7
    1ad0:	f000 f8d8 	bl	1c84 <_gclk_init_generators_by_fref>
}
    1ad4:	bd10      	pop	{r4, pc}
    1ad6:	46c0      	nop			; (mov r8, r8)
    1ad8:	41004000 	.word	0x41004000

00001adc <_ext_irq_init>:
typedef uint8_t  hri_eic_nmiflag_reg_t;
typedef uint8_t  hri_eic_status_reg_t;

static inline void hri_eic_wait_for_sync(const void *const hw)
{
	while (((const Eic *)hw)->STATUS.bit.SYNCBUSY)
    1adc:	4b23      	ldr	r3, [pc, #140]	; (1b6c <_ext_irq_init+0x90>)
    1ade:	785b      	ldrb	r3, [r3, #1]
    1ae0:	09db      	lsrs	r3, r3, #7
    1ae2:	d1fb      	bne.n	1adc <_ext_irq_init>
    1ae4:	4b21      	ldr	r3, [pc, #132]	; (1b6c <_ext_irq_init+0x90>)
    1ae6:	785b      	ldrb	r3, [r3, #1]
    1ae8:	09db      	lsrs	r3, r3, #7
    1aea:	d1fb      	bne.n	1ae4 <_ext_irq_init+0x8>

static inline hri_eic_ctrl_reg_t hri_eic_get_CTRL_reg(const void *const hw, hri_eic_ctrl_reg_t mask)
{
	uint8_t tmp;
	hri_eic_wait_for_sync(hw);
	tmp = ((Eic *)hw)->CTRL.reg;
    1aec:	4b1f      	ldr	r3, [pc, #124]	; (1b6c <_ext_irq_init+0x90>)
    1aee:	781b      	ldrb	r3, [r3, #0]
 * \brief Initialize external interrupt module
 */
int32_t _ext_irq_init(void (*cb)(const uint32_t pin))
{
	hri_eic_wait_for_sync(EIC);
	if (hri_eic_get_CTRL_reg(EIC, EIC_CTRL_ENABLE)) {
    1af0:	079b      	lsls	r3, r3, #30
    1af2:	d50a      	bpl.n	1b0a <_ext_irq_init+0x2e>
}

static inline void hri_eic_write_CTRL_reg(const void *const hw, hri_eic_ctrl_reg_t data)
{
	EIC_CRITICAL_SECTION_ENTER();
	((Eic *)hw)->CTRL.reg = data;
    1af4:	2200      	movs	r2, #0
    1af6:	4b1d      	ldr	r3, [pc, #116]	; (1b6c <_ext_irq_init+0x90>)
    1af8:	701a      	strb	r2, [r3, #0]
	while (((const Eic *)hw)->STATUS.bit.SYNCBUSY)
    1afa:	4b1c      	ldr	r3, [pc, #112]	; (1b6c <_ext_irq_init+0x90>)
    1afc:	785b      	ldrb	r3, [r3, #1]
    1afe:	09db      	lsrs	r3, r3, #7
    1b00:	d1fb      	bne.n	1afa <_ext_irq_init+0x1e>
    1b02:	4b1a      	ldr	r3, [pc, #104]	; (1b6c <_ext_irq_init+0x90>)
    1b04:	785b      	ldrb	r3, [r3, #1]
    1b06:	09db      	lsrs	r3, r3, #7
    1b08:	d1fb      	bne.n	1b02 <_ext_irq_init+0x26>
	((Eic *)hw)->CTRL.reg = data;
    1b0a:	2201      	movs	r2, #1
    1b0c:	4b17      	ldr	r3, [pc, #92]	; (1b6c <_ext_irq_init+0x90>)
    1b0e:	701a      	strb	r2, [r3, #0]
	while (((const Eic *)hw)->STATUS.bit.SYNCBUSY)
    1b10:	4b16      	ldr	r3, [pc, #88]	; (1b6c <_ext_irq_init+0x90>)
    1b12:	785b      	ldrb	r3, [r3, #1]
    1b14:	09db      	lsrs	r3, r3, #7
    1b16:	d1fb      	bne.n	1b10 <_ext_irq_init+0x34>
    1b18:	4b14      	ldr	r3, [pc, #80]	; (1b6c <_ext_irq_init+0x90>)
    1b1a:	785b      	ldrb	r3, [r3, #1]
    1b1c:	09db      	lsrs	r3, r3, #7
    1b1e:	d1fb      	bne.n	1b18 <_ext_irq_init+0x3c>
}

static inline void hri_eic_write_NMICTRL_reg(const void *const hw, hri_eic_nmictrl_reg_t data)
{
	EIC_CRITICAL_SECTION_ENTER();
	((Eic *)hw)->NMICTRL.reg = data;
    1b20:	4b12      	ldr	r3, [pc, #72]	; (1b6c <_ext_irq_init+0x90>)
    1b22:	2200      	movs	r2, #0
    1b24:	709a      	strb	r2, [r3, #2]
}

static inline void hri_eic_write_EVCTRL_reg(const void *const hw, hri_eic_evctrl_reg_t data)
{
	EIC_CRITICAL_SECTION_ENTER();
	((Eic *)hw)->EVCTRL.reg = data;
    1b26:	22a0      	movs	r2, #160	; 0xa0
    1b28:	00d2      	lsls	r2, r2, #3
    1b2a:	605a      	str	r2, [r3, #4]
}

static inline void hri_eic_write_WAKEUP_reg(const void *const hw, hri_eic_wakeup_reg_t data)
{
	EIC_CRITICAL_SECTION_ENTER();
	((Eic *)hw)->WAKEUP.reg = data;
    1b2c:	2280      	movs	r2, #128	; 0x80
    1b2e:	01d2      	lsls	r2, r2, #7
    1b30:	615a      	str	r2, [r3, #20]
}

static inline void hri_eic_write_CONFIG_reg(const void *const hw, uint8_t index, hri_eic_config_reg_t data)
{
	EIC_CRITICAL_SECTION_ENTER();
	((Eic *)hw)->CONFIG[index].reg = data;
    1b32:	2290      	movs	r2, #144	; 0x90
    1b34:	619a      	str	r2, [r3, #24]
    1b36:	4a0e      	ldr	r2, [pc, #56]	; (1b70 <_ext_irq_init+0x94>)
    1b38:	61da      	str	r2, [r3, #28]
	((Eic *)hw)->CTRL.reg |= EIC_CTRL_ENABLE;
    1b3a:	781a      	ldrb	r2, [r3, #0]
    1b3c:	2102      	movs	r1, #2
    1b3e:	430a      	orrs	r2, r1
    1b40:	b2d2      	uxtb	r2, r2
    1b42:	701a      	strb	r2, [r3, #0]
	while (((const Eic *)hw)->STATUS.bit.SYNCBUSY)
    1b44:	4b09      	ldr	r3, [pc, #36]	; (1b6c <_ext_irq_init+0x90>)
    1b46:	785b      	ldrb	r3, [r3, #1]
    1b48:	09db      	lsrs	r3, r3, #7
    1b4a:	d1fb      	bne.n	1b44 <_ext_irq_init+0x68>
 */
__STATIC_INLINE void __NVIC_DisableIRQ(IRQn_Type IRQn)
{
  if ((int32_t)(IRQn) >= 0)
  {
    NVIC->ICER[0U] = (uint32_t)(1UL << (((uint32_t)IRQn) & 0x1FUL));
    1b4c:	4b09      	ldr	r3, [pc, #36]	; (1b74 <_ext_irq_init+0x98>)
    1b4e:	2210      	movs	r2, #16
    1b50:	2180      	movs	r1, #128	; 0x80
    1b52:	505a      	str	r2, [r3, r1]
  \details Acts as a special kind of Data Memory Barrier.
           It completes when all explicit memory accesses before this instruction complete.
 */
__STATIC_FORCEINLINE void __DSB(void)
{
  __ASM volatile ("dsb 0xF":::"memory");
    1b54:	f3bf 8f4f 	dsb	sy
  __ASM volatile ("isb 0xF":::"memory");
    1b58:	f3bf 8f6f 	isb	sy
 */
__STATIC_INLINE void __NVIC_ClearPendingIRQ(IRQn_Type IRQn)
{
  if ((int32_t)(IRQn) >= 0)
  {
    NVIC->ICPR[0U] = (uint32_t)(1UL << (((uint32_t)IRQn) & 0x1FUL));
    1b5c:	3101      	adds	r1, #1
    1b5e:	31ff      	adds	r1, #255	; 0xff
    1b60:	505a      	str	r2, [r3, r1]
    NVIC->ISER[0U] = (uint32_t)(1UL << (((uint32_t)IRQn) & 0x1FUL));
    1b62:	601a      	str	r2, [r3, #0]

	NVIC_DisableIRQ(EIC_IRQn);
	NVIC_ClearPendingIRQ(EIC_IRQn);
	NVIC_EnableIRQ(EIC_IRQn);

	callback = cb;
    1b64:	4b04      	ldr	r3, [pc, #16]	; (1b78 <_ext_irq_init+0x9c>)
    1b66:	6018      	str	r0, [r3, #0]

	return ERR_NONE;
}
    1b68:	2000      	movs	r0, #0
    1b6a:	4770      	bx	lr
    1b6c:	40001800 	.word	0x40001800
    1b70:	0100020a 	.word	0x0100020a
    1b74:	e000e100 	.word	0xe000e100
    1b78:	20000e04 	.word	0x20000e04

00001b7c <_ext_irq_enable>:

/**
 * \brief Enable / disable external irq
 */
int32_t _ext_irq_enable(const uint32_t pin, const bool enable)
{
    1b7c:	b530      	push	{r4, r5, lr}
	uint8_t extint = INVALID_EXTINT_NUMBER;
	uint8_t i      = 0;
    1b7e:	2300      	movs	r3, #0

	for (; i < ARRAY_SIZE(_map); i++) {
    1b80:	2b03      	cmp	r3, #3
    1b82:	d80b      	bhi.n	1b9c <_ext_irq_enable+0x20>
		if (_map[i].pin == pin) {
    1b84:	00dc      	lsls	r4, r3, #3
    1b86:	4a10      	ldr	r2, [pc, #64]	; (1bc8 <_ext_irq_enable+0x4c>)
    1b88:	1912      	adds	r2, r2, r4
    1b8a:	6852      	ldr	r2, [r2, #4]
    1b8c:	4282      	cmp	r2, r0
    1b8e:	d002      	beq.n	1b96 <_ext_irq_enable+0x1a>
	for (; i < ARRAY_SIZE(_map); i++) {
    1b90:	3301      	adds	r3, #1
    1b92:	b2db      	uxtb	r3, r3
    1b94:	e7f4      	b.n	1b80 <_ext_irq_enable+0x4>
			extint = _map[i].extint;
    1b96:	4b0c      	ldr	r3, [pc, #48]	; (1bc8 <_ext_irq_enable+0x4c>)
    1b98:	5ce2      	ldrb	r2, [r4, r3]
			break;
    1b9a:	e000      	b.n	1b9e <_ext_irq_enable+0x22>
	uint8_t extint = INVALID_EXTINT_NUMBER;
    1b9c:	22ff      	movs	r2, #255	; 0xff
		}
	}
	if (INVALID_EXTINT_NUMBER == extint) {
    1b9e:	2aff      	cmp	r2, #255	; 0xff
    1ba0:	d00e      	beq.n	1bc0 <_ext_irq_enable+0x44>
		return ERR_INVALID_ARG;
	}

	if (enable) {
    1ba2:	2900      	cmp	r1, #0
    1ba4:	d106      	bne.n	1bb4 <_ext_irq_enable+0x38>
		hri_eic_set_INTEN_reg(EIC, 1ul << extint);
	} else {
		hri_eic_clear_INTEN_reg(EIC, 1ul << extint);
    1ba6:	2301      	movs	r3, #1
    1ba8:	4093      	lsls	r3, r2
	((Eic *)hw)->INTENCLR.reg = mask;
    1baa:	4a08      	ldr	r2, [pc, #32]	; (1bcc <_ext_irq_enable+0x50>)
    1bac:	6093      	str	r3, [r2, #8]
	((Eic *)hw)->INTFLAG.reg = mask;
    1bae:	6113      	str	r3, [r2, #16]
		hri_eic_clear_INTFLAG_reg(EIC, 1ul << extint);
	}

	return ERR_NONE;
    1bb0:	2000      	movs	r0, #0
}
    1bb2:	bd30      	pop	{r4, r5, pc}
		hri_eic_set_INTEN_reg(EIC, 1ul << extint);
    1bb4:	2301      	movs	r3, #1
    1bb6:	4093      	lsls	r3, r2
	((Eic *)hw)->INTENSET.reg = mask;
    1bb8:	4a04      	ldr	r2, [pc, #16]	; (1bcc <_ext_irq_enable+0x50>)
    1bba:	60d3      	str	r3, [r2, #12]
	return ERR_NONE;
    1bbc:	2000      	movs	r0, #0
    1bbe:	e7f8      	b.n	1bb2 <_ext_irq_enable+0x36>
		return ERR_INVALID_ARG;
    1bc0:	200d      	movs	r0, #13
    1bc2:	4240      	negs	r0, r0
    1bc4:	e7f5      	b.n	1bb2 <_ext_irq_enable+0x36>
    1bc6:	46c0      	nop			; (mov r8, r8)
    1bc8:	0000b044 	.word	0x0000b044
    1bcc:	40001800 	.word	0x40001800

00001bd0 <EIC_Handler>:

/**
 * \brief EIC interrupt handler
 */
void EIC_Handler(void)
{
    1bd0:	b5f0      	push	{r4, r5, r6, r7, lr}
    1bd2:	b083      	sub	sp, #12
	return ((Eic *)hw)->INTFLAG.reg;
    1bd4:	4b27      	ldr	r3, [pc, #156]	; (1c74 <EIC_Handler+0xa4>)
    1bd6:	691a      	ldr	r2, [r3, #16]
	return ((Eic *)hw)->INTENSET.reg;
    1bd8:	68d9      	ldr	r1, [r3, #12]
	volatile uint32_t flags = hri_eic_read_INTFLAG_reg(EIC) & hri_eic_read_INTEN_reg(EIC);
    1bda:	400a      	ands	r2, r1
    1bdc:	9201      	str	r2, [sp, #4]
	int8_t            pos;
	uint32_t          pin = INVALID_PIN_NUMBER;

	hri_eic_clear_INTFLAG_reg(EIC, flags);
    1bde:	9a01      	ldr	r2, [sp, #4]
	((Eic *)hw)->INTFLAG.reg = mask;
    1be0:	611a      	str	r2, [r3, #16]

	ASSERT(callback);
    1be2:	4b25      	ldr	r3, [pc, #148]	; (1c78 <EIC_Handler+0xa8>)
    1be4:	6818      	ldr	r0, [r3, #0]
    1be6:	1e43      	subs	r3, r0, #1
    1be8:	4198      	sbcs	r0, r3
    1bea:	b2c0      	uxtb	r0, r0
    1bec:	22d2      	movs	r2, #210	; 0xd2
    1bee:	4923      	ldr	r1, [pc, #140]	; (1c7c <EIC_Handler+0xac>)
    1bf0:	f7ff ff38 	bl	1a64 <assert>
	uint32_t          pin = INVALID_PIN_NUMBER;
    1bf4:	2501      	movs	r5, #1
    1bf6:	426d      	negs	r5, r5

	while (flags) {
    1bf8:	e031      	b.n	1c5e <EIC_Handler+0x8e>
			uint8_t lower = 0, middle, upper = EXT_IRQ_AMOUNT;

			while (upper >= lower) {
				middle = (upper + lower) >> 1;
				if (_map[middle].extint == pos) {
					pin = _map[middle].pin;
    1bfa:	00db      	lsls	r3, r3, #3
    1bfc:	4a20      	ldr	r2, [pc, #128]	; (1c80 <EIC_Handler+0xb0>)
    1bfe:	18d3      	adds	r3, r2, r3
    1c00:	685d      	ldr	r5, [r3, #4]
				} else {
					upper = middle - 1;
				}
			}

			if (INVALID_PIN_NUMBER != pin) {
    1c02:	1c6b      	adds	r3, r5, #1
    1c04:	d003      	beq.n	1c0e <EIC_Handler+0x3e>
				callback(pin);
    1c06:	4b1c      	ldr	r3, [pc, #112]	; (1c78 <EIC_Handler+0xa8>)
    1c08:	681b      	ldr	r3, [r3, #0]
    1c0a:	0028      	movs	r0, r5
    1c0c:	4798      	blx	r3
			}
			flags &= ~(1ul << pos);
    1c0e:	2201      	movs	r2, #1
    1c10:	40a2      	lsls	r2, r4
    1c12:	9b01      	ldr	r3, [sp, #4]
    1c14:	4393      	bics	r3, r2
    1c16:	9301      	str	r3, [sp, #4]
			pos = ffs(flags) - 1;
    1c18:	9801      	ldr	r0, [sp, #4]
    1c1a:	f002 f8b7 	bl	3d8c <__ffssi2>
    1c1e:	3801      	subs	r0, #1
    1c20:	b244      	sxtb	r4, r0
		while (-1 != pos) {
    1c22:	1c63      	adds	r3, r4, #1
    1c24:	d014      	beq.n	1c50 <EIC_Handler+0x80>
    1c26:	2603      	movs	r6, #3
    1c28:	2000      	movs	r0, #0
    1c2a:	e001      	b.n	1c30 <EIC_Handler+0x60>
					upper = middle - 1;
    1c2c:	3901      	subs	r1, #1
    1c2e:	b2ce      	uxtb	r6, r1
			while (upper >= lower) {
    1c30:	42b0      	cmp	r0, r6
    1c32:	d8e6      	bhi.n	1c02 <EIC_Handler+0x32>
				middle = (upper + lower) >> 1;
    1c34:	1833      	adds	r3, r6, r0
    1c36:	105b      	asrs	r3, r3, #1
    1c38:	b2d9      	uxtb	r1, r3
    1c3a:	22ff      	movs	r2, #255	; 0xff
    1c3c:	4013      	ands	r3, r2
				if (_map[middle].extint == pos) {
    1c3e:	00df      	lsls	r7, r3, #3
    1c40:	4a0f      	ldr	r2, [pc, #60]	; (1c80 <EIC_Handler+0xb0>)
    1c42:	5cba      	ldrb	r2, [r7, r2]
    1c44:	42a2      	cmp	r2, r4
    1c46:	d0d8      	beq.n	1bfa <EIC_Handler+0x2a>
				if (_map[middle].extint < pos) {
    1c48:	daf0      	bge.n	1c2c <EIC_Handler+0x5c>
					lower = middle + 1;
    1c4a:	3101      	adds	r1, #1
    1c4c:	b2c8      	uxtb	r0, r1
    1c4e:	e7ef      	b.n	1c30 <EIC_Handler+0x60>
	return ((Eic *)hw)->INTFLAG.reg;
    1c50:	4b08      	ldr	r3, [pc, #32]	; (1c74 <EIC_Handler+0xa4>)
    1c52:	691a      	ldr	r2, [r3, #16]
	return ((Eic *)hw)->INTENSET.reg;
    1c54:	68d9      	ldr	r1, [r3, #12]
		}
		flags = hri_eic_read_INTFLAG_reg(EIC) & hri_eic_read_INTEN_reg(EIC);
    1c56:	400a      	ands	r2, r1
    1c58:	9201      	str	r2, [sp, #4]
		hri_eic_clear_INTFLAG_reg(EIC, flags);
    1c5a:	9a01      	ldr	r2, [sp, #4]
	((Eic *)hw)->INTFLAG.reg = mask;
    1c5c:	611a      	str	r2, [r3, #16]
	while (flags) {
    1c5e:	9b01      	ldr	r3, [sp, #4]
    1c60:	2b00      	cmp	r3, #0
    1c62:	d005      	beq.n	1c70 <EIC_Handler+0xa0>
		pos = ffs(flags) - 1;
    1c64:	9801      	ldr	r0, [sp, #4]
    1c66:	f002 f891 	bl	3d8c <__ffssi2>
    1c6a:	3801      	subs	r0, #1
    1c6c:	b244      	sxtb	r4, r0
		while (-1 != pos) {
    1c6e:	e7d8      	b.n	1c22 <EIC_Handler+0x52>
	}
}
    1c70:	b003      	add	sp, #12
    1c72:	bdf0      	pop	{r4, r5, r6, r7, pc}
    1c74:	40001800 	.word	0x40001800
    1c78:	20000e04 	.word	0x20000e04
    1c7c:	0000b02c 	.word	0x0000b02c
    1c80:	0000b044 	.word	0x0000b044

00001c84 <_gclk_init_generators_by_fref>:

void _gclk_init_generators_by_fref(uint32_t bm)
{

#if CONF_GCLK_GENERATOR_0_CONFIG == 1
	if (bm & (1ul << 0)) {
    1c84:	07c3      	lsls	r3, r0, #31
    1c86:	d509      	bpl.n	1c9c <_gclk_init_generators_by_fref+0x18>
}

static inline void hri_gclk_write_GENDIV_reg(const void *const hw, hri_gclk_gendiv_reg_t data)
{
	GCLK_CRITICAL_SECTION_ENTER();
	((Gclk *)hw)->GENDIV.reg = data;
    1c88:	4b0a      	ldr	r3, [pc, #40]	; (1cb4 <_gclk_init_generators_by_fref+0x30>)
    1c8a:	2280      	movs	r2, #128	; 0x80
    1c8c:	0052      	lsls	r2, r2, #1
    1c8e:	609a      	str	r2, [r3, #8]
	((Gclk *)hw)->GENCTRL.reg = data;
    1c90:	4a09      	ldr	r2, [pc, #36]	; (1cb8 <_gclk_init_generators_by_fref+0x34>)
    1c92:	605a      	str	r2, [r3, #4]
	while (((const Gclk *)hw)->STATUS.bit.SYNCBUSY)
    1c94:	4b07      	ldr	r3, [pc, #28]	; (1cb4 <_gclk_init_generators_by_fref+0x30>)
    1c96:	785b      	ldrb	r3, [r3, #1]
    1c98:	09db      	lsrs	r3, r3, #7
    1c9a:	d1fb      	bne.n	1c94 <_gclk_init_generators_by_fref+0x10>
		        | (CONF_GCLK_GENERATOR_2_CONFIG << GCLK_GENCTRL_GENEN_Pos) | CONF_GCLK_GEN_2_SRC | GCLK_GENCTRL_ID(2));
	}
#endif

#if CONF_GCLK_GENERATOR_3_CONFIG == 1
	if (bm & (1ul << 3)) {
    1c9c:	0703      	lsls	r3, r0, #28
    1c9e:	d508      	bpl.n	1cb2 <_gclk_init_generators_by_fref+0x2e>
	((Gclk *)hw)->GENDIV.reg = data;
    1ca0:	4b04      	ldr	r3, [pc, #16]	; (1cb4 <_gclk_init_generators_by_fref+0x30>)
    1ca2:	4a06      	ldr	r2, [pc, #24]	; (1cbc <_gclk_init_generators_by_fref+0x38>)
    1ca4:	609a      	str	r2, [r3, #8]
	((Gclk *)hw)->GENCTRL.reg = data;
    1ca6:	4a06      	ldr	r2, [pc, #24]	; (1cc0 <_gclk_init_generators_by_fref+0x3c>)
    1ca8:	605a      	str	r2, [r3, #4]
	while (((const Gclk *)hw)->STATUS.bit.SYNCBUSY)
    1caa:	4b02      	ldr	r3, [pc, #8]	; (1cb4 <_gclk_init_generators_by_fref+0x30>)
    1cac:	785b      	ldrb	r3, [r3, #1]
    1cae:	09db      	lsrs	r3, r3, #7
    1cb0:	d1fb      	bne.n	1caa <_gclk_init_generators_by_fref+0x26>
		        | (CONF_GCLK_GEN_7_DIVSEL << GCLK_GENCTRL_DIVSEL_Pos) | (CONF_GCLK_GEN_7_OE << GCLK_GENCTRL_OE_Pos)
		        | (CONF_GCLK_GEN_7_OOV << GCLK_GENCTRL_OOV_Pos) | (CONF_GCLK_GEN_7_IDC << GCLK_GENCTRL_IDC_Pos)
		        | (CONF_GCLK_GENERATOR_7_CONFIG << GCLK_GENCTRL_GENEN_Pos) | CONF_GCLK_GEN_7_SRC | GCLK_GENCTRL_ID(7));
	}
#endif
}
    1cb2:	4770      	bx	lr
    1cb4:	40000c00 	.word	0x40000c00
    1cb8:	00010700 	.word	0x00010700
    1cbc:	00000403 	.word	0x00000403
    1cc0:	00010403 	.word	0x00010403

00001cc4 <_pm_init>:
}

static inline void hri_pm_set_CPUSEL_CPUDIV_bf(const void *const hw, hri_pm_cpusel_reg_t mask)
{
	PM_CRITICAL_SECTION_ENTER();
	((Pm *)hw)->CPUSEL.reg |= PM_CPUSEL_CPUDIV(mask);
    1cc4:	4b06      	ldr	r3, [pc, #24]	; (1ce0 <_pm_init+0x1c>)
    1cc6:	7a1a      	ldrb	r2, [r3, #8]
    1cc8:	b2d2      	uxtb	r2, r2
    1cca:	721a      	strb	r2, [r3, #8]
}

static inline void hri_pm_set_APBASEL_APBADIV_bf(const void *const hw, hri_pm_apbasel_reg_t mask)
{
	PM_CRITICAL_SECTION_ENTER();
	((Pm *)hw)->APBASEL.reg |= PM_APBASEL_APBADIV(mask);
    1ccc:	7a5a      	ldrb	r2, [r3, #9]
    1cce:	b2d2      	uxtb	r2, r2
    1cd0:	725a      	strb	r2, [r3, #9]
}

static inline void hri_pm_set_APBBSEL_APBBDIV_bf(const void *const hw, hri_pm_apbbsel_reg_t mask)
{
	PM_CRITICAL_SECTION_ENTER();
	((Pm *)hw)->APBBSEL.reg |= PM_APBBSEL_APBBDIV(mask);
    1cd2:	7a9a      	ldrb	r2, [r3, #10]
    1cd4:	b2d2      	uxtb	r2, r2
    1cd6:	729a      	strb	r2, [r3, #10]
}

static inline void hri_pm_set_APBCSEL_APBCDIV_bf(const void *const hw, hri_pm_apbcsel_reg_t mask)
{
	PM_CRITICAL_SECTION_ENTER();
	((Pm *)hw)->APBCSEL.reg |= PM_APBCSEL_APBCDIV(mask);
    1cd8:	7ada      	ldrb	r2, [r3, #11]
    1cda:	b2d2      	uxtb	r2, r2
    1cdc:	72da      	strb	r2, [r3, #11]
{
	hri_pm_set_CPUSEL_CPUDIV_bf(PM, CONF_CPU_DIV);
	hri_pm_set_APBASEL_APBADIV_bf(PM, CONF_APBA_DIV);
	hri_pm_set_APBBSEL_APBBDIV_bf(PM, CONF_APBB_DIV);
	hri_pm_set_APBCSEL_APBCDIV_bf(PM, CONF_APBC_DIV);
}
    1cde:	4770      	bx	lr
    1ce0:	40000400 	.word	0x40000400

00001ce4 <_sercom_get_hardware_index>:
{
#ifdef _UNIT_TEST_
	return ((uint32_t)hw - (uint32_t)SERCOM0) / sizeof(Sercom);
#endif

	return ((uint32_t)hw - (uint32_t)SERCOM0) >> 10;
    1ce4:	4b02      	ldr	r3, [pc, #8]	; (1cf0 <_sercom_get_hardware_index+0xc>)
    1ce6:	469c      	mov	ip, r3
    1ce8:	4460      	add	r0, ip
    1cea:	0a80      	lsrs	r0, r0, #10
    1cec:	b2c0      	uxtb	r0, r0
}
    1cee:	4770      	bx	lr
    1cf0:	bdfff800 	.word	0xbdfff800

00001cf4 <_spi_sync_enable>:
		;
}

static inline bool hri_sercomspi_is_syncing(const void *const hw)
{
	return ((const Sercom *)hw)->SPI.STATUS.bit.SYNCBUSY;
    1cf4:	8a03      	ldrh	r3, [r0, #16]
    1cf6:	0bdb      	lsrs	r3, r3, #15
 *
 * \return Enabling status
 */
static int32_t _spi_sync_enable(void *const hw)
{
	if (hri_sercomspi_is_syncing(hw)) {
    1cf8:	d108      	bne.n	1d0c <_spi_sync_enable+0x18>
}

static inline void hri_sercomspi_set_CTRLA_ENABLE_bit(const void *const hw)
{
	SERCOM_CRITICAL_SECTION_ENTER();
	((Sercom *)hw)->SPI.CTRLA.reg |= SERCOM_SPI_CTRLA_ENABLE;
    1cfa:	6803      	ldr	r3, [r0, #0]
    1cfc:	2202      	movs	r2, #2
    1cfe:	4313      	orrs	r3, r2
    1d00:	6003      	str	r3, [r0, #0]
	while (((const Sercom *)hw)->SPI.STATUS.bit.SYNCBUSY)
    1d02:	8a03      	ldrh	r3, [r0, #16]
    1d04:	0bdb      	lsrs	r3, r3, #15
    1d06:	d1fc      	bne.n	1d02 <_spi_sync_enable+0xe>
		return ERR_BUSY;
	}

	hri_sercomspi_set_CTRLA_ENABLE_bit(hw);

	return ERR_NONE;
    1d08:	2000      	movs	r0, #0
}
    1d0a:	4770      	bx	lr
		return ERR_BUSY;
    1d0c:	2004      	movs	r0, #4
    1d0e:	4240      	negs	r0, r0
    1d10:	e7fb      	b.n	1d0a <_spi_sync_enable+0x16>
	...

00001d14 <_get_sercom_index>:
{
    1d14:	b510      	push	{r4, lr}
	uint8_t sercom_offset = _sercom_get_hardware_index(hw);
    1d16:	f7ff ffe5 	bl	1ce4 <_sercom_get_hardware_index>
    1d1a:	0003      	movs	r3, r0
	for (i = 0; i < ARRAY_SIZE(_usarts); i++) {
    1d1c:	2000      	movs	r0, #0
    1d1e:	2800      	cmp	r0, #0
    1d20:	d006      	beq.n	1d30 <_get_sercom_index+0x1c>
	ASSERT(false);
    1d22:	4a07      	ldr	r2, [pc, #28]	; (1d40 <_get_sercom_index+0x2c>)
    1d24:	4907      	ldr	r1, [pc, #28]	; (1d44 <_get_sercom_index+0x30>)
    1d26:	2000      	movs	r0, #0
    1d28:	f7ff fe9c 	bl	1a64 <assert>
	return 0;
    1d2c:	2000      	movs	r0, #0
}
    1d2e:	bd10      	pop	{r4, pc}
		if (_usarts[i].number == sercom_offset) {
    1d30:	0102      	lsls	r2, r0, #4
    1d32:	4905      	ldr	r1, [pc, #20]	; (1d48 <_get_sercom_index+0x34>)
    1d34:	5c52      	ldrb	r2, [r2, r1]
    1d36:	4293      	cmp	r3, r2
    1d38:	d0f9      	beq.n	1d2e <_get_sercom_index+0x1a>
	for (i = 0; i < ARRAY_SIZE(_usarts); i++) {
    1d3a:	3001      	adds	r0, #1
    1d3c:	b2c0      	uxtb	r0, r0
    1d3e:	e7ee      	b.n	1d1e <_get_sercom_index+0xa>
    1d40:	0000022a 	.word	0x0000022a
    1d44:	0000b064 	.word	0x0000b064
    1d48:	0000b0b0 	.word	0x0000b0b0

00001d4c <_usart_init>:
{
    1d4c:	b510      	push	{r4, lr}
    1d4e:	0004      	movs	r4, r0
	uint8_t i = _get_sercom_index(hw);
    1d50:	f7ff ffe0 	bl	1d14 <_get_sercom_index>
	while (((const Sercom *)hw)->USART.STATUS.bit.SYNCBUSY)
    1d54:	8a23      	ldrh	r3, [r4, #16]
    1d56:	0bdb      	lsrs	r3, r3, #15
    1d58:	d1fc      	bne.n	1d54 <_usart_init+0x8>
    1d5a:	8a23      	ldrh	r3, [r4, #16]
    1d5c:	0bdb      	lsrs	r3, r3, #15
    1d5e:	d1fc      	bne.n	1d5a <_usart_init+0xe>
static inline hri_sercomusart_ctrla_reg_t hri_sercomusart_get_CTRLA_reg(const void *const           hw,
                                                                        hri_sercomusart_ctrla_reg_t mask)
{
	uint32_t tmp;
	hri_sercomusart_wait_for_sync(hw);
	tmp = ((Sercom *)hw)->USART.CTRLA.reg;
    1d60:	6823      	ldr	r3, [r4, #0]
	if (hri_sercomusart_get_CTRLA_reg(hw, SERCOM_USART_CTRLA_ENABLE)) {
    1d62:	079b      	lsls	r3, r3, #30
    1d64:	d507      	bpl.n	1d76 <_usart_init+0x2a>
}

static inline void hri_sercomusart_write_CTRLA_reg(const void *const hw, hri_sercomusart_ctrla_reg_t data)
{
	SERCOM_CRITICAL_SECTION_ENTER();
	((Sercom *)hw)->USART.CTRLA.reg = data;
    1d66:	2300      	movs	r3, #0
    1d68:	6023      	str	r3, [r4, #0]
	while (((const Sercom *)hw)->USART.STATUS.bit.SYNCBUSY)
    1d6a:	8a23      	ldrh	r3, [r4, #16]
    1d6c:	0bdb      	lsrs	r3, r3, #15
    1d6e:	d1fc      	bne.n	1d6a <_usart_init+0x1e>
    1d70:	8a23      	ldrh	r3, [r4, #16]
    1d72:	0bdb      	lsrs	r3, r3, #15
    1d74:	d1fc      	bne.n	1d70 <_usart_init+0x24>
	((Sercom *)hw)->USART.CTRLA.reg = data;
    1d76:	2301      	movs	r3, #1
    1d78:	6023      	str	r3, [r4, #0]
	while (((const Sercom *)hw)->USART.STATUS.bit.SYNCBUSY)
    1d7a:	8a23      	ldrh	r3, [r4, #16]
    1d7c:	0bdb      	lsrs	r3, r3, #15
    1d7e:	d1fc      	bne.n	1d7a <_usart_init+0x2e>
    1d80:	8a23      	ldrh	r3, [r4, #16]
    1d82:	0bdb      	lsrs	r3, r3, #15
    1d84:	d1fc      	bne.n	1d80 <_usart_init+0x34>
	hri_sercomusart_write_CTRLA_reg(hw, _usarts[i].ctrl_a);
    1d86:	0102      	lsls	r2, r0, #4
    1d88:	4b0b      	ldr	r3, [pc, #44]	; (1db8 <_usart_init+0x6c>)
    1d8a:	189b      	adds	r3, r3, r2
    1d8c:	685b      	ldr	r3, [r3, #4]
	((Sercom *)hw)->USART.CTRLA.reg = data;
    1d8e:	6023      	str	r3, [r4, #0]
	while (((const Sercom *)hw)->USART.STATUS.bit.SYNCBUSY)
    1d90:	8a23      	ldrh	r3, [r4, #16]
    1d92:	0bdb      	lsrs	r3, r3, #15
    1d94:	d1fc      	bne.n	1d90 <_usart_init+0x44>
	hri_sercomusart_write_CTRLB_reg(hw, _usarts[i].ctrl_b);
    1d96:	0102      	lsls	r2, r0, #4
    1d98:	4b07      	ldr	r3, [pc, #28]	; (1db8 <_usart_init+0x6c>)
    1d9a:	189b      	adds	r3, r3, r2
    1d9c:	689b      	ldr	r3, [r3, #8]
}

static inline void hri_sercomusart_write_CTRLB_reg(const void *const hw, hri_sercomusart_ctrlb_reg_t data)
{
	SERCOM_CRITICAL_SECTION_ENTER();
	((Sercom *)hw)->USART.CTRLB.reg = data;
    1d9e:	6063      	str	r3, [r4, #4]
	while (((const Sercom *)hw)->USART.STATUS.bit.SYNCBUSY)
    1da0:	8a23      	ldrh	r3, [r4, #16]
    1da2:	0bdb      	lsrs	r3, r3, #15
    1da4:	d1fc      	bne.n	1da0 <_usart_init+0x54>
	hri_sercomusart_write_BAUD_reg(hw, _usarts[i].baud);
    1da6:	0100      	lsls	r0, r0, #4
    1da8:	4b03      	ldr	r3, [pc, #12]	; (1db8 <_usart_init+0x6c>)
    1daa:	1818      	adds	r0, r3, r0
    1dac:	8983      	ldrh	r3, [r0, #12]
}

static inline void hri_sercomusart_write_BAUD_reg(const void *const hw, hri_sercomusart_baud_reg_t data)
{
	SERCOM_CRITICAL_SECTION_ENTER();
	((Sercom *)hw)->USART.BAUD.reg = data;
    1dae:	8163      	strh	r3, [r4, #10]
	hri_sercomusart_write_DBGCTRL_reg(hw, _usarts[i].debug_ctrl);
    1db0:	7b83      	ldrb	r3, [r0, #14]
	((Sercom *)hw)->USART.DBGCTRL.reg = data;
    1db2:	7223      	strb	r3, [r4, #8]
}
    1db4:	2000      	movs	r0, #0
    1db6:	bd10      	pop	{r4, pc}
    1db8:	0000b0b0 	.word	0x0000b0b0

00001dbc <_get_i2cm_index>:
{
    1dbc:	b510      	push	{r4, lr}
	uint8_t sercom_offset = _sercom_get_hardware_index(hw);
    1dbe:	f7ff ff91 	bl	1ce4 <_sercom_get_hardware_index>
    1dc2:	0001      	movs	r1, r0
	for (i = 0; i < ARRAY_SIZE(_i2cms); i++) {
    1dc4:	2000      	movs	r0, #0
    1dc6:	2801      	cmp	r0, #1
    1dc8:	d809      	bhi.n	1dde <_get_i2cm_index+0x22>
		if (_i2cms[i].number == sercom_offset) {
    1dca:	0043      	lsls	r3, r0, #1
    1dcc:	181b      	adds	r3, r3, r0
    1dce:	00da      	lsls	r2, r3, #3
    1dd0:	4b06      	ldr	r3, [pc, #24]	; (1dec <_get_i2cm_index+0x30>)
    1dd2:	5cd3      	ldrb	r3, [r2, r3]
    1dd4:	4299      	cmp	r1, r3
    1dd6:	d008      	beq.n	1dea <_get_i2cm_index+0x2e>
	for (i = 0; i < ARRAY_SIZE(_i2cms); i++) {
    1dd8:	3001      	adds	r0, #1
    1dda:	b2c0      	uxtb	r0, r0
    1ddc:	e7f3      	b.n	1dc6 <_get_i2cm_index+0xa>
	ASSERT(false);
    1dde:	4a04      	ldr	r2, [pc, #16]	; (1df0 <_get_i2cm_index+0x34>)
    1de0:	4904      	ldr	r1, [pc, #16]	; (1df4 <_get_i2cm_index+0x38>)
    1de2:	2000      	movs	r0, #0
    1de4:	f7ff fe3e 	bl	1a64 <assert>
	return 0;
    1de8:	2000      	movs	r0, #0
}
    1dea:	bd10      	pop	{r4, pc}
    1dec:	0000b080 	.word	0x0000b080
    1df0:	00000366 	.word	0x00000366
    1df4:	0000b064 	.word	0x0000b064

00001df8 <_sercom_i2c_sync_send_address>:
{
    1df8:	b570      	push	{r4, r5, r6, lr}
    1dfa:	0005      	movs	r5, r0
	void *             hw  = i2c_dev->hw;
    1dfc:	6904      	ldr	r4, [r0, #16]
	ASSERT(i2c_dev);
    1dfe:	1e43      	subs	r3, r0, #1
    1e00:	4198      	sbcs	r0, r3
    1e02:	b2c0      	uxtb	r0, r0
    1e04:	4a5c      	ldr	r2, [pc, #368]	; (1f78 <_sercom_i2c_sync_send_address+0x180>)
    1e06:	495d      	ldr	r1, [pc, #372]	; (1f7c <_sercom_i2c_sync_send_address+0x184>)
    1e08:	f7ff fe2c 	bl	1a64 <assert>
	((Sercom *)hw)->I2CM.CTRLB.reg &= ~SERCOM_I2CM_CTRLB_ACKACT;
    1e0c:	6863      	ldr	r3, [r4, #4]
    1e0e:	4a5c      	ldr	r2, [pc, #368]	; (1f80 <_sercom_i2c_sync_send_address+0x188>)
    1e10:	4013      	ands	r3, r2
    1e12:	6063      	str	r3, [r4, #4]
	while (((const Sercom *)hw)->I2CM.STATUS.bit.SYNCBUSY)
    1e14:	8a23      	ldrh	r3, [r4, #16]
    1e16:	0bdb      	lsrs	r3, r3, #15
    1e18:	d1fc      	bne.n	1e14 <_sercom_i2c_sync_send_address+0x1c>
	hri_sercomi2cm_write_ADDR_reg(hw, ((msg->addr & SEVEN_ADDR_MASK) << 1) | (msg->flags & I2C_M_RD ? I2C_M_RD : 0x0));
    1e1a:	882a      	ldrh	r2, [r5, #0]
    1e1c:	0052      	lsls	r2, r2, #1
    1e1e:	886b      	ldrh	r3, [r5, #2]
    1e20:	2101      	movs	r1, #1
    1e22:	400b      	ands	r3, r1
    1e24:	4313      	orrs	r3, r2
    1e26:	b2db      	uxtb	r3, r3
}

static inline void hri_sercomi2cm_write_ADDR_reg(const void *const hw, hri_sercomi2cm_addr_reg_t data)
{
	SERCOM_CRITICAL_SECTION_ENTER();
	((Sercom *)hw)->I2CM.ADDR.reg = data;
    1e28:	7523      	strb	r3, [r4, #20]
	while (((const Sercom *)hw)->I2CM.STATUS.bit.SYNCBUSY)
    1e2a:	8a23      	ldrh	r3, [r4, #16]
    1e2c:	0bdb      	lsrs	r3, r3, #15
    1e2e:	d1fc      	bne.n	1e2a <_sercom_i2c_sync_send_address+0x32>
	void *   hw      = i2c_dev->hw;
    1e30:	692e      	ldr	r6, [r5, #16]
	uint32_t timeout = 65535;
    1e32:	4a54      	ldr	r2, [pc, #336]	; (1f84 <_sercom_i2c_sync_send_address+0x18c>)
	return ((Sercom *)hw)->I2CM.INTFLAG.reg;
    1e34:	7bb3      	ldrb	r3, [r6, #14]
    1e36:	b2db      	uxtb	r3, r3
		*flags = hri_sercomi2cm_read_INTFLAG_reg(hw);
    1e38:	0018      	movs	r0, r3
		if (timeout-- == 0) {
    1e3a:	1e51      	subs	r1, r2, #1
    1e3c:	2a00      	cmp	r2, #0
    1e3e:	d002      	beq.n	1e46 <_sercom_i2c_sync_send_address+0x4e>
    1e40:	000a      	movs	r2, r1
	} while (!(*flags & MB_FLAG) && !(*flags & SB_FLAG));
    1e42:	079b      	lsls	r3, r3, #30
    1e44:	d0f6      	beq.n	1e34 <_sercom_i2c_sync_send_address+0x3c>
	while (((const Sercom *)hw)->I2CM.STATUS.bit.SYNCBUSY)
    1e46:	8a23      	ldrh	r3, [r4, #16]
    1e48:	0bdb      	lsrs	r3, r3, #15
    1e4a:	d1fc      	bne.n	1e46 <_sercom_i2c_sync_send_address+0x4e>
}

static inline hri_sercomi2cm_status_reg_t hri_sercomi2cm_read_STATUS_reg(const void *const hw)
{
	hri_sercomi2cm_wait_for_sync(hw);
	return ((Sercom *)hw)->I2CM.STATUS.reg;
    1e4c:	8a23      	ldrh	r3, [r4, #16]
    1e4e:	b29b      	uxth	r3, r3
	if (flags & MB_FLAG) {
    1e50:	07c2      	lsls	r2, r0, #31
    1e52:	d550      	bpl.n	1ef6 <_sercom_i2c_sync_send_address+0xfe>
		if (status & SERCOM_I2CM_STATUS_ARBLOST) {
    1e54:	079a      	lsls	r2, r3, #30
    1e56:	d510      	bpl.n	1e7a <_sercom_i2c_sync_send_address+0x82>
	((Sercom *)hw)->I2CM.INTFLAG.reg = SERCOM_I2CM_INTFLAG_MB;
    1e58:	2201      	movs	r2, #1
    1e5a:	73a2      	strb	r2, [r4, #14]
			msg->flags |= I2C_M_FAIL;
    1e5c:	886a      	ldrh	r2, [r5, #2]
    1e5e:	2180      	movs	r1, #128	; 0x80
    1e60:	0149      	lsls	r1, r1, #5
    1e62:	430a      	orrs	r2, r1
    1e64:	806a      	strh	r2, [r5, #2]
			msg->flags &= ~I2C_M_BUSY;
    1e66:	886a      	ldrh	r2, [r5, #2]
    1e68:	4947      	ldr	r1, [pc, #284]	; (1f88 <_sercom_i2c_sync_send_address+0x190>)
    1e6a:	400a      	ands	r2, r1
    1e6c:	806a      	strh	r2, [r5, #2]
			if (status & SERCOM_I2CM_STATUS_BUSERR) {
    1e6e:	07db      	lsls	r3, r3, #31
    1e70:	d400      	bmi.n	1e74 <_sercom_i2c_sync_send_address+0x7c>
    1e72:	e07c      	b.n	1f6e <_sercom_i2c_sync_send_address+0x176>
				return I2C_ERR_BUS;
    1e74:	2005      	movs	r0, #5
    1e76:	4240      	negs	r0, r0
    1e78:	e063      	b.n	1f42 <_sercom_i2c_sync_send_address+0x14a>
			if (status & SERCOM_I2CM_STATUS_RXNACK) {
    1e7a:	075b      	lsls	r3, r3, #29
    1e7c:	d40b      	bmi.n	1e96 <_sercom_i2c_sync_send_address+0x9e>
			if (msg->len == 0) {
    1e7e:	6868      	ldr	r0, [r5, #4]
    1e80:	2800      	cmp	r0, #0
    1e82:	d12d      	bne.n	1ee0 <_sercom_i2c_sync_send_address+0xe8>
				if (msg->flags & I2C_M_STOP) {
    1e84:	886b      	ldrh	r3, [r5, #2]
    1e86:	b21b      	sxth	r3, r3
    1e88:	2b00      	cmp	r3, #0
    1e8a:	db20      	blt.n	1ece <_sercom_i2c_sync_send_address+0xd6>
				msg->flags &= ~I2C_M_BUSY;
    1e8c:	886b      	ldrh	r3, [r5, #2]
    1e8e:	4a3e      	ldr	r2, [pc, #248]	; (1f88 <_sercom_i2c_sync_send_address+0x190>)
    1e90:	4013      	ands	r3, r2
    1e92:	806b      	strh	r3, [r5, #2]
    1e94:	e055      	b.n	1f42 <_sercom_i2c_sync_send_address+0x14a>
				if (msg->len > 0) {
    1e96:	686b      	ldr	r3, [r5, #4]
    1e98:	2b00      	cmp	r3, #0
    1e9a:	dd04      	ble.n	1ea6 <_sercom_i2c_sync_send_address+0xae>
					msg->flags |= I2C_M_FAIL;
    1e9c:	886b      	ldrh	r3, [r5, #2]
    1e9e:	2280      	movs	r2, #128	; 0x80
    1ea0:	0152      	lsls	r2, r2, #5
    1ea2:	4313      	orrs	r3, r2
    1ea4:	806b      	strh	r3, [r5, #2]
				if (msg->flags & I2C_M_STOP) {
    1ea6:	886b      	ldrh	r3, [r5, #2]
    1ea8:	b21b      	sxth	r3, r3
    1eaa:	2b00      	cmp	r3, #0
    1eac:	db06      	blt.n	1ebc <_sercom_i2c_sync_send_address+0xc4>
				msg->flags &= ~I2C_M_BUSY;
    1eae:	886b      	ldrh	r3, [r5, #2]
    1eb0:	4a35      	ldr	r2, [pc, #212]	; (1f88 <_sercom_i2c_sync_send_address+0x190>)
    1eb2:	4013      	ands	r3, r2
    1eb4:	806b      	strh	r3, [r5, #2]
				return I2C_NACK;
    1eb6:	2002      	movs	r0, #2
    1eb8:	4240      	negs	r0, r0
    1eba:	e042      	b.n	1f42 <_sercom_i2c_sync_send_address+0x14a>
	((Sercom *)hw)->I2CM.CTRLB.reg |= SERCOM_I2CM_CTRLB_CMD(mask);
    1ebc:	6862      	ldr	r2, [r4, #4]
    1ebe:	23c0      	movs	r3, #192	; 0xc0
    1ec0:	029b      	lsls	r3, r3, #10
    1ec2:	4313      	orrs	r3, r2
    1ec4:	6063      	str	r3, [r4, #4]
	while (((const Sercom *)hw)->I2CM.STATUS.bit.SYNCBUSY)
    1ec6:	8a23      	ldrh	r3, [r4, #16]
    1ec8:	0bdb      	lsrs	r3, r3, #15
    1eca:	d1fc      	bne.n	1ec6 <_sercom_i2c_sync_send_address+0xce>
    1ecc:	e7ef      	b.n	1eae <_sercom_i2c_sync_send_address+0xb6>
	((Sercom *)hw)->I2CM.CTRLB.reg |= SERCOM_I2CM_CTRLB_CMD(mask);
    1ece:	6862      	ldr	r2, [r4, #4]
    1ed0:	23c0      	movs	r3, #192	; 0xc0
    1ed2:	029b      	lsls	r3, r3, #10
    1ed4:	4313      	orrs	r3, r2
    1ed6:	6063      	str	r3, [r4, #4]
	while (((const Sercom *)hw)->I2CM.STATUS.bit.SYNCBUSY)
    1ed8:	8a23      	ldrh	r3, [r4, #16]
    1eda:	0bdb      	lsrs	r3, r3, #15
    1edc:	d1fc      	bne.n	1ed8 <_sercom_i2c_sync_send_address+0xe0>
    1ede:	e7d5      	b.n	1e8c <_sercom_i2c_sync_send_address+0x94>
				hri_sercomi2cm_write_DATA_reg(hw, *msg->buffer);
    1ee0:	68ab      	ldr	r3, [r5, #8]
    1ee2:	781b      	ldrb	r3, [r3, #0]
	((Sercom *)hw)->I2CM.DATA.reg = data;
    1ee4:	7623      	strb	r3, [r4, #24]
				msg->buffer++;
    1ee6:	68ab      	ldr	r3, [r5, #8]
    1ee8:	3301      	adds	r3, #1
    1eea:	60ab      	str	r3, [r5, #8]
				msg->len--;
    1eec:	686b      	ldr	r3, [r5, #4]
    1eee:	3b01      	subs	r3, #1
    1ef0:	606b      	str	r3, [r5, #4]
			return I2C_OK;
    1ef2:	2000      	movs	r0, #0
    1ef4:	e025      	b.n	1f42 <_sercom_i2c_sync_send_address+0x14a>
	} else if (flags & SB_FLAG) {
    1ef6:	0782      	lsls	r2, r0, #30
    1ef8:	d53c      	bpl.n	1f74 <_sercom_i2c_sync_send_address+0x17c>
		if ((msg->len) && !(status & SERCOM_I2CM_STATUS_RXNACK)) {
    1efa:	686a      	ldr	r2, [r5, #4]
    1efc:	2a00      	cmp	r2, #0
    1efe:	d031      	beq.n	1f64 <_sercom_i2c_sync_send_address+0x16c>
    1f00:	075b      	lsls	r3, r3, #29
    1f02:	d42f      	bmi.n	1f64 <_sercom_i2c_sync_send_address+0x16c>
			msg->len--;
    1f04:	3a01      	subs	r2, #1
    1f06:	606a      	str	r2, [r5, #4]
			if (msg->len == 0) {
    1f08:	2a00      	cmp	r2, #0
    1f0a:	d107      	bne.n	1f1c <_sercom_i2c_sync_send_address+0x124>
	((Sercom *)hw)->I2CM.CTRLB.reg |= SERCOM_I2CM_CTRLB_ACKACT;
    1f0c:	6862      	ldr	r2, [r4, #4]
    1f0e:	2380      	movs	r3, #128	; 0x80
    1f10:	02db      	lsls	r3, r3, #11
    1f12:	4313      	orrs	r3, r2
    1f14:	6063      	str	r3, [r4, #4]
	while (((const Sercom *)hw)->I2CM.STATUS.bit.SYNCBUSY)
    1f16:	8a23      	ldrh	r3, [r4, #16]
    1f18:	0bdb      	lsrs	r3, r3, #15
    1f1a:	d1fc      	bne.n	1f16 <_sercom_i2c_sync_send_address+0x11e>
			if (msg->len == 0) {
    1f1c:	686b      	ldr	r3, [r5, #4]
    1f1e:	2b00      	cmp	r3, #0
    1f20:	d107      	bne.n	1f32 <_sercom_i2c_sync_send_address+0x13a>
				if (msg->flags & I2C_M_STOP) {
    1f22:	886b      	ldrh	r3, [r5, #2]
    1f24:	b21b      	sxth	r3, r3
    1f26:	2b00      	cmp	r3, #0
    1f28:	db0c      	blt.n	1f44 <_sercom_i2c_sync_send_address+0x14c>
				msg->flags &= ~I2C_M_BUSY;
    1f2a:	886b      	ldrh	r3, [r5, #2]
    1f2c:	4a16      	ldr	r2, [pc, #88]	; (1f88 <_sercom_i2c_sync_send_address+0x190>)
    1f2e:	4013      	ands	r3, r2
    1f30:	806b      	strh	r3, [r5, #2]
			*msg->buffer++ = hri_sercomi2cm_read_DATA_reg(hw);
    1f32:	68ab      	ldr	r3, [r5, #8]
    1f34:	1c5a      	adds	r2, r3, #1
    1f36:	60aa      	str	r2, [r5, #8]
	return ((Sercom *)hw)->I2CM.DATA.reg;
    1f38:	7e22      	ldrb	r2, [r4, #24]
    1f3a:	701a      	strb	r2, [r3, #0]
	((Sercom *)hw)->I2CM.INTFLAG.reg = SERCOM_I2CM_INTFLAG_SB;
    1f3c:	2302      	movs	r3, #2
    1f3e:	73a3      	strb	r3, [r4, #14]
	return I2C_OK;
    1f40:	2000      	movs	r0, #0
}
    1f42:	bd70      	pop	{r4, r5, r6, pc}
	((Sercom *)hw)->I2CM.CTRLB.reg &= ~SERCOM_I2CM_CTRLB_SMEN;
    1f44:	6863      	ldr	r3, [r4, #4]
    1f46:	4a10      	ldr	r2, [pc, #64]	; (1f88 <_sercom_i2c_sync_send_address+0x190>)
    1f48:	4013      	ands	r3, r2
    1f4a:	6063      	str	r3, [r4, #4]
	while (((const Sercom *)hw)->I2CM.STATUS.bit.SYNCBUSY)
    1f4c:	8a23      	ldrh	r3, [r4, #16]
    1f4e:	0bdb      	lsrs	r3, r3, #15
    1f50:	d1fc      	bne.n	1f4c <_sercom_i2c_sync_send_address+0x154>
	((Sercom *)hw)->I2CM.CTRLB.reg |= SERCOM_I2CM_CTRLB_CMD(mask);
    1f52:	6862      	ldr	r2, [r4, #4]
    1f54:	23c0      	movs	r3, #192	; 0xc0
    1f56:	029b      	lsls	r3, r3, #10
    1f58:	4313      	orrs	r3, r2
    1f5a:	6063      	str	r3, [r4, #4]
	while (((const Sercom *)hw)->I2CM.STATUS.bit.SYNCBUSY)
    1f5c:	8a23      	ldrh	r3, [r4, #16]
    1f5e:	0bdb      	lsrs	r3, r3, #15
    1f60:	d1fc      	bne.n	1f5c <_sercom_i2c_sync_send_address+0x164>
    1f62:	e7e2      	b.n	1f2a <_sercom_i2c_sync_send_address+0x132>
	((Sercom *)hw)->I2CM.INTFLAG.reg = SERCOM_I2CM_INTFLAG_SB;
    1f64:	2302      	movs	r3, #2
    1f66:	73a3      	strb	r3, [r4, #14]
			return I2C_NACK;
    1f68:	2002      	movs	r0, #2
    1f6a:	4240      	negs	r0, r0
    1f6c:	e7e9      	b.n	1f42 <_sercom_i2c_sync_send_address+0x14a>
			return I2C_ERR_BAD_ADDRESS;
    1f6e:	2004      	movs	r0, #4
    1f70:	4240      	negs	r0, r0
    1f72:	e7e6      	b.n	1f42 <_sercom_i2c_sync_send_address+0x14a>
	return I2C_OK;
    1f74:	2000      	movs	r0, #0
	return _sercom_i2c_sync_analyse_flags(hw, flags, msg);
    1f76:	e7e4      	b.n	1f42 <_sercom_i2c_sync_send_address+0x14a>
    1f78:	00000581 	.word	0x00000581
    1f7c:	0000b064 	.word	0x0000b064
    1f80:	fffbffff 	.word	0xfffbffff
    1f84:	0000ffff 	.word	0x0000ffff
    1f88:	fffffeff 	.word	0xfffffeff

00001f8c <_usart_sync_init>:
{
    1f8c:	b570      	push	{r4, r5, r6, lr}
    1f8e:	0005      	movs	r5, r0
    1f90:	000c      	movs	r4, r1
	ASSERT(device);
    1f92:	1e43      	subs	r3, r0, #1
    1f94:	4198      	sbcs	r0, r3
    1f96:	b2c0      	uxtb	r0, r0
    1f98:	22a1      	movs	r2, #161	; 0xa1
    1f9a:	4904      	ldr	r1, [pc, #16]	; (1fac <_usart_sync_init+0x20>)
    1f9c:	f7ff fd62 	bl	1a64 <assert>
	device->hw = hw;
    1fa0:	602c      	str	r4, [r5, #0]
	return _usart_init(hw);
    1fa2:	0020      	movs	r0, r4
    1fa4:	f7ff fed2 	bl	1d4c <_usart_init>
}
    1fa8:	bd70      	pop	{r4, r5, r6, pc}
    1faa:	46c0      	nop			; (mov r8, r8)
    1fac:	0000b064 	.word	0x0000b064

00001fb0 <_usart_sync_enable>:
	hri_sercomusart_set_CTRLA_ENABLE_bit(device->hw);
    1fb0:	6802      	ldr	r2, [r0, #0]
	((Sercom *)hw)->USART.CTRLA.reg |= SERCOM_USART_CTRLA_ENABLE;
    1fb2:	6813      	ldr	r3, [r2, #0]
    1fb4:	2102      	movs	r1, #2
    1fb6:	430b      	orrs	r3, r1
    1fb8:	6013      	str	r3, [r2, #0]
	while (((const Sercom *)hw)->USART.STATUS.bit.SYNCBUSY)
    1fba:	8a13      	ldrh	r3, [r2, #16]
    1fbc:	0bdb      	lsrs	r3, r3, #15
    1fbe:	d1fc      	bne.n	1fba <_usart_sync_enable+0xa>
}
    1fc0:	4770      	bx	lr

00001fc2 <_usart_sync_write_byte>:
	hri_sercomusart_write_DATA_reg(device->hw, data);
    1fc2:	6803      	ldr	r3, [r0, #0]
    1fc4:	b289      	uxth	r1, r1
	((Sercom *)hw)->USART.DATA.reg = data;
    1fc6:	8319      	strh	r1, [r3, #24]
}
    1fc8:	4770      	bx	lr

00001fca <_usart_sync_read_byte>:
	return hri_sercomusart_read_DATA_reg(device->hw);
    1fca:	6803      	ldr	r3, [r0, #0]
	return ((Sercom *)hw)->USART.DATA.reg;
    1fcc:	8b18      	ldrh	r0, [r3, #24]
    1fce:	b2c0      	uxtb	r0, r0
}
    1fd0:	4770      	bx	lr

00001fd2 <_usart_sync_is_ready_to_send>:
	return hri_sercomusart_get_interrupt_DRE_bit(device->hw);
    1fd2:	6803      	ldr	r3, [r0, #0]
	return (((Sercom *)hw)->USART.INTFLAG.reg & SERCOM_USART_INTFLAG_DRE) >> SERCOM_USART_INTFLAG_DRE_Pos;
    1fd4:	7b98      	ldrb	r0, [r3, #14]
    1fd6:	2301      	movs	r3, #1
    1fd8:	4018      	ands	r0, r3
}
    1fda:	4770      	bx	lr

00001fdc <_usart_sync_is_transmit_done>:
	return hri_sercomusart_get_interrupt_TXC_bit(device->hw);
    1fdc:	6803      	ldr	r3, [r0, #0]
	return (((Sercom *)hw)->USART.INTFLAG.reg & SERCOM_USART_INTFLAG_TXC) >> SERCOM_USART_INTFLAG_TXC_Pos;
    1fde:	7b9b      	ldrb	r3, [r3, #14]
    1fe0:	085b      	lsrs	r3, r3, #1
    1fe2:	2001      	movs	r0, #1
    1fe4:	4018      	ands	r0, r3
}
    1fe6:	4770      	bx	lr

00001fe8 <_usart_sync_is_byte_received>:
	return hri_sercomusart_get_interrupt_RXC_bit(device->hw);
    1fe8:	6803      	ldr	r3, [r0, #0]
	return (((Sercom *)hw)->USART.INTFLAG.reg & SERCOM_USART_INTFLAG_RXC) >> SERCOM_USART_INTFLAG_RXC_Pos;
    1fea:	7b9b      	ldrb	r3, [r3, #14]
    1fec:	089b      	lsrs	r3, r3, #2
    1fee:	2001      	movs	r0, #1
    1ff0:	4018      	ands	r0, r3
}
    1ff2:	4770      	bx	lr

00001ff4 <_i2c_m_sync_init>:
{
    1ff4:	b570      	push	{r4, r5, r6, lr}
    1ff6:	0006      	movs	r6, r0
    1ff8:	000c      	movs	r4, r1
	uint8_t i = _get_i2cm_index(hw);
    1ffa:	0008      	movs	r0, r1
    1ffc:	f7ff fede 	bl	1dbc <_get_i2cm_index>
    2000:	0005      	movs	r5, r0
	ASSERT(i2c_dev);
    2002:	0030      	movs	r0, r6
    2004:	1e43      	subs	r3, r0, #1
    2006:	4198      	sbcs	r0, r3
    2008:	b2c0      	uxtb	r0, r0
    200a:	4a20      	ldr	r2, [pc, #128]	; (208c <STACK_SIZE+0x8c>)
    200c:	4920      	ldr	r1, [pc, #128]	; (2090 <STACK_SIZE+0x90>)
    200e:	f7ff fd29 	bl	1a64 <assert>
	i2c_dev->hw = hw;
    2012:	6134      	str	r4, [r6, #16]
	while (((const Sercom *)hw)->I2CM.STATUS.bit.SYNCBUSY)
    2014:	8a23      	ldrh	r3, [r4, #16]
    2016:	0bdb      	lsrs	r3, r3, #15
    2018:	d1fc      	bne.n	2014 <STACK_SIZE+0x14>
    201a:	8a23      	ldrh	r3, [r4, #16]
    201c:	0bdb      	lsrs	r3, r3, #15
    201e:	d1fc      	bne.n	201a <STACK_SIZE+0x1a>
	tmp = ((Sercom *)hw)->I2CM.CTRLA.reg;
    2020:	6823      	ldr	r3, [r4, #0]
	if (hri_sercomi2cm_get_CTRLA_reg(hw, SERCOM_I2CM_CTRLA_ENABLE)) {
    2022:	079b      	lsls	r3, r3, #30
    2024:	d507      	bpl.n	2036 <STACK_SIZE+0x36>
	((Sercom *)hw)->I2CM.CTRLA.reg = data;
    2026:	2300      	movs	r3, #0
    2028:	6023      	str	r3, [r4, #0]
	while (((const Sercom *)hw)->I2CM.STATUS.bit.SYNCBUSY)
    202a:	8a23      	ldrh	r3, [r4, #16]
    202c:	0bdb      	lsrs	r3, r3, #15
    202e:	d1fc      	bne.n	202a <STACK_SIZE+0x2a>
    2030:	8a23      	ldrh	r3, [r4, #16]
    2032:	0bdb      	lsrs	r3, r3, #15
    2034:	d1fc      	bne.n	2030 <STACK_SIZE+0x30>
	((Sercom *)hw)->I2CM.CTRLA.reg = data;
    2036:	2301      	movs	r3, #1
    2038:	6023      	str	r3, [r4, #0]
	while (((const Sercom *)hw)->I2CM.STATUS.bit.SYNCBUSY)
    203a:	8a23      	ldrh	r3, [r4, #16]
    203c:	0bdb      	lsrs	r3, r3, #15
    203e:	d1fc      	bne.n	203a <STACK_SIZE+0x3a>
    2040:	8a23      	ldrh	r3, [r4, #16]
    2042:	0bdb      	lsrs	r3, r3, #15
    2044:	d1fc      	bne.n	2040 <STACK_SIZE+0x40>
	hri_sercomi2cm_write_CTRLA_reg(hw, _i2cms[i].ctrl_a & ~SERCOM_I2CM_CTRLA_ENABLE);
    2046:	006b      	lsls	r3, r5, #1
    2048:	195b      	adds	r3, r3, r5
    204a:	00da      	lsls	r2, r3, #3
    204c:	4b11      	ldr	r3, [pc, #68]	; (2094 <STACK_SIZE+0x94>)
    204e:	189b      	adds	r3, r3, r2
    2050:	685b      	ldr	r3, [r3, #4]
    2052:	2202      	movs	r2, #2
    2054:	4393      	bics	r3, r2
	((Sercom *)hw)->I2CM.CTRLA.reg = data;
    2056:	6023      	str	r3, [r4, #0]
	while (((const Sercom *)hw)->I2CM.STATUS.bit.SYNCBUSY)
    2058:	8a23      	ldrh	r3, [r4, #16]
    205a:	0bdb      	lsrs	r3, r3, #15
    205c:	d1fc      	bne.n	2058 <STACK_SIZE+0x58>
	hri_sercomi2cm_write_CTRLB_reg(hw, _i2cms[i].ctrl_b);
    205e:	006b      	lsls	r3, r5, #1
    2060:	195b      	adds	r3, r3, r5
    2062:	00da      	lsls	r2, r3, #3
    2064:	4b0b      	ldr	r3, [pc, #44]	; (2094 <STACK_SIZE+0x94>)
    2066:	189b      	adds	r3, r3, r2
    2068:	689b      	ldr	r3, [r3, #8]
	((Sercom *)hw)->I2CM.CTRLB.reg = data;
    206a:	6063      	str	r3, [r4, #4]
	while (((const Sercom *)hw)->I2CM.STATUS.bit.SYNCBUSY)
    206c:	8a23      	ldrh	r3, [r4, #16]
    206e:	0bdb      	lsrs	r3, r3, #15
    2070:	d1fc      	bne.n	206c <STACK_SIZE+0x6c>
	hri_sercomi2cm_write_BAUD_reg(hw, _i2cms[i].baud);
    2072:	4a08      	ldr	r2, [pc, #32]	; (2094 <STACK_SIZE+0x94>)
    2074:	006b      	lsls	r3, r5, #1
    2076:	1958      	adds	r0, r3, r5
    2078:	00c1      	lsls	r1, r0, #3
    207a:	0008      	movs	r0, r1
    207c:	1851      	adds	r1, r2, r1
    207e:	8989      	ldrh	r1, [r1, #12]
	((Sercom *)hw)->I2CM.BAUD.reg = data;
    2080:	8161      	strh	r1, [r4, #10]
	i2c_dev->service.trise = _i2cms[i].trise;
    2082:	1812      	adds	r2, r2, r0
    2084:	8a13      	ldrh	r3, [r2, #16]
    2086:	81f3      	strh	r3, [r6, #14]
}
    2088:	2000      	movs	r0, #0
    208a:	bd70      	pop	{r4, r5, r6, pc}
    208c:	000004d7 	.word	0x000004d7
    2090:	0000b064 	.word	0x0000b064
    2094:	0000b080 	.word	0x0000b080

00002098 <_i2c_m_sync_enable>:
{
    2098:	b570      	push	{r4, r5, r6, lr}
    209a:	0006      	movs	r6, r0
	void *hw              = i2c_dev->hw;
    209c:	6904      	ldr	r4, [r0, #16]
	ASSERT(i2c_dev);
    209e:	4d18      	ldr	r5, [pc, #96]	; (2100 <_i2c_m_sync_enable+0x68>)
    20a0:	1e43      	subs	r3, r0, #1
    20a2:	4198      	sbcs	r0, r3
    20a4:	b2c0      	uxtb	r0, r0
    20a6:	22a1      	movs	r2, #161	; 0xa1
    20a8:	00d2      	lsls	r2, r2, #3
    20aa:	0029      	movs	r1, r5
    20ac:	f7ff fcda 	bl	1a64 <assert>
	ASSERT(i2c_dev->hw);
    20b0:	6930      	ldr	r0, [r6, #16]
    20b2:	1e43      	subs	r3, r0, #1
    20b4:	4198      	sbcs	r0, r3
    20b6:	b2c0      	uxtb	r0, r0
    20b8:	4a12      	ldr	r2, [pc, #72]	; (2104 <_i2c_m_sync_enable+0x6c>)
    20ba:	0029      	movs	r1, r5
    20bc:	f7ff fcd2 	bl	1a64 <assert>
	((Sercom *)hw)->I2CM.CTRLA.reg |= SERCOM_I2CM_CTRLA_ENABLE;
    20c0:	6823      	ldr	r3, [r4, #0]
    20c2:	2202      	movs	r2, #2
    20c4:	4313      	orrs	r3, r2
    20c6:	6023      	str	r3, [r4, #0]
	while (((const Sercom *)hw)->I2CM.STATUS.bit.SYNCBUSY)
    20c8:	8a23      	ldrh	r3, [r4, #16]
    20ca:	0bdb      	lsrs	r3, r3, #15
    20cc:	d1fc      	bne.n	20c8 <_i2c_m_sync_enable+0x30>
    20ce:	2004      	movs	r0, #4
    20d0:	490d      	ldr	r1, [pc, #52]	; (2108 <_i2c_m_sync_enable+0x70>)
    20d2:	8a23      	ldrh	r3, [r4, #16]
    20d4:	0bdb      	lsrs	r3, r3, #15
    20d6:	d1fc      	bne.n	20d2 <_i2c_m_sync_enable+0x3a>
	return (((Sercom *)hw)->I2CM.STATUS.reg & SERCOM_I2CM_STATUS_BUSSTATE_Msk) >> SERCOM_I2CM_STATUS_BUSSTATE_Pos;
    20d8:	8a22      	ldrh	r2, [r4, #16]
    20da:	0912      	lsrs	r2, r2, #4
    20dc:	3303      	adds	r3, #3
    20de:	4013      	ands	r3, r2
	while (hri_sercomi2cm_read_STATUS_BUSSTATE_bf(hw) != I2C_IDLE) {
    20e0:	2b01      	cmp	r3, #1
    20e2:	d008      	beq.n	20f6 <_i2c_m_sync_enable+0x5e>
		timeout--;
    20e4:	3901      	subs	r1, #1
		if (timeout <= 0) {
    20e6:	2900      	cmp	r1, #0
    20e8:	dcf3      	bgt.n	20d2 <_i2c_m_sync_enable+0x3a>
			if (--timeout_attempt)
    20ea:	3801      	subs	r0, #1
    20ec:	2800      	cmp	r0, #0
    20ee:	d004      	beq.n	20fa <_i2c_m_sync_enable+0x62>
			((Sercom *)hw)->I2CM.STATUS.reg = SERCOM_I2CM_STATUS_BUSSTATE(I2C_IDLE);
    20f0:	2310      	movs	r3, #16
    20f2:	8223      	strh	r3, [r4, #16]
    20f4:	e7ec      	b.n	20d0 <_i2c_m_sync_enable+0x38>
	return ERR_NONE;
    20f6:	2000      	movs	r0, #0
}
    20f8:	bd70      	pop	{r4, r5, r6, pc}
				return I2C_ERR_BUSY;
    20fa:	2006      	movs	r0, #6
    20fc:	4240      	negs	r0, r0
    20fe:	e7fb      	b.n	20f8 <_i2c_m_sync_enable+0x60>
    2100:	0000b064 	.word	0x0000b064
    2104:	00000509 	.word	0x00000509
    2108:	0000ffff 	.word	0x0000ffff

0000210c <_i2c_m_sync_transfer>:
{
    210c:	b5f8      	push	{r3, r4, r5, r6, r7, lr}
    210e:	0005      	movs	r5, r0
    2110:	000e      	movs	r6, r1
	void *   hw = i2c_dev->hw;
    2112:	6904      	ldr	r4, [r0, #16]
	ASSERT(i2c_dev);
    2114:	4f7d      	ldr	r7, [pc, #500]	; (230c <_i2c_m_sync_transfer+0x200>)
    2116:	1e43      	subs	r3, r0, #1
    2118:	4198      	sbcs	r0, r3
    211a:	b2c0      	uxtb	r0, r0
    211c:	4a7c      	ldr	r2, [pc, #496]	; (2310 <_i2c_m_sync_transfer+0x204>)
    211e:	0039      	movs	r1, r7
    2120:	f7ff fca0 	bl	1a64 <assert>
	ASSERT(i2c_dev->hw);
    2124:	6928      	ldr	r0, [r5, #16]
    2126:	1e43      	subs	r3, r0, #1
    2128:	4198      	sbcs	r0, r3
    212a:	b2c0      	uxtb	r0, r0
    212c:	4a79      	ldr	r2, [pc, #484]	; (2314 <_i2c_m_sync_transfer+0x208>)
    212e:	0039      	movs	r1, r7
    2130:	f7ff fc98 	bl	1a64 <assert>
	ASSERT(msg);
    2134:	0030      	movs	r0, r6
    2136:	1e43      	subs	r3, r0, #1
    2138:	4198      	sbcs	r0, r3
    213a:	b2c0      	uxtb	r0, r0
    213c:	4a76      	ldr	r2, [pc, #472]	; (2318 <_i2c_m_sync_transfer+0x20c>)
    213e:	0039      	movs	r1, r7
    2140:	f7ff fc90 	bl	1a64 <assert>
	if (i2c_dev->service.msg.flags & I2C_M_BUSY) {
    2144:	886b      	ldrh	r3, [r5, #2]
    2146:	05db      	lsls	r3, r3, #23
    2148:	d500      	bpl.n	214c <_i2c_m_sync_transfer+0x40>
    214a:	e0dc      	b.n	2306 <_i2c_m_sync_transfer+0x1fa>
	msg->flags |= I2C_M_BUSY;
    214c:	8872      	ldrh	r2, [r6, #2]
    214e:	2380      	movs	r3, #128	; 0x80
    2150:	005b      	lsls	r3, r3, #1
    2152:	469c      	mov	ip, r3
    2154:	431a      	orrs	r2, r3
    2156:	8072      	strh	r2, [r6, #2]
	i2c_dev->service.msg = *msg;
    2158:	002a      	movs	r2, r5
    215a:	0031      	movs	r1, r6
    215c:	c989      	ldmia	r1!, {r0, r3, r7}
    215e:	c289      	stmia	r2!, {r0, r3, r7}
	((Sercom *)hw)->I2CM.CTRLB.reg |= SERCOM_I2CM_CTRLB_SMEN;
    2160:	6862      	ldr	r2, [r4, #4]
    2162:	4663      	mov	r3, ip
    2164:	4313      	orrs	r3, r2
    2166:	6063      	str	r3, [r4, #4]
	while (((const Sercom *)hw)->I2CM.STATUS.bit.SYNCBUSY)
    2168:	8a23      	ldrh	r3, [r4, #16]
    216a:	0bdb      	lsrs	r3, r3, #15
    216c:	d1fc      	bne.n	2168 <_i2c_m_sync_transfer+0x5c>
	ret = _sercom_i2c_sync_send_address(i2c_dev);
    216e:	0028      	movs	r0, r5
    2170:	f7ff fe42 	bl	1df8 <_sercom_i2c_sync_send_address>
	if (ret) {
    2174:	2800      	cmp	r0, #0
    2176:	d100      	bne.n	217a <_i2c_m_sync_transfer+0x6e>
    2178:	e07d      	b.n	2276 <_i2c_m_sync_transfer+0x16a>
		i2c_dev->service.msg.flags &= ~I2C_M_BUSY;
    217a:	886b      	ldrh	r3, [r5, #2]
    217c:	4a67      	ldr	r2, [pc, #412]	; (231c <_i2c_m_sync_transfer+0x210>)
    217e:	4013      	ands	r3, r2
    2180:	806b      	strh	r3, [r5, #2]
}
    2182:	bdf8      	pop	{r3, r4, r5, r6, r7, pc}
			return I2C_ERR_BUS;
    2184:	2005      	movs	r0, #5
    2186:	4240      	negs	r0, r0
    2188:	e086      	b.n	2298 <_i2c_m_sync_transfer+0x18c>
			if (msg->flags & I2C_M_STOP) {
    218a:	8873      	ldrh	r3, [r6, #2]
    218c:	b21b      	sxth	r3, r3
    218e:	2b00      	cmp	r3, #0
    2190:	db04      	blt.n	219c <_i2c_m_sync_transfer+0x90>
			i2c_dev->service.msg.flags &= ~I2C_M_BUSY;
    2192:	886b      	ldrh	r3, [r5, #2]
    2194:	4a61      	ldr	r2, [pc, #388]	; (231c <_i2c_m_sync_transfer+0x210>)
    2196:	4013      	ands	r3, r2
    2198:	806b      	strh	r3, [r5, #2]
			return ret;
    219a:	e7f2      	b.n	2182 <_i2c_m_sync_transfer+0x76>
	((Sercom *)hw)->I2CM.CTRLB.reg |= SERCOM_I2CM_CTRLB_CMD(mask);
    219c:	6862      	ldr	r2, [r4, #4]
    219e:	23c0      	movs	r3, #192	; 0xc0
    21a0:	029b      	lsls	r3, r3, #10
    21a2:	4313      	orrs	r3, r2
    21a4:	6063      	str	r3, [r4, #4]
	while (((const Sercom *)hw)->I2CM.STATUS.bit.SYNCBUSY)
    21a6:	8a23      	ldrh	r3, [r4, #16]
    21a8:	0bdb      	lsrs	r3, r3, #15
    21aa:	d1fc      	bne.n	21a6 <_i2c_m_sync_transfer+0x9a>
    21ac:	e7f1      	b.n	2192 <_i2c_m_sync_transfer+0x86>
			if (status & SERCOM_I2CM_STATUS_RXNACK) {
    21ae:	075b      	lsls	r3, r3, #29
    21b0:	d40b      	bmi.n	21ca <_i2c_m_sync_transfer+0xbe>
			if (msg->len == 0) {
    21b2:	6868      	ldr	r0, [r5, #4]
    21b4:	2800      	cmp	r0, #0
    21b6:	d12d      	bne.n	2214 <_i2c_m_sync_transfer+0x108>
				if (msg->flags & I2C_M_STOP) {
    21b8:	886b      	ldrh	r3, [r5, #2]
    21ba:	b21b      	sxth	r3, r3
    21bc:	2b00      	cmp	r3, #0
    21be:	db20      	blt.n	2202 <_i2c_m_sync_transfer+0xf6>
				msg->flags &= ~I2C_M_BUSY;
    21c0:	886b      	ldrh	r3, [r5, #2]
    21c2:	4a56      	ldr	r2, [pc, #344]	; (231c <_i2c_m_sync_transfer+0x210>)
    21c4:	4013      	ands	r3, r2
    21c6:	806b      	strh	r3, [r5, #2]
    21c8:	e055      	b.n	2276 <_i2c_m_sync_transfer+0x16a>
				if (msg->len > 0) {
    21ca:	686b      	ldr	r3, [r5, #4]
    21cc:	2b00      	cmp	r3, #0
    21ce:	dd04      	ble.n	21da <_i2c_m_sync_transfer+0xce>
					msg->flags |= I2C_M_FAIL;
    21d0:	886b      	ldrh	r3, [r5, #2]
    21d2:	2280      	movs	r2, #128	; 0x80
    21d4:	0152      	lsls	r2, r2, #5
    21d6:	4313      	orrs	r3, r2
    21d8:	806b      	strh	r3, [r5, #2]
				if (msg->flags & I2C_M_STOP) {
    21da:	886b      	ldrh	r3, [r5, #2]
    21dc:	b21b      	sxth	r3, r3
    21de:	2b00      	cmp	r3, #0
    21e0:	db06      	blt.n	21f0 <_i2c_m_sync_transfer+0xe4>
				msg->flags &= ~I2C_M_BUSY;
    21e2:	886b      	ldrh	r3, [r5, #2]
    21e4:	4a4d      	ldr	r2, [pc, #308]	; (231c <_i2c_m_sync_transfer+0x210>)
    21e6:	4013      	ands	r3, r2
    21e8:	806b      	strh	r3, [r5, #2]
				return I2C_NACK;
    21ea:	2002      	movs	r0, #2
    21ec:	4240      	negs	r0, r0
    21ee:	e042      	b.n	2276 <_i2c_m_sync_transfer+0x16a>
	((Sercom *)hw)->I2CM.CTRLB.reg |= SERCOM_I2CM_CTRLB_CMD(mask);
    21f0:	6862      	ldr	r2, [r4, #4]
    21f2:	23c0      	movs	r3, #192	; 0xc0
    21f4:	029b      	lsls	r3, r3, #10
    21f6:	4313      	orrs	r3, r2
    21f8:	6063      	str	r3, [r4, #4]
	while (((const Sercom *)hw)->I2CM.STATUS.bit.SYNCBUSY)
    21fa:	8a23      	ldrh	r3, [r4, #16]
    21fc:	0bdb      	lsrs	r3, r3, #15
    21fe:	d1fc      	bne.n	21fa <_i2c_m_sync_transfer+0xee>
    2200:	e7ef      	b.n	21e2 <_i2c_m_sync_transfer+0xd6>
	((Sercom *)hw)->I2CM.CTRLB.reg |= SERCOM_I2CM_CTRLB_CMD(mask);
    2202:	6862      	ldr	r2, [r4, #4]
    2204:	23c0      	movs	r3, #192	; 0xc0
    2206:	029b      	lsls	r3, r3, #10
    2208:	4313      	orrs	r3, r2
    220a:	6063      	str	r3, [r4, #4]
	while (((const Sercom *)hw)->I2CM.STATUS.bit.SYNCBUSY)
    220c:	8a23      	ldrh	r3, [r4, #16]
    220e:	0bdb      	lsrs	r3, r3, #15
    2210:	d1fc      	bne.n	220c <_i2c_m_sync_transfer+0x100>
    2212:	e7d5      	b.n	21c0 <_i2c_m_sync_transfer+0xb4>
				hri_sercomi2cm_write_DATA_reg(hw, *msg->buffer);
    2214:	68ab      	ldr	r3, [r5, #8]
    2216:	781b      	ldrb	r3, [r3, #0]
	((Sercom *)hw)->I2CM.DATA.reg = data;
    2218:	7623      	strb	r3, [r4, #24]
				msg->buffer++;
    221a:	68ab      	ldr	r3, [r5, #8]
    221c:	3301      	adds	r3, #1
    221e:	60ab      	str	r3, [r5, #8]
				msg->len--;
    2220:	686b      	ldr	r3, [r5, #4]
    2222:	3b01      	subs	r3, #1
    2224:	606b      	str	r3, [r5, #4]
			return I2C_OK;
    2226:	2000      	movs	r0, #0
    2228:	e025      	b.n	2276 <_i2c_m_sync_transfer+0x16a>
	} else if (flags & SB_FLAG) {
    222a:	078a      	lsls	r2, r1, #30
    222c:	d569      	bpl.n	2302 <_i2c_m_sync_transfer+0x1f6>
		if ((msg->len) && !(status & SERCOM_I2CM_STATUS_RXNACK)) {
    222e:	686a      	ldr	r2, [r5, #4]
    2230:	2a00      	cmp	r2, #0
    2232:	d05e      	beq.n	22f2 <_i2c_m_sync_transfer+0x1e6>
    2234:	075b      	lsls	r3, r3, #29
    2236:	d45c      	bmi.n	22f2 <_i2c_m_sync_transfer+0x1e6>
			msg->len--;
    2238:	3a01      	subs	r2, #1
    223a:	606a      	str	r2, [r5, #4]
			if (msg->len == 0) {
    223c:	2a00      	cmp	r2, #0
    223e:	d107      	bne.n	2250 <_i2c_m_sync_transfer+0x144>
	((Sercom *)hw)->I2CM.CTRLB.reg |= SERCOM_I2CM_CTRLB_ACKACT;
    2240:	6862      	ldr	r2, [r4, #4]
    2242:	2380      	movs	r3, #128	; 0x80
    2244:	02db      	lsls	r3, r3, #11
    2246:	4313      	orrs	r3, r2
    2248:	6063      	str	r3, [r4, #4]
	while (((const Sercom *)hw)->I2CM.STATUS.bit.SYNCBUSY)
    224a:	8a23      	ldrh	r3, [r4, #16]
    224c:	0bdb      	lsrs	r3, r3, #15
    224e:	d1fc      	bne.n	224a <_i2c_m_sync_transfer+0x13e>
			if (msg->len == 0) {
    2250:	686b      	ldr	r3, [r5, #4]
    2252:	2b00      	cmp	r3, #0
    2254:	d107      	bne.n	2266 <_i2c_m_sync_transfer+0x15a>
				if (msg->flags & I2C_M_STOP) {
    2256:	886b      	ldrh	r3, [r5, #2]
    2258:	b21b      	sxth	r3, r3
    225a:	2b00      	cmp	r3, #0
    225c:	db39      	blt.n	22d2 <_i2c_m_sync_transfer+0x1c6>
				msg->flags &= ~I2C_M_BUSY;
    225e:	886b      	ldrh	r3, [r5, #2]
    2260:	4a2e      	ldr	r2, [pc, #184]	; (231c <_i2c_m_sync_transfer+0x210>)
    2262:	4013      	ands	r3, r2
    2264:	806b      	strh	r3, [r5, #2]
			*msg->buffer++ = hri_sercomi2cm_read_DATA_reg(hw);
    2266:	68ab      	ldr	r3, [r5, #8]
    2268:	1c5a      	adds	r2, r3, #1
    226a:	60aa      	str	r2, [r5, #8]
	return ((Sercom *)hw)->I2CM.DATA.reg;
    226c:	7e22      	ldrb	r2, [r4, #24]
    226e:	701a      	strb	r2, [r3, #0]
	((Sercom *)hw)->I2CM.INTFLAG.reg = SERCOM_I2CM_INTFLAG_SB;
    2270:	2302      	movs	r3, #2
    2272:	73a3      	strb	r3, [r4, #14]
	return I2C_OK;
    2274:	2000      	movs	r0, #0
	while (i2c_dev->service.msg.flags & I2C_M_BUSY) {
    2276:	886b      	ldrh	r3, [r5, #2]
    2278:	05db      	lsls	r3, r3, #23
    227a:	d400      	bmi.n	227e <_i2c_m_sync_transfer+0x172>
    227c:	e781      	b.n	2182 <_i2c_m_sync_transfer+0x76>
	void *   hw      = i2c_dev->hw;
    227e:	692f      	ldr	r7, [r5, #16]
	uint32_t timeout = 65535;
    2280:	4a27      	ldr	r2, [pc, #156]	; (2320 <_i2c_m_sync_transfer+0x214>)
	return ((Sercom *)hw)->I2CM.INTFLAG.reg;
    2282:	7bbb      	ldrb	r3, [r7, #14]
    2284:	b2db      	uxtb	r3, r3
		*flags = hri_sercomi2cm_read_INTFLAG_reg(hw);
    2286:	0019      	movs	r1, r3
		if (timeout-- == 0) {
    2288:	1e50      	subs	r0, r2, #1
    228a:	2a00      	cmp	r2, #0
    228c:	d100      	bne.n	2290 <_i2c_m_sync_transfer+0x184>
    228e:	e779      	b.n	2184 <_i2c_m_sync_transfer+0x78>
    2290:	0002      	movs	r2, r0
	} while (!(*flags & MB_FLAG) && !(*flags & SB_FLAG));
    2292:	079b      	lsls	r3, r3, #30
    2294:	d0f5      	beq.n	2282 <_i2c_m_sync_transfer+0x176>
	return I2C_OK;
    2296:	2000      	movs	r0, #0
		if (ret) {
    2298:	2800      	cmp	r0, #0
    229a:	d000      	beq.n	229e <_i2c_m_sync_transfer+0x192>
    229c:	e775      	b.n	218a <_i2c_m_sync_transfer+0x7e>
	while (((const Sercom *)hw)->I2CM.STATUS.bit.SYNCBUSY)
    229e:	8a23      	ldrh	r3, [r4, #16]
    22a0:	0bdb      	lsrs	r3, r3, #15
    22a2:	d1fc      	bne.n	229e <_i2c_m_sync_transfer+0x192>
	return ((Sercom *)hw)->I2CM.STATUS.reg;
    22a4:	8a23      	ldrh	r3, [r4, #16]
    22a6:	b29b      	uxth	r3, r3
	if (flags & MB_FLAG) {
    22a8:	07ca      	lsls	r2, r1, #31
    22aa:	d5be      	bpl.n	222a <_i2c_m_sync_transfer+0x11e>
		if (status & SERCOM_I2CM_STATUS_ARBLOST) {
    22ac:	079a      	lsls	r2, r3, #30
    22ae:	d400      	bmi.n	22b2 <_i2c_m_sync_transfer+0x1a6>
    22b0:	e77d      	b.n	21ae <_i2c_m_sync_transfer+0xa2>
	((Sercom *)hw)->I2CM.INTFLAG.reg = SERCOM_I2CM_INTFLAG_MB;
    22b2:	2201      	movs	r2, #1
    22b4:	73a2      	strb	r2, [r4, #14]
			msg->flags |= I2C_M_FAIL;
    22b6:	886a      	ldrh	r2, [r5, #2]
    22b8:	2180      	movs	r1, #128	; 0x80
    22ba:	0149      	lsls	r1, r1, #5
    22bc:	430a      	orrs	r2, r1
    22be:	806a      	strh	r2, [r5, #2]
			msg->flags &= ~I2C_M_BUSY;
    22c0:	886a      	ldrh	r2, [r5, #2]
    22c2:	4916      	ldr	r1, [pc, #88]	; (231c <_i2c_m_sync_transfer+0x210>)
    22c4:	400a      	ands	r2, r1
    22c6:	806a      	strh	r2, [r5, #2]
			if (status & SERCOM_I2CM_STATUS_BUSERR) {
    22c8:	07db      	lsls	r3, r3, #31
    22ca:	d517      	bpl.n	22fc <_i2c_m_sync_transfer+0x1f0>
				return I2C_ERR_BUS;
    22cc:	2005      	movs	r0, #5
    22ce:	4240      	negs	r0, r0
    22d0:	e7d1      	b.n	2276 <_i2c_m_sync_transfer+0x16a>
	((Sercom *)hw)->I2CM.CTRLB.reg &= ~SERCOM_I2CM_CTRLB_SMEN;
    22d2:	6863      	ldr	r3, [r4, #4]
    22d4:	4a11      	ldr	r2, [pc, #68]	; (231c <_i2c_m_sync_transfer+0x210>)
    22d6:	4013      	ands	r3, r2
    22d8:	6063      	str	r3, [r4, #4]
	while (((const Sercom *)hw)->I2CM.STATUS.bit.SYNCBUSY)
    22da:	8a23      	ldrh	r3, [r4, #16]
    22dc:	0bdb      	lsrs	r3, r3, #15
    22de:	d1fc      	bne.n	22da <_i2c_m_sync_transfer+0x1ce>
	((Sercom *)hw)->I2CM.CTRLB.reg |= SERCOM_I2CM_CTRLB_CMD(mask);
    22e0:	6862      	ldr	r2, [r4, #4]
    22e2:	23c0      	movs	r3, #192	; 0xc0
    22e4:	029b      	lsls	r3, r3, #10
    22e6:	4313      	orrs	r3, r2
    22e8:	6063      	str	r3, [r4, #4]
	while (((const Sercom *)hw)->I2CM.STATUS.bit.SYNCBUSY)
    22ea:	8a23      	ldrh	r3, [r4, #16]
    22ec:	0bdb      	lsrs	r3, r3, #15
    22ee:	d1fc      	bne.n	22ea <_i2c_m_sync_transfer+0x1de>
    22f0:	e7b5      	b.n	225e <_i2c_m_sync_transfer+0x152>
	((Sercom *)hw)->I2CM.INTFLAG.reg = SERCOM_I2CM_INTFLAG_SB;
    22f2:	2302      	movs	r3, #2
    22f4:	73a3      	strb	r3, [r4, #14]
			return I2C_NACK;
    22f6:	2002      	movs	r0, #2
    22f8:	4240      	negs	r0, r0
    22fa:	e7bc      	b.n	2276 <_i2c_m_sync_transfer+0x16a>
			return I2C_ERR_BAD_ADDRESS;
    22fc:	2004      	movs	r0, #4
    22fe:	4240      	negs	r0, r0
    2300:	e7b9      	b.n	2276 <_i2c_m_sync_transfer+0x16a>
	return I2C_OK;
    2302:	2000      	movs	r0, #0
    2304:	e7b7      	b.n	2276 <_i2c_m_sync_transfer+0x16a>
		return I2C_ERR_BUSY;
    2306:	2006      	movs	r0, #6
    2308:	4240      	negs	r0, r0
    230a:	e73a      	b.n	2182 <_i2c_m_sync_transfer+0x76>
    230c:	0000b064 	.word	0x0000b064
    2310:	0000059b 	.word	0x0000059b
    2314:	0000059c 	.word	0x0000059c
    2318:	0000059d 	.word	0x0000059d
    231c:	fffffeff 	.word	0xfffffeff
    2320:	0000ffff 	.word	0x0000ffff

00002324 <_spi_m_sync_init>:

	return NULL;
}

int32_t _spi_m_sync_init(struct _spi_m_sync_dev *dev, void *const hw)
{
    2324:	b570      	push	{r4, r5, r6, lr}
    2326:	0006      	movs	r6, r0
    2328:	000c      	movs	r4, r1
	uint8_t n = _sercom_get_hardware_index((const void *)hw_addr);
    232a:	0008      	movs	r0, r1
    232c:	f7ff fcda 	bl	1ce4 <_sercom_get_hardware_index>
	for (i = 0; i < sizeof(sercomspi_regs) / sizeof(struct sercomspi_regs_cfg); i++) {
    2330:	2300      	movs	r3, #0
    2332:	e001      	b.n	2338 <_spi_m_sync_init+0x14>
    2334:	3301      	adds	r3, #1
    2336:	b2db      	uxtb	r3, r3
    2338:	2b02      	cmp	r3, #2
    233a:	d808      	bhi.n	234e <_spi_m_sync_init+0x2a>
		if (sercomspi_regs[i].n == n) {
    233c:	0119      	lsls	r1, r3, #4
    233e:	4a5e      	ldr	r2, [pc, #376]	; (24b8 <_spi_m_sync_init+0x194>)
    2340:	1852      	adds	r2, r2, r1
    2342:	7bd2      	ldrb	r2, [r2, #15]
    2344:	4290      	cmp	r0, r2
    2346:	d1f5      	bne.n	2334 <_spi_m_sync_init+0x10>
			return &sercomspi_regs[i];
    2348:	4b5b      	ldr	r3, [pc, #364]	; (24b8 <_spi_m_sync_init+0x194>)
    234a:	185d      	adds	r5, r3, r1
    234c:	e000      	b.n	2350 <_spi_m_sync_init+0x2c>
	return NULL;
    234e:	2500      	movs	r5, #0
	const struct sercomspi_regs_cfg *regs = _spi_get_regs((uint32_t)hw);

	ASSERT(dev && hw);
    2350:	2e00      	cmp	r6, #0
    2352:	d100      	bne.n	2356 <_spi_m_sync_init+0x32>
    2354:	e06a      	b.n	242c <_spi_m_sync_init+0x108>
    2356:	2c00      	cmp	r4, #0
    2358:	d100      	bne.n	235c <_spi_m_sync_init+0x38>
    235a:	e065      	b.n	2428 <_spi_m_sync_init+0x104>
    235c:	2001      	movs	r0, #1
    235e:	4a57      	ldr	r2, [pc, #348]	; (24bc <_spi_m_sync_init+0x198>)
    2360:	4957      	ldr	r1, [pc, #348]	; (24c0 <_spi_m_sync_init+0x19c>)
    2362:	f7ff fb7f 	bl	1a64 <assert>

	if (regs == NULL) {
    2366:	2d00      	cmp	r5, #0
    2368:	d100      	bne.n	236c <_spi_m_sync_init+0x48>
    236a:	e0a2      	b.n	24b2 <_spi_m_sync_init+0x18e>
	while (((const Sercom *)hw)->SPI.STATUS.bit.SYNCBUSY)
    236c:	8a23      	ldrh	r3, [r4, #16]
    236e:	0bdb      	lsrs	r3, r3, #15
    2370:	d1fc      	bne.n	236c <_spi_m_sync_init+0x48>
    2372:	8a23      	ldrh	r3, [r4, #16]
    2374:	0bdb      	lsrs	r3, r3, #15
    2376:	d1fc      	bne.n	2372 <_spi_m_sync_init+0x4e>
	tmp = ((Sercom *)hw)->SPI.CTRLA.reg;
    2378:	6823      	ldr	r3, [r4, #0]
		return ERR_INVALID_ARG;
	}

	hri_sercomspi_wait_for_sync(hw);
	if (hri_sercomspi_get_CTRLA_reg(hw, SERCOM_SPI_CTRLA_ENABLE)) {
    237a:	079b      	lsls	r3, r3, #30
    237c:	d507      	bpl.n	238e <_spi_m_sync_init+0x6a>
	((Sercom *)hw)->SPI.CTRLA.reg = data;
    237e:	2300      	movs	r3, #0
    2380:	6023      	str	r3, [r4, #0]
	while (((const Sercom *)hw)->SPI.STATUS.bit.SYNCBUSY)
    2382:	8a23      	ldrh	r3, [r4, #16]
    2384:	0bdb      	lsrs	r3, r3, #15
    2386:	d1fc      	bne.n	2382 <_spi_m_sync_init+0x5e>
    2388:	8a23      	ldrh	r3, [r4, #16]
    238a:	0bdb      	lsrs	r3, r3, #15
    238c:	d1fc      	bne.n	2388 <_spi_m_sync_init+0x64>
	((Sercom *)hw)->SPI.CTRLA.reg = data;
    238e:	2301      	movs	r3, #1
    2390:	6023      	str	r3, [r4, #0]
	while (((const Sercom *)hw)->SPI.STATUS.bit.SYNCBUSY)
    2392:	8a23      	ldrh	r3, [r4, #16]
    2394:	0bdb      	lsrs	r3, r3, #15
    2396:	d1fc      	bne.n	2392 <_spi_m_sync_init+0x6e>
    2398:	8a23      	ldrh	r3, [r4, #16]
    239a:	0bdb      	lsrs	r3, r3, #15
    239c:	d1fc      	bne.n	2398 <_spi_m_sync_init+0x74>
		hri_sercomspi_wait_for_sync(hw);
	}
	hri_sercomspi_write_CTRLA_reg(hw, SERCOM_SPI_CTRLA_SWRST);
	hri_sercomspi_wait_for_sync(hw);

	dev->prvt = hw;
    239e:	6034      	str	r4, [r6, #0]

	if ((regs->ctrla & SERCOM_SPI_CTRLA_MODE_Msk) == SERCOM_USART_CTRLA_MODE_SPI_SLAVE) {
    23a0:	782b      	ldrb	r3, [r5, #0]
    23a2:	786a      	ldrb	r2, [r5, #1]
    23a4:	0212      	lsls	r2, r2, #8
    23a6:	431a      	orrs	r2, r3
    23a8:	78ab      	ldrb	r3, [r5, #2]
    23aa:	041b      	lsls	r3, r3, #16
    23ac:	431a      	orrs	r2, r3
    23ae:	78eb      	ldrb	r3, [r5, #3]
    23b0:	061b      	lsls	r3, r3, #24
    23b2:	4313      	orrs	r3, r2
    23b4:	221c      	movs	r2, #28
    23b6:	4013      	ands	r3, r2
    23b8:	2b08      	cmp	r3, #8
    23ba:	d039      	beq.n	2430 <_spi_m_sync_init+0x10c>
	ASSERT(hw && regs);
    23bc:	2c00      	cmp	r4, #0
    23be:	d100      	bne.n	23c2 <_spi_m_sync_init+0x9e>
    23c0:	e073      	b.n	24aa <_spi_m_sync_init+0x186>
    23c2:	2d00      	cmp	r5, #0
    23c4:	d100      	bne.n	23c8 <_spi_m_sync_init+0xa4>
    23c6:	e06e      	b.n	24a6 <_spi_m_sync_init+0x182>
    23c8:	2001      	movs	r0, #1
    23ca:	4a3e      	ldr	r2, [pc, #248]	; (24c4 <_spi_m_sync_init+0x1a0>)
    23cc:	493c      	ldr	r1, [pc, #240]	; (24c0 <_spi_m_sync_init+0x19c>)
    23ce:	f7ff fb49 	bl	1a64 <assert>
	    hw, regs->ctrla & ~(SERCOM_SPI_CTRLA_IBON | SERCOM_SPI_CTRLA_ENABLE | SERCOM_SPI_CTRLA_SWRST));
    23d2:	782b      	ldrb	r3, [r5, #0]
    23d4:	786a      	ldrb	r2, [r5, #1]
    23d6:	0212      	lsls	r2, r2, #8
    23d8:	431a      	orrs	r2, r3
    23da:	78ab      	ldrb	r3, [r5, #2]
    23dc:	041b      	lsls	r3, r3, #16
    23de:	431a      	orrs	r2, r3
    23e0:	78eb      	ldrb	r3, [r5, #3]
    23e2:	061b      	lsls	r3, r3, #24
    23e4:	4313      	orrs	r3, r2
	hri_sercomspi_write_CTRLA_reg(
    23e6:	4a38      	ldr	r2, [pc, #224]	; (24c8 <_spi_m_sync_init+0x1a4>)
    23e8:	4013      	ands	r3, r2
	((Sercom *)hw)->SPI.CTRLA.reg = data;
    23ea:	6023      	str	r3, [r4, #0]
	while (((const Sercom *)hw)->SPI.STATUS.bit.SYNCBUSY)
    23ec:	8a23      	ldrh	r3, [r4, #16]
    23ee:	0bdb      	lsrs	r3, r3, #15
    23f0:	d1fc      	bne.n	23ec <_spi_m_sync_init+0xc8>
	    hw, (regs->ctrlb & ~(SERCOM_SPI_CTRLB_AMODE_Msk | SERCOM_SPI_CTRLB_PLOADEN)) | (SERCOM_SPI_CTRLB_RXEN));
    23f2:	792b      	ldrb	r3, [r5, #4]
    23f4:	796a      	ldrb	r2, [r5, #5]
    23f6:	0212      	lsls	r2, r2, #8
    23f8:	431a      	orrs	r2, r3
    23fa:	79ab      	ldrb	r3, [r5, #6]
    23fc:	041b      	lsls	r3, r3, #16
    23fe:	431a      	orrs	r2, r3
    2400:	79eb      	ldrb	r3, [r5, #7]
    2402:	061b      	lsls	r3, r3, #24
    2404:	4313      	orrs	r3, r2
    2406:	4a31      	ldr	r2, [pc, #196]	; (24cc <_spi_m_sync_init+0x1a8>)
    2408:	4013      	ands	r3, r2
	hri_sercomspi_write_CTRLB_reg(
    240a:	2280      	movs	r2, #128	; 0x80
    240c:	0292      	lsls	r2, r2, #10
    240e:	4313      	orrs	r3, r2
	((Sercom *)hw)->SPI.CTRLB.reg = data;
    2410:	6063      	str	r3, [r4, #4]
	hri_sercomspi_write_BAUD_reg(hw, regs->baud);
    2412:	7b2b      	ldrb	r3, [r5, #12]
	((Sercom *)hw)->SPI.BAUD.reg = data;
    2414:	72a3      	strb	r3, [r4, #10]
	hri_sercomspi_write_DBGCTRL_reg(hw, regs->dbgctrl);
    2416:	7b6b      	ldrb	r3, [r5, #13]
	((Sercom *)hw)->SPI.DBGCTRL.reg = data;
    2418:	7223      	strb	r3, [r4, #8]
	} else {
		_spi_load_regs_master(hw, regs);
	}

	/* Load character size from default hardware configuration */
	dev->char_size = ((regs->ctrlb & SERCOM_SPI_CTRLB_CHSIZE_Msk) == 0) ? 1 : 2;
    241a:	792b      	ldrb	r3, [r5, #4]
    241c:	075b      	lsls	r3, r3, #29
    241e:	d146      	bne.n	24ae <_spi_m_sync_init+0x18a>
    2420:	2301      	movs	r3, #1
    2422:	7133      	strb	r3, [r6, #4]

	return ERR_NONE;
    2424:	2000      	movs	r0, #0
}
    2426:	bd70      	pop	{r4, r5, r6, pc}
	ASSERT(dev && hw);
    2428:	2000      	movs	r0, #0
    242a:	e798      	b.n	235e <_spi_m_sync_init+0x3a>
    242c:	2000      	movs	r0, #0
    242e:	e796      	b.n	235e <_spi_m_sync_init+0x3a>
	ASSERT(hw && regs);
    2430:	2c00      	cmp	r4, #0
    2432:	d036      	beq.n	24a2 <_spi_m_sync_init+0x17e>
    2434:	2d00      	cmp	r5, #0
    2436:	d032      	beq.n	249e <_spi_m_sync_init+0x17a>
    2438:	2001      	movs	r0, #1
    243a:	4a25      	ldr	r2, [pc, #148]	; (24d0 <_spi_m_sync_init+0x1ac>)
    243c:	4920      	ldr	r1, [pc, #128]	; (24c0 <_spi_m_sync_init+0x19c>)
    243e:	f7ff fb11 	bl	1a64 <assert>
	    hw, regs->ctrla & ~(SERCOM_SPI_CTRLA_IBON | SERCOM_SPI_CTRLA_ENABLE | SERCOM_SPI_CTRLA_SWRST));
    2442:	782b      	ldrb	r3, [r5, #0]
    2444:	786a      	ldrb	r2, [r5, #1]
    2446:	0212      	lsls	r2, r2, #8
    2448:	431a      	orrs	r2, r3
    244a:	78ab      	ldrb	r3, [r5, #2]
    244c:	041b      	lsls	r3, r3, #16
    244e:	431a      	orrs	r2, r3
    2450:	78eb      	ldrb	r3, [r5, #3]
    2452:	061b      	lsls	r3, r3, #24
    2454:	4313      	orrs	r3, r2
	hri_sercomspi_write_CTRLA_reg(
    2456:	4a1c      	ldr	r2, [pc, #112]	; (24c8 <_spi_m_sync_init+0x1a4>)
    2458:	4013      	ands	r3, r2
	((Sercom *)hw)->SPI.CTRLA.reg = data;
    245a:	6023      	str	r3, [r4, #0]
	while (((const Sercom *)hw)->SPI.STATUS.bit.SYNCBUSY)
    245c:	8a23      	ldrh	r3, [r4, #16]
    245e:	0bdb      	lsrs	r3, r3, #15
    2460:	d1fc      	bne.n	245c <_spi_m_sync_init+0x138>
	hri_sercomspi_write_CTRLB_reg(hw, regs->ctrlb | (SERCOM_SPI_CTRLB_RXEN | SERCOM_SPI_CTRLB_PLOADEN));
    2462:	792b      	ldrb	r3, [r5, #4]
    2464:	796a      	ldrb	r2, [r5, #5]
    2466:	0212      	lsls	r2, r2, #8
    2468:	431a      	orrs	r2, r3
    246a:	79ab      	ldrb	r3, [r5, #6]
    246c:	041b      	lsls	r3, r3, #16
    246e:	431a      	orrs	r2, r3
    2470:	79eb      	ldrb	r3, [r5, #7]
    2472:	061b      	lsls	r3, r3, #24
    2474:	4313      	orrs	r3, r2
    2476:	4a17      	ldr	r2, [pc, #92]	; (24d4 <_spi_m_sync_init+0x1b0>)
    2478:	4313      	orrs	r3, r2
	((Sercom *)hw)->SPI.CTRLB.reg = data;
    247a:	6063      	str	r3, [r4, #4]
	hri_sercomspi_write_ADDR_reg(hw, regs->addr);
    247c:	7a2b      	ldrb	r3, [r5, #8]
    247e:	7a6a      	ldrb	r2, [r5, #9]
    2480:	0212      	lsls	r2, r2, #8
    2482:	431a      	orrs	r2, r3
    2484:	7aab      	ldrb	r3, [r5, #10]
    2486:	041b      	lsls	r3, r3, #16
    2488:	431a      	orrs	r2, r3
    248a:	7aeb      	ldrb	r3, [r5, #11]
    248c:	061b      	lsls	r3, r3, #24
    248e:	4313      	orrs	r3, r2
	((Sercom *)hw)->SPI.ADDR.reg = data;
    2490:	6163      	str	r3, [r4, #20]
	hri_sercomspi_write_DBGCTRL_reg(hw, regs->dbgctrl);
    2492:	7b6b      	ldrb	r3, [r5, #13]
	((Sercom *)hw)->SPI.DBGCTRL.reg = data;
    2494:	7223      	strb	r3, [r4, #8]
	return ((const Sercom *)hw)->SPI.STATUS.bit.SYNCBUSY;
    2496:	8a23      	ldrh	r3, [r4, #16]
    2498:	0bdb      	lsrs	r3, r3, #15
	while (hri_sercomspi_is_syncing(hw))
    249a:	d1fc      	bne.n	2496 <_spi_m_sync_init+0x172>
    249c:	e7bd      	b.n	241a <_spi_m_sync_init+0xf6>
	ASSERT(hw && regs);
    249e:	2000      	movs	r0, #0
    24a0:	e7cb      	b.n	243a <_spi_m_sync_init+0x116>
    24a2:	2000      	movs	r0, #0
    24a4:	e7c9      	b.n	243a <_spi_m_sync_init+0x116>
	ASSERT(hw && regs);
    24a6:	2000      	movs	r0, #0
    24a8:	e78f      	b.n	23ca <_spi_m_sync_init+0xa6>
    24aa:	2000      	movs	r0, #0
    24ac:	e78d      	b.n	23ca <_spi_m_sync_init+0xa6>
	dev->char_size = ((regs->ctrlb & SERCOM_SPI_CTRLB_CHSIZE_Msk) == 0) ? 1 : 2;
    24ae:	2302      	movs	r3, #2
    24b0:	e7b7      	b.n	2422 <_spi_m_sync_init+0xfe>
		return ERR_INVALID_ARG;
    24b2:	200d      	movs	r0, #13
    24b4:	4240      	negs	r0, r0
    24b6:	e7b6      	b.n	2426 <_spi_m_sync_init+0x102>
    24b8:	0000b0c0 	.word	0x0000b0c0
    24bc:	000008a3 	.word	0x000008a3
    24c0:	0000b064 	.word	0x0000b064
    24c4:	00000872 	.word	0x00000872
    24c8:	fffffefc 	.word	0xfffffefc
    24cc:	fffd3fbf 	.word	0xfffd3fbf
    24d0:	00000883 	.word	0x00000883
    24d4:	00020040 	.word	0x00020040

000024d8 <_spi_m_sync_enable>:

	return _spi_deinit(hw);
}

int32_t _spi_m_sync_enable(struct _spi_m_sync_dev *dev)
{
    24d8:	b510      	push	{r4, lr}
    24da:	1e04      	subs	r4, r0, #0
	ASSERT(dev && dev->prvt);
    24dc:	d00d      	beq.n	24fa <_spi_m_sync_enable+0x22>
    24de:	6803      	ldr	r3, [r0, #0]
    24e0:	2b00      	cmp	r3, #0
    24e2:	d008      	beq.n	24f6 <_spi_m_sync_enable+0x1e>
    24e4:	2001      	movs	r0, #1
    24e6:	4a06      	ldr	r2, [pc, #24]	; (2500 <_spi_m_sync_enable+0x28>)
    24e8:	4906      	ldr	r1, [pc, #24]	; (2504 <_spi_m_sync_enable+0x2c>)
    24ea:	f7ff fabb 	bl	1a64 <assert>

	return _spi_sync_enable(dev->prvt);
    24ee:	6820      	ldr	r0, [r4, #0]
    24f0:	f7ff fc00 	bl	1cf4 <_spi_sync_enable>
}
    24f4:	bd10      	pop	{r4, pc}
	ASSERT(dev && dev->prvt);
    24f6:	2000      	movs	r0, #0
    24f8:	e7f5      	b.n	24e6 <_spi_m_sync_enable+0xe>
    24fa:	2000      	movs	r0, #0
    24fc:	e7f3      	b.n	24e6 <_spi_m_sync_enable+0xe>
    24fe:	46c0      	nop			; (mov r8, r8)
    2500:	0000090a 	.word	0x0000090a
    2504:	0000b064 	.word	0x0000b064

00002508 <_spi_m_sync_trans>:
	ctrl->txcnt++;
	hri_sercomspi_write_DATA_reg(hw, data);
}

int32_t _spi_m_sync_trans(struct _spi_m_sync_dev *dev, const struct spi_msg *msg)
{
    2508:	b570      	push	{r4, r5, r6, lr}
    250a:	b088      	sub	sp, #32
    250c:	000d      	movs	r5, r1
	void *                 hw   = dev->prvt;
    250e:	6804      	ldr	r4, [r0, #0]
	int32_t                rc   = 0;
	struct _spi_trans_ctrl ctrl = {msg->txbuf, msg->rxbuf, 0, 0, dev->char_size};
    2510:	680b      	ldr	r3, [r1, #0]
    2512:	9303      	str	r3, [sp, #12]
    2514:	684b      	ldr	r3, [r1, #4]
    2516:	9304      	str	r3, [sp, #16]
    2518:	2300      	movs	r3, #0
    251a:	9305      	str	r3, [sp, #20]
    251c:	9306      	str	r3, [sp, #24]
    251e:	7906      	ldrb	r6, [r0, #4]

	ASSERT(dev && hw);
    2520:	2800      	cmp	r0, #0
    2522:	d014      	beq.n	254e <_spi_m_sync_trans+0x46>
    2524:	2c00      	cmp	r4, #0
    2526:	d010      	beq.n	254a <_spi_m_sync_trans+0x42>
    2528:	2001      	movs	r0, #1
    252a:	4a2d      	ldr	r2, [pc, #180]	; (25e0 <_spi_m_sync_trans+0xd8>)
    252c:	492d      	ldr	r1, [pc, #180]	; (25e4 <_spi_m_sync_trans+0xdc>)
    252e:	f7ff fa99 	bl	1a64 <assert>
    2532:	8a23      	ldrh	r3, [r4, #16]
    2534:	0bdb      	lsrs	r3, r3, #15

	/* If settings are not applied (pending), we can not go on */
	if (hri_sercomspi_is_syncing(hw)) {
    2536:	d14f      	bne.n	25d8 <_spi_m_sync_trans+0xd0>
	while (((const Sercom *)hw)->SPI.STATUS.bit.SYNCBUSY)
    2538:	8a23      	ldrh	r3, [r4, #16]
    253a:	0bdb      	lsrs	r3, r3, #15
    253c:	d1fc      	bne.n	2538 <_spi_m_sync_trans+0x30>
	tmp = ((Sercom *)hw)->SPI.CTRLA.reg;
    253e:	6823      	ldr	r3, [r4, #0]
		return ERR_BUSY;
	}

	/* SPI must be enabled to start synchronous transfer */
	if (!hri_sercomspi_get_CTRLA_ENABLE_bit(hw)) {
    2540:	079b      	lsls	r3, r3, #30
    2542:	d418      	bmi.n	2576 <_spi_m_sync_trans+0x6e>
		return ERR_NOT_INITIALIZED;
    2544:	2014      	movs	r0, #20
    2546:	4240      	negs	r0, r0
    2548:	e044      	b.n	25d4 <_spi_m_sync_trans+0xcc>
	ASSERT(dev && hw);
    254a:	2000      	movs	r0, #0
    254c:	e7ed      	b.n	252a <_spi_m_sync_trans+0x22>
    254e:	2000      	movs	r0, #0
    2550:	e7eb      	b.n	252a <_spi_m_sync_trans+0x22>
		return false;
    2552:	2200      	movs	r2, #0
    2554:	e026      	b.n	25a4 <_spi_m_sync_trans+0x9c>
			data |= (*ctrl->txbuf) << 8;
    2556:	7858      	ldrb	r0, [r3, #1]
    2558:	0200      	lsls	r0, r0, #8
    255a:	4301      	orrs	r1, r0
			ctrl->txbuf++;
    255c:	3302      	adds	r3, #2
    255e:	9303      	str	r3, [sp, #12]
	ctrl->txcnt++;
    2560:	3201      	adds	r2, #1
    2562:	9205      	str	r2, [sp, #20]
	hri_sercomspi_write_DATA_reg(hw, data);
    2564:	b289      	uxth	r1, r1
	((Sercom *)hw)->SPI.DATA.reg = data;
    2566:	8321      	strh	r1, [r4, #24]
			if (ctrl.rxcnt >= ctrl.txcnt) {
				_spi_tx_check(hw, iflag, &ctrl);
			}
		}

		if (ctrl.txcnt >= msg->size && ctrl.rxcnt >= msg->size) {
    2568:	9805      	ldr	r0, [sp, #20]
    256a:	68ab      	ldr	r3, [r5, #8]
    256c:	4298      	cmp	r0, r3
    256e:	d302      	bcc.n	2576 <_spi_m_sync_trans+0x6e>
    2570:	9a06      	ldr	r2, [sp, #24]
    2572:	4293      	cmp	r3, r2
    2574:	d929      	bls.n	25ca <_spi_m_sync_trans+0xc2>
	return ((Sercom *)hw)->SPI.INTFLAG.reg;
    2576:	7ba3      	ldrb	r3, [r4, #14]
    2578:	b2db      	uxtb	r3, r3
	if (!(iflag & SERCOM_SPI_INTFLAG_RXC)) {
    257a:	075a      	lsls	r2, r3, #29
    257c:	d5e9      	bpl.n	2552 <_spi_m_sync_trans+0x4a>
	return ((Sercom *)hw)->SPI.DATA.reg;
    257e:	8b22      	ldrh	r2, [r4, #24]
    2580:	b292      	uxth	r2, r2
	if (ctrl->rxbuf) {
    2582:	9904      	ldr	r1, [sp, #16]
    2584:	2900      	cmp	r1, #0
    2586:	d008      	beq.n	259a <_spi_m_sync_trans+0x92>
		*ctrl->rxbuf++ = (uint8_t)data;
    2588:	1c48      	adds	r0, r1, #1
    258a:	9004      	str	r0, [sp, #16]
    258c:	700a      	strb	r2, [r1, #0]
		if (ctrl->char_size > 1) {
    258e:	2e01      	cmp	r6, #1
    2590:	d903      	bls.n	259a <_spi_m_sync_trans+0x92>
			*ctrl->rxbuf++ = (uint8_t)(data >> 8);
    2592:	1c88      	adds	r0, r1, #2
    2594:	9004      	str	r0, [sp, #16]
    2596:	0a12      	lsrs	r2, r2, #8
    2598:	704a      	strb	r2, [r1, #1]
	ctrl->rxcnt++;
    259a:	9a06      	ldr	r2, [sp, #24]
    259c:	9201      	str	r2, [sp, #4]
    259e:	3201      	adds	r2, #1
    25a0:	9206      	str	r2, [sp, #24]
	return true;
    25a2:	2201      	movs	r2, #1
		if (!_spi_rx_check(hw, iflag, &ctrl)) {
    25a4:	2a00      	cmp	r2, #0
    25a6:	d1df      	bne.n	2568 <_spi_m_sync_trans+0x60>
			if (ctrl.rxcnt >= ctrl.txcnt) {
    25a8:	9906      	ldr	r1, [sp, #24]
    25aa:	9a05      	ldr	r2, [sp, #20]
    25ac:	4291      	cmp	r1, r2
    25ae:	d3db      	bcc.n	2568 <_spi_m_sync_trans+0x60>
	if (!(SERCOM_SPI_INTFLAG_DRE & iflag)) {
    25b0:	07db      	lsls	r3, r3, #31
    25b2:	d5d9      	bpl.n	2568 <_spi_m_sync_trans+0x60>
	if (ctrl->txbuf) {
    25b4:	9b03      	ldr	r3, [sp, #12]
    25b6:	2b00      	cmp	r3, #0
    25b8:	d005      	beq.n	25c6 <_spi_m_sync_trans+0xbe>
		data = *ctrl->txbuf++;
    25ba:	1c59      	adds	r1, r3, #1
    25bc:	9103      	str	r1, [sp, #12]
    25be:	7819      	ldrb	r1, [r3, #0]
		if (ctrl->char_size > 1) {
    25c0:	2e01      	cmp	r6, #1
    25c2:	d8c8      	bhi.n	2556 <_spi_m_sync_trans+0x4e>
    25c4:	e7cc      	b.n	2560 <_spi_m_sync_trans+0x58>
		data = SPI_DUMMY_CHAR;
    25c6:	4908      	ldr	r1, [pc, #32]	; (25e8 <_spi_m_sync_trans+0xe0>)
    25c8:	e7ca      	b.n	2560 <_spi_m_sync_trans+0x58>
	tmp = ((Sercom *)hw)->SPI.INTFLAG.reg;
    25ca:	7ba3      	ldrb	r3, [r4, #14]
	while (!(hri_sercomspi_get_INTFLAG_reg(hw, SERCOM_SPI_INTFLAG_TXC | SERCOM_SPI_INTFLAG_DRE))) {
    25cc:	079b      	lsls	r3, r3, #30
    25ce:	d0fc      	beq.n	25ca <_spi_m_sync_trans+0xc2>
	((Sercom *)hw)->SPI.INTFLAG.reg = mask;
    25d0:	2303      	movs	r3, #3
    25d2:	73a3      	strb	r3, [r4, #14]
	}
	/* Wait until SPI bus idle */
	_spi_wait_bus_idle(hw);

	return rc;
}
    25d4:	b008      	add	sp, #32
    25d6:	bd70      	pop	{r4, r5, r6, pc}
		return ERR_BUSY;
    25d8:	2004      	movs	r0, #4
    25da:	4240      	negs	r0, r0
    25dc:	e7fa      	b.n	25d4 <_spi_m_sync_trans+0xcc>
    25de:	46c0      	nop			; (mov r8, r8)
    25e0:	00000a01 	.word	0x00000a01
    25e4:	0000b064 	.word	0x0000b064
    25e8:	000001ff 	.word	0x000001ff

000025ec <_sysctrl_init_sources>:
}

static inline hri_sysctrl_osc8m_reg_t hri_sysctrl_read_OSC8M_CALIB_bf(const void *const hw)
{
	uint32_t tmp;
	tmp = ((Sysctrl *)hw)->OSC8M.reg;
    25ec:	4a16      	ldr	r2, [pc, #88]	; (2648 <_sysctrl_init_sources+0x5c>)
    25ee:	6a11      	ldr	r1, [r2, #32]
	tmp = (tmp & SYSCTRL_OSC8M_CALIB_Msk) >> SYSCTRL_OSC8M_CALIB_Pos;
    25f0:	0c09      	lsrs	r1, r1, #16
}

static inline hri_sysctrl_osc8m_reg_t hri_sysctrl_read_OSC8M_FRANGE_bf(const void *const hw)
{
	uint32_t tmp;
	tmp = ((Sysctrl *)hw)->OSC8M.reg;
    25f2:	6a13      	ldr	r3, [r2, #32]

#if CONF_OSC8M_CONFIG == 1
	calib = hri_sysctrl_read_OSC8M_CALIB_bf(hw);

	hri_sysctrl_write_OSC8M_reg(hw,
	                            SYSCTRL_OSC8M_FRANGE(hri_sysctrl_read_OSC8M_FRANGE_bf(hw)) |
    25f4:	0f9b      	lsrs	r3, r3, #30
    25f6:	079b      	lsls	r3, r3, #30
#if CONF_OSC8M_OVERWRITE_CALIBRATION == 1
	                                SYSCTRL_OSC8M_CALIB(CONF_OSC8M_CALIB) |
#else
	                                SYSCTRL_OSC8M_CALIB(calib) |
    25f8:	0409      	lsls	r1, r1, #16
    25fa:	4814      	ldr	r0, [pc, #80]	; (264c <_sysctrl_init_sources+0x60>)
    25fc:	4001      	ands	r1, r0
	                            SYSCTRL_OSC8M_FRANGE(hri_sysctrl_read_OSC8M_FRANGE_bf(hw)) |
    25fe:	430b      	orrs	r3, r1
	hri_sysctrl_write_OSC8M_reg(hw,
    2600:	4913      	ldr	r1, [pc, #76]	; (2650 <_sysctrl_init_sources+0x64>)
    2602:	430b      	orrs	r3, r1
}

static inline void hri_sysctrl_write_OSC8M_reg(const void *const hw, hri_sysctrl_osc8m_reg_t data)
{
	SYSCTRL_CRITICAL_SECTION_ENTER();
	((Sysctrl *)hw)->OSC8M.reg = data;
    2604:	6213      	str	r3, [r2, #32]
	tmp = ((Sysctrl *)hw)->OSC32K.reg;
    2606:	6993      	ldr	r3, [r2, #24]
	tmp = (tmp & SYSCTRL_OSC32K_CALIB_Msk) >> SYSCTRL_OSC32K_CALIB_Pos;
    2608:	0c1b      	lsrs	r3, r3, #16
	hri_sysctrl_write_OSC32K_reg(
	    hw,
#if CONF_OSC32K_OVERWRITE_CALIBRATION == 1
	    SYSCTRL_OSC32K_CALIB(CONF_OSC32K_CALIB) |
#else
	    SYSCTRL_OSC32K_CALIB(calib) |
    260a:	041b      	lsls	r3, r3, #16
    260c:	21fe      	movs	r1, #254	; 0xfe
    260e:	03c9      	lsls	r1, r1, #15
    2610:	400b      	ands	r3, r1
#endif
	        (CONF_OSC32K_WRTLOCK << SYSCTRL_OSC32K_WRTLOCK_Pos) | SYSCTRL_OSC32K_STARTUP(CONF_OSC32K_STARTUP)
	        | (CONF_OSC32K_RUNSTDBY << SYSCTRL_OSC32K_RUNSTDBY_Pos) | (CONF_OSC32K_EN1K << SYSCTRL_OSC32K_EN1K_Pos)
	        | (CONF_OSC32K_EN32K << SYSCTRL_OSC32K_EN32K_Pos) | (1 << SYSCTRL_OSC32K_ENABLE_Pos));
    2612:	210e      	movs	r1, #14
    2614:	430b      	orrs	r3, r1
	((Sysctrl *)hw)->OSC32K.reg = data;
    2616:	6193      	str	r3, [r2, #24]
	tmp = ((Sysctrl *)hw)->OSCULP32K.reg;
    2618:	7f13      	ldrb	r3, [r2, #28]
	tmp = (tmp & SYSCTRL_OSCULP32K_CALIB_Msk) >> SYSCTRL_OSCULP32K_CALIB_Pos;
    261a:	3111      	adds	r1, #17
    261c:	400b      	ands	r3, r1
	((Sysctrl *)hw)->OSCULP32K.reg = data;
    261e:	7713      	strb	r3, [r2, #28]
	return (((Sysctrl *)hw)->PCLKSR.reg & SYSCTRL_PCLKSR_OSC32KRDY) >> SYSCTRL_PCLKSR_OSC32KRDY_Pos;
    2620:	4b09      	ldr	r3, [pc, #36]	; (2648 <_sysctrl_init_sources+0x5c>)
    2622:	68db      	ldr	r3, [r3, #12]
#endif
#endif

#if CONF_OSC32K_CONFIG == 1
#if CONF_OSC32K_ENABLE == 1
	while (!hri_sysctrl_get_PCLKSR_OSC32KRDY_bit(hw))
    2624:	075b      	lsls	r3, r3, #29
    2626:	d5fb      	bpl.n	2620 <_sysctrl_init_sources+0x34>
	((Sysctrl *)hw)->OSC32K.reg |= SYSCTRL_OSC32K_ONDEMAND;
    2628:	4a07      	ldr	r2, [pc, #28]	; (2648 <_sysctrl_init_sources+0x5c>)
    262a:	6993      	ldr	r3, [r2, #24]
    262c:	2180      	movs	r1, #128	; 0x80
    262e:	430b      	orrs	r3, r1
    2630:	6193      	str	r3, [r2, #24]
	return (((Sysctrl *)hw)->PCLKSR.reg & SYSCTRL_PCLKSR_OSC8MRDY) >> SYSCTRL_PCLKSR_OSC8MRDY_Pos;
    2632:	4b05      	ldr	r3, [pc, #20]	; (2648 <_sysctrl_init_sources+0x5c>)
    2634:	68db      	ldr	r3, [r3, #12]
#endif
#endif

#if CONF_OSC8M_CONFIG == 1
#if CONF_OSC8M_ENABLE == 1
	while (!hri_sysctrl_get_PCLKSR_OSC8MRDY_bit(hw))
    2636:	071b      	lsls	r3, r3, #28
    2638:	d5fb      	bpl.n	2632 <_sysctrl_init_sources+0x46>
	((Sysctrl *)hw)->OSC8M.reg |= SYSCTRL_OSC8M_ONDEMAND;
    263a:	4a03      	ldr	r2, [pc, #12]	; (2648 <_sysctrl_init_sources+0x5c>)
    263c:	6a13      	ldr	r3, [r2, #32]
    263e:	2180      	movs	r1, #128	; 0x80
    2640:	430b      	orrs	r3, r1
    2642:	6213      	str	r3, [r2, #32]
	hri_sysctrl_set_OSC8M_ONDEMAND_bit(hw);
#endif
#endif

	(void)calib, (void)hw;
}
    2644:	4770      	bx	lr
    2646:	46c0      	nop			; (mov r8, r8)
    2648:	40000800 	.word	0x40000800
    264c:	0fff0000 	.word	0x0fff0000
    2650:	00000302 	.word	0x00000302

00002654 <_sysctrl_init_referenced_generators>:
}

static inline void hri_sysctrl_write_DFLLCTRL_reg(const void *const hw, hri_sysctrl_dfllctrl_reg_t data)
{
	SYSCTRL_CRITICAL_SECTION_ENTER();
	((Sysctrl *)hw)->DFLLCTRL.reg = data;
    2654:	2202      	movs	r2, #2
    2656:	4b19      	ldr	r3, [pc, #100]	; (26bc <_sysctrl_init_referenced_generators+0x68>)
    2658:	849a      	strh	r2, [r3, #36]	; 0x24
	return (((Sysctrl *)hw)->PCLKSR.reg & SYSCTRL_PCLKSR_DFLLRDY) >> SYSCTRL_PCLKSR_DFLLRDY_Pos;
    265a:	4b18      	ldr	r3, [pc, #96]	; (26bc <_sysctrl_init_referenced_generators+0x68>)
    265c:	68db      	ldr	r3, [r3, #12]
	hri_gclk_write_CLKCTRL_reg(GCLK,
	                           GCLK_CLKCTRL_ID(0) | GCLK_CLKCTRL_GEN(CONF_DFLL_GCLK) | (1 << GCLK_CLKCTRL_CLKEN_Pos));
#endif

	hri_sysctrl_write_DFLLCTRL_reg(hw, SYSCTRL_DFLLCTRL_ENABLE);
	while (!hri_sysctrl_get_PCLKSR_DFLLRDY_bit(hw))
    265e:	06db      	lsls	r3, r3, #27
    2660:	d5fb      	bpl.n	265a <_sysctrl_init_referenced_generators+0x6>
}

static inline void hri_sysctrl_write_DFLLMUL_reg(const void *const hw, hri_sysctrl_dfllmul_reg_t data)
{
	SYSCTRL_CRITICAL_SECTION_ENTER();
	((Sysctrl *)hw)->DFLLMUL.reg = data;
    2662:	4a17      	ldr	r2, [pc, #92]	; (26c0 <_sysctrl_init_referenced_generators+0x6c>)
    2664:	4b15      	ldr	r3, [pc, #84]	; (26bc <_sysctrl_init_referenced_generators+0x68>)
    2666:	62da      	str	r2, [r3, #44]	; 0x2c
		;

	hri_sysctrl_write_DFLLMUL_reg(hw,
	                              SYSCTRL_DFLLMUL_CSTEP(CONF_DFLL_CSTEP) | SYSCTRL_DFLLMUL_FSTEP(CONF_DFLL_FSTEP)
	                                  | SYSCTRL_DFLLMUL_MUL(CONF_DFLL_MUL));
	hri_sysctrl_write_DFLLVAL_reg(hw, CONF_DFLLVAL);
    2668:	4b16      	ldr	r3, [pc, #88]	; (26c4 <_sysctrl_init_referenced_generators+0x70>)
    266a:	681b      	ldr	r3, [r3, #0]
    266c:	0e9b      	lsrs	r3, r3, #26
    266e:	2b3f      	cmp	r3, #63	; 0x3f
    2670:	d01b      	beq.n	26aa <_sysctrl_init_referenced_generators+0x56>
    2672:	029b      	lsls	r3, r3, #10
    2674:	2280      	movs	r2, #128	; 0x80
    2676:	0092      	lsls	r2, r2, #2
    2678:	4313      	orrs	r3, r2
	((Sysctrl *)hw)->DFLLVAL.reg = data;
    267a:	4a10      	ldr	r2, [pc, #64]	; (26bc <_sysctrl_init_referenced_generators+0x68>)
    267c:	6293      	str	r3, [r2, #40]	; 0x28
	((Sysctrl *)hw)->DFLLCTRL.reg = data;
    267e:	2302      	movs	r3, #2
    2680:	8493      	strh	r3, [r2, #36]	; 0x24
	tmp = ((Sysctrl *)hw)->DFLLCTRL.reg;
    2682:	8c93      	ldrh	r3, [r2, #36]	; 0x24
	hri_sysctrl_write_DFLLCTRL_reg(hw, tmp);
#endif

#if CONF_DFLL_CONFIG == 1
#if CONF_DFLL_ENABLE == 1
	if (hri_sysctrl_get_DFLLCTRL_MODE_bit(hw)) {
    2684:	075b      	lsls	r3, r3, #29
    2686:	d513      	bpl.n	26b0 <_sysctrl_init_referenced_generators+0x5c>
	tmp = ((Sysctrl *)hw)->PCLKSR.reg;
    2688:	4b0c      	ldr	r3, [pc, #48]	; (26bc <_sysctrl_init_referenced_generators+0x68>)
    268a:	68da      	ldr	r2, [r3, #12]
	tmp &= mask;
    268c:	23d0      	movs	r3, #208	; 0xd0
    268e:	4013      	ands	r3, r2
		hri_sysctrl_pclksr_reg_t status_mask
		    = SYSCTRL_PCLKSR_DFLLRDY | SYSCTRL_PCLKSR_DFLLLCKF | SYSCTRL_PCLKSR_DFLLLCKC;

		while (hri_sysctrl_get_PCLKSR_reg(hw, status_mask) != status_mask)
    2690:	2bd0      	cmp	r3, #208	; 0xd0
    2692:	d1f9      	bne.n	2688 <_sysctrl_init_referenced_generators+0x34>
	((Sysctrl *)hw)->DFLLCTRL.reg |= SYSCTRL_DFLLCTRL_ONDEMAND;
    2694:	4a09      	ldr	r2, [pc, #36]	; (26bc <_sysctrl_init_referenced_generators+0x68>)
    2696:	8c93      	ldrh	r3, [r2, #36]	; 0x24
    2698:	2180      	movs	r1, #128	; 0x80
    269a:	430b      	orrs	r3, r1
    269c:	b29b      	uxth	r3, r3
    269e:	8493      	strh	r3, [r2, #36]	; 0x24
	return (((Gclk *)hw)->STATUS.reg & GCLK_STATUS_SYNCBUSY) >> GCLK_STATUS_SYNCBUSY_Pos;
    26a0:	4b09      	ldr	r3, [pc, #36]	; (26c8 <_sysctrl_init_referenced_generators+0x74>)
    26a2:	785b      	ldrb	r3, [r3, #1]
	hri_sysctrl_set_DFLLCTRL_ONDEMAND_bit(hw);
#endif
#endif

#if CONF_DFLL_CONFIG == 1
	while (hri_gclk_get_STATUS_SYNCBUSY_bit(GCLK))
    26a4:	09db      	lsrs	r3, r3, #7
    26a6:	d1fb      	bne.n	26a0 <_sysctrl_init_referenced_generators+0x4c>
	/* Disable after all possible configurations needs sync written. */
	hri_sysctrl_clear_OSC32K_ENABLE_bit(hw);
#endif

	(void)hw;
}
    26a8:	4770      	bx	lr
	hri_sysctrl_write_DFLLVAL_reg(hw, CONF_DFLLVAL);
    26aa:	23fc      	movs	r3, #252	; 0xfc
    26ac:	01db      	lsls	r3, r3, #7
    26ae:	e7e4      	b.n	267a <_sysctrl_init_referenced_generators+0x26>
	return (((Sysctrl *)hw)->PCLKSR.reg & SYSCTRL_PCLKSR_DFLLRDY) >> SYSCTRL_PCLKSR_DFLLRDY_Pos;
    26b0:	4b02      	ldr	r3, [pc, #8]	; (26bc <_sysctrl_init_referenced_generators+0x68>)
    26b2:	68db      	ldr	r3, [r3, #12]
		while (!hri_sysctrl_get_PCLKSR_DFLLRDY_bit(hw))
    26b4:	06db      	lsls	r3, r3, #27
    26b6:	d5fb      	bpl.n	26b0 <_sysctrl_init_referenced_generators+0x5c>
    26b8:	e7ec      	b.n	2694 <_sysctrl_init_referenced_generators+0x40>
    26ba:	46c0      	nop			; (mov r8, r8)
    26bc:	40000800 	.word	0x40000800
    26c0:	04010000 	.word	0x04010000
    26c4:	00806024 	.word	0x00806024
    26c8:	40000c00 	.word	0x40000c00

000026cc <_system_time_init>:
 * \brief Initialize system time module
 */
void _system_time_init(void *const hw)
{
	(void)hw;
	SysTick->LOAD = (0xFFFFFF << SysTick_LOAD_RELOAD_Pos);
    26cc:	4b02      	ldr	r3, [pc, #8]	; (26d8 <_system_time_init+0xc>)
    26ce:	4a03      	ldr	r2, [pc, #12]	; (26dc <_system_time_init+0x10>)
    26d0:	605a      	str	r2, [r3, #4]
	SysTick->CTRL = (1 << SysTick_CTRL_ENABLE_Pos) | (CONF_SYSTICK_TICKINT << SysTick_CTRL_TICKINT_Pos)
    26d2:	2205      	movs	r2, #5
    26d4:	601a      	str	r2, [r3, #0]
	                | (1 << SysTick_CTRL_CLKSOURCE_Pos);
}
    26d6:	4770      	bx	lr
    26d8:	e000e010 	.word	0xe000e010
    26dc:	00ffffff 	.word	0x00ffffff

000026e0 <_delay_init>:
/**
 * \brief Initialize delay functionality
 */
void _delay_init(void *const hw)
{
    26e0:	b510      	push	{r4, lr}
	_system_time_init(hw);
    26e2:	f7ff fff3 	bl	26cc <_system_time_init>
}
    26e6:	bd10      	pop	{r4, pc}

000026e8 <_delay_cycles>:
 * \brief Delay loop to delay n number of cycles
 */
void _delay_cycles(void *const hw, uint32_t cycles)
{
	(void)hw;
	uint8_t  n   = cycles >> 24;
    26e8:	0e08      	lsrs	r0, r1, #24
	uint32_t buf = cycles;

	while (n--) {
    26ea:	e00b      	b.n	2704 <_delay_cycles+0x1c>
		SysTick->LOAD = 0xFFFFFF;
    26ec:	4b0b      	ldr	r3, [pc, #44]	; (271c <_delay_cycles+0x34>)
    26ee:	480c      	ldr	r0, [pc, #48]	; (2720 <_delay_cycles+0x38>)
    26f0:	6058      	str	r0, [r3, #4]
		SysTick->VAL  = 0xFFFFFF;
    26f2:	6098      	str	r0, [r3, #8]
		while (!(SysTick->CTRL & SysTick_CTRL_COUNTFLAG_Msk))
    26f4:	4b09      	ldr	r3, [pc, #36]	; (271c <_delay_cycles+0x34>)
    26f6:	681b      	ldr	r3, [r3, #0]
    26f8:	03db      	lsls	r3, r3, #15
    26fa:	d5fb      	bpl.n	26f4 <_delay_cycles+0xc>
			;
		buf -= 0xFFFFFF;
    26fc:	4b09      	ldr	r3, [pc, #36]	; (2724 <_delay_cycles+0x3c>)
    26fe:	469c      	mov	ip, r3
    2700:	4461      	add	r1, ip
	while (n--) {
    2702:	0010      	movs	r0, r2
    2704:	1e42      	subs	r2, r0, #1
    2706:	b2d2      	uxtb	r2, r2
    2708:	2800      	cmp	r0, #0
    270a:	d1ef      	bne.n	26ec <_delay_cycles+0x4>
	}

	SysTick->LOAD = buf;
    270c:	4b03      	ldr	r3, [pc, #12]	; (271c <_delay_cycles+0x34>)
    270e:	6059      	str	r1, [r3, #4]
	SysTick->VAL  = buf;
    2710:	6099      	str	r1, [r3, #8]
	while (!(SysTick->CTRL & SysTick_CTRL_COUNTFLAG_Msk))
    2712:	4b02      	ldr	r3, [pc, #8]	; (271c <_delay_cycles+0x34>)
    2714:	681b      	ldr	r3, [r3, #0]
    2716:	03db      	lsls	r3, r3, #15
    2718:	d5fb      	bpl.n	2712 <_delay_cycles+0x2a>
		;
}
    271a:	4770      	bx	lr
    271c:	e000e010 	.word	0xe000e010
    2720:	00ffffff 	.word	0x00ffffff
    2724:	ff000001 	.word	0xff000001

00002728 <PowerMeterInit>:
#include <math.h>

uint8_t INA_ADDR = 0;


uint8_t PowerMeterInit(uint8_t addr){
    2728:	b500      	push	{lr}
    272a:	b083      	sub	sp, #12
	uint8_t data_reg[3];
	uint16_t config_reg = 0;
	INA_ADDR = addr;
    272c:	4b06      	ldr	r3, [pc, #24]	; (2748 <PowerMeterInit+0x20>)
    272e:	7018      	strb	r0, [r3, #0]
	config_reg |= (SHUNT_AND_BUS_CONTINUOUS << MODE1) | (CONVERSION_TIME_1100us << VSHCT0)  | (CONVERSION_TIME_1100us << VBUSCT0) | (AVERAGES_512 << AVG0) | (0 << RST);
	data_reg[0] = CONFIG_REG;
    2730:	a901      	add	r1, sp, #4
    2732:	2300      	movs	r3, #0
    2734:	700b      	strb	r3, [r1, #0]
	data_reg[1] = (config_reg >> 8) & 0xFF;
    2736:	330d      	adds	r3, #13
    2738:	704b      	strb	r3, [r1, #1]
	data_reg[2] = config_reg & 0xFF;
    273a:	331a      	adds	r3, #26
    273c:	708b      	strb	r3, [r1, #2]
	
	return I2C_write_batch(INA_ADDR, data_reg, sizeof(data_reg));
    273e:	2203      	movs	r2, #3
    2740:	f000 fc70 	bl	3024 <I2C_write_batch>
	uint16_t callibrationReg = 0;
	data_reg[0] = CALIBRATION_REG;
	data_reg[1] = (callibrationReg >> 8) & 0xFF;
	data_reg[2] = callibrationReg & 0xFF;
	return I2C_write_batch(INA_ADDR, data_reg, sizeof(data_reg));
}
    2744:	b003      	add	sp, #12
    2746:	bd00      	pop	{pc}
    2748:	20000e08 	.word	0x20000e08

0000274c <PowerMeterGetReg>:
uint16_t PowerMeterGetId(){
	
	return PowerMeterGetReg(MANUFACTURER_ID_REG);
}

uint16_t PowerMeterGetReg(uint8_t reg_addr){
    274c:	b510      	push	{r4, lr}
    274e:	b082      	sub	sp, #8
    2750:	0001      	movs	r1, r0
	uint8_t reg_raw[2] = {0, 0};	//Read one 16 bit word
    2752:	ac01      	add	r4, sp, #4
    2754:	2300      	movs	r3, #0
    2756:	7023      	strb	r3, [r4, #0]
    2758:	7063      	strb	r3, [r4, #1]
	
	I2C_read_batch_addr(INA_ADDR, reg_addr, reg_raw, sizeof(reg_raw));
    275a:	4b06      	ldr	r3, [pc, #24]	; (2774 <PowerMeterGetReg+0x28>)
    275c:	7818      	ldrb	r0, [r3, #0]
    275e:	2302      	movs	r3, #2
    2760:	0022      	movs	r2, r4
    2762:	f000 fc89 	bl	3078 <I2C_read_batch_addr>
	return (reg_raw[0] << 8) | reg_raw[1];
    2766:	7823      	ldrb	r3, [r4, #0]
    2768:	021b      	lsls	r3, r3, #8
    276a:	7860      	ldrb	r0, [r4, #1]
    276c:	4318      	orrs	r0, r3
}
    276e:	b002      	add	sp, #8
    2770:	bd10      	pop	{r4, pc}
    2772:	46c0      	nop			; (mov r8, r8)
    2774:	20000e08 	.word	0x20000e08

00002778 <PowerMeterMeasure>:

uint8_t PowerMeterMeasure(powerData * pmStruc){
    2778:	b570      	push	{r4, r5, r6, lr}
    277a:	0004      	movs	r4, r0
	int16_t tmpCurrent = PowerMeterGetReg(SHUNT_VOLTAGE_REG);
    277c:	2001      	movs	r0, #1
    277e:	f7ff ffe5 	bl	274c <PowerMeterGetReg>
    2782:	b200      	sxth	r0, r0
	float milliAmptVal = (tmpCurrent > 0)? (tmpCurrent*POS_CURRENT_MULTIPLIER)+CURRENT_OFFSET : (tmpCurrent*NEG_CURRENT_MULTIPLIER)+CURRENT_OFFSET;
    2784:	2800      	cmp	r0, #0
    2786:	dd43      	ble.n	2810 <PowerMeterMeasure+0x98>
    2788:	f003 f9f6 	bl	5b78 <__aeabi_i2d>
    278c:	4a29      	ldr	r2, [pc, #164]	; (2834 <PowerMeterMeasure+0xbc>)
    278e:	4b2a      	ldr	r3, [pc, #168]	; (2838 <PowerMeterMeasure+0xc0>)
    2790:	f002 fc28 	bl	4fe4 <__aeabi_dmul>
    2794:	f003 fabc 	bl	5d10 <__aeabi_d2f>
    2798:	1c06      	adds	r6, r0, #0
	float milliVoltVal = (PowerMeterGetReg(BUS_VOLTAGE_REG)*VOLTAGE_MULTIPLIER)+VOLTAGE_OFFSET;
    279a:	2002      	movs	r0, #2
    279c:	f7ff ffd6 	bl	274c <PowerMeterGetReg>
    27a0:	f003 f9ea 	bl	5b78 <__aeabi_i2d>
    27a4:	4a25      	ldr	r2, [pc, #148]	; (283c <PowerMeterMeasure+0xc4>)
    27a6:	4b26      	ldr	r3, [pc, #152]	; (2840 <PowerMeterMeasure+0xc8>)
    27a8:	f002 fc1c 	bl	4fe4 <__aeabi_dmul>
    27ac:	f003 fab0 	bl	5d10 <__aeabi_d2f>
    27b0:	1c05      	adds	r5, r0, #0
	
	pmStruc->voltage = (uint16_t)milliVoltVal;
    27b2:	f001 faf5 	bl	3da0 <__aeabi_f2uiz>
    27b6:	b280      	uxth	r0, r0
    27b8:	60a0      	str	r0, [r4, #8]
	pmStruc->current = (int16_t)milliAmptVal;
    27ba:	1c30      	adds	r0, r6, #0
    27bc:	f002 f8be 	bl	493c <__aeabi_f2iz>
    27c0:	b200      	sxth	r0, r0
    27c2:	6060      	str	r0, [r4, #4]
	pmStruc->power = ((milliAmptVal)*milliVoltVal)/1000000;
    27c4:	1c29      	adds	r1, r5, #0
    27c6:	1c30      	adds	r0, r6, #0
    27c8:	f001 fdfc 	bl	43c4 <__aeabi_fmul>
    27cc:	491d      	ldr	r1, [pc, #116]	; (2844 <PowerMeterMeasure+0xcc>)
    27ce:	f001 fdf9 	bl	43c4 <__aeabi_fmul>
    27d2:	1c06      	adds	r6, r0, #0
    27d4:	6120      	str	r0, [r4, #16]
	//pmStruc->energy= (milliVoltVal < 14250) ? pmStruc->energy+pmStruc->power/3600 : BAT_FULL_ENEERGY;
	
	if (milliVoltVal < 14250)
    27d6:	491c      	ldr	r1, [pc, #112]	; (2848 <PowerMeterMeasure+0xd0>)
    27d8:	1c28      	adds	r0, r5, #0
    27da:	f001 fa8f 	bl	3cfc <__aeabi_fcmplt>
    27de:	2800      	cmp	r0, #0
    27e0:	d11d      	bne.n	281e <PowerMeterMeasure+0xa6>
	{
		pmStruc->energy = pmStruc->energy+pmStruc->power/3600;
	}else{
		
		if (pmStruc->energy > BAT_FULL_ENEERGY)
    27e2:	6965      	ldr	r5, [r4, #20]
    27e4:	4919      	ldr	r1, [pc, #100]	; (284c <PowerMeterMeasure+0xd4>)
    27e6:	1c28      	adds	r0, r5, #0
    27e8:	f001 fa9c 	bl	3d24 <__aeabi_fcmpgt>
    27ec:	2800      	cmp	r0, #0
    27ee:	d004      	beq.n	27fa <PowerMeterMeasure+0x82>
		{
			pmStruc->lastChargerErr = pmStruc->energy - BAT_FULL_ENEERGY;
    27f0:	4916      	ldr	r1, [pc, #88]	; (284c <PowerMeterMeasure+0xd4>)
    27f2:	1c28      	adds	r0, r5, #0
    27f4:	f001 ff06 	bl	4604 <__aeabi_fsub>
    27f8:	61a0      	str	r0, [r4, #24]
		}
		pmStruc->energy =  BAT_FULL_ENEERGY;
    27fa:	4b14      	ldr	r3, [pc, #80]	; (284c <PowerMeterMeasure+0xd4>)
    27fc:	6163      	str	r3, [r4, #20]
	}
	
	pmStruc->capacity = (uint8_t)((pmStruc->energy / BAT_FULL_ENEERGY) * 100);
    27fe:	4914      	ldr	r1, [pc, #80]	; (2850 <PowerMeterMeasure+0xd8>)
    2800:	6960      	ldr	r0, [r4, #20]
    2802:	f001 fddf 	bl	43c4 <__aeabi_fmul>
    2806:	f001 facb 	bl	3da0 <__aeabi_f2uiz>
    280a:	7320      	strb	r0, [r4, #12]
	return 1;
    280c:	2001      	movs	r0, #1
    280e:	bd70      	pop	{r4, r5, r6, pc}
	float milliAmptVal = (tmpCurrent > 0)? (tmpCurrent*POS_CURRENT_MULTIPLIER)+CURRENT_OFFSET : (tmpCurrent*NEG_CURRENT_MULTIPLIER)+CURRENT_OFFSET;
    2810:	f003 f9b2 	bl	5b78 <__aeabi_i2d>
    2814:	4a0f      	ldr	r2, [pc, #60]	; (2854 <PowerMeterMeasure+0xdc>)
    2816:	4b10      	ldr	r3, [pc, #64]	; (2858 <PowerMeterMeasure+0xe0>)
    2818:	f002 fbe4 	bl	4fe4 <__aeabi_dmul>
    281c:	e7ba      	b.n	2794 <PowerMeterMeasure+0x1c>
		pmStruc->energy = pmStruc->energy+pmStruc->power/3600;
    281e:	6965      	ldr	r5, [r4, #20]
    2820:	490e      	ldr	r1, [pc, #56]	; (285c <PowerMeterMeasure+0xe4>)
    2822:	1c30      	adds	r0, r6, #0
    2824:	f001 fdce 	bl	43c4 <__aeabi_fmul>
    2828:	1c01      	adds	r1, r0, #0
    282a:	1c28      	adds	r0, r5, #0
    282c:	f001 fb90 	bl	3f50 <__aeabi_fadd>
    2830:	6160      	str	r0, [r4, #20]
    2832:	e7e4      	b.n	27fe <PowerMeterMeasure+0x86>
    2834:	7e5499b5 	.word	0x7e5499b5
    2838:	3ff1d963 	.word	0x3ff1d963
    283c:	c4476d27 	.word	0xc4476d27
    2840:	3ff3f4d6 	.word	0x3ff3f4d6
    2844:	358637bd 	.word	0x358637bd
    2848:	465ea800 	.word	0x465ea800
    284c:	432f0000 	.word	0x432f0000
    2850:	3f124924 	.word	0x3f124924
    2854:	29533587 	.word	0x29533587
    2858:	3ff1e18f 	.word	0x3ff1e18f
    285c:	3991a2b4 	.word	0x3991a2b4

00002860 <EXT_I2C_IRQ_int_Handler>:
	rtcIntCount = 0;
	return res;
}

void EXT_I2C_IRQ_int_Handler(void){
	i2cIntCount++;
    2860:	4a02      	ldr	r2, [pc, #8]	; (286c <EXT_I2C_IRQ_int_Handler+0xc>)
    2862:	7813      	ldrb	r3, [r2, #0]
    2864:	3301      	adds	r3, #1
    2866:	7013      	strb	r3, [r2, #0]
}
    2868:	4770      	bx	lr
    286a:	46c0      	nop			; (mov r8, r8)
    286c:	20000e09 	.word	0x20000e09

00002870 <I2C_RTC_Handler>:

void I2C_RTC_Handler(void){
	rtcIntCount++;
    2870:	4a02      	ldr	r2, [pc, #8]	; (287c <I2C_RTC_Handler+0xc>)
    2872:	7813      	ldrb	r3, [r2, #0]
    2874:	3301      	adds	r3, #1
    2876:	7013      	strb	r3, [r2, #0]
}
    2878:	4770      	bx	lr
    287a:	46c0      	nop			; (mov r8, r8)
    287c:	20000e0b 	.word	0x20000e0b

00002880 <RF_int_Handler>:
rfHeader* rfMsgType(void) {
	return ptr_rfHeader;
}

void RF_int_Handler(void){
	int_count++;
    2880:	4a02      	ldr	r2, [pc, #8]	; (288c <RF_int_Handler+0xc>)
    2882:	7813      	ldrb	r3, [r2, #0]
    2884:	3301      	adds	r3, #1
    2886:	7013      	strb	r3, [r2, #0]
}
    2888:	4770      	bx	lr
    288a:	46c0      	nop			; (mov r8, r8)
    288c:	20000e0a 	.word	0x20000e0a

00002890 <RF_IRQ_Enable>:
void RF_IRQ_Enable(void){
    2890:	b510      	push	{r4, lr}
	ext_irq_register(RF_IRQ, RF_int_Handler);
    2892:	4904      	ldr	r1, [pc, #16]	; (28a4 <RF_IRQ_Enable+0x14>)
    2894:	203e      	movs	r0, #62	; 0x3e
    2896:	f7fe fe71 	bl	157c <ext_irq_register>
	spi_m_sync_enable(&RF_SPI);
    289a:	4803      	ldr	r0, [pc, #12]	; (28a8 <RF_IRQ_Enable+0x18>)
    289c:	f7fe ffbc 	bl	1818 <spi_m_sync_enable>
}
    28a0:	bd10      	pop	{r4, pc}
    28a2:	46c0      	nop			; (mov r8, r8)
    28a4:	00002881 	.word	0x00002881
    28a8:	20000e88 	.word	0x20000e88

000028ac <EXT_I2C_IRQ_Enable>:
void EXT_I2C_IRQ_Enable(void){
    28ac:	b510      	push	{r4, lr}
	ext_irq_register(EXT_I2C_IRQ, EXT_I2C_IRQ_int_Handler);
    28ae:	4902      	ldr	r1, [pc, #8]	; (28b8 <EXT_I2C_IRQ_Enable+0xc>)
    28b0:	2028      	movs	r0, #40	; 0x28
    28b2:	f7fe fe63 	bl	157c <ext_irq_register>
}
    28b6:	bd10      	pop	{r4, pc}
    28b8:	00002861 	.word	0x00002861

000028bc <RTC_I2C_IRQ_Enable>:
void RTC_I2C_IRQ_Enable(void){
    28bc:	b510      	push	{r4, lr}
	ext_irq_register(RTC_IRQ, I2C_RTC_Handler);
    28be:	4902      	ldr	r1, [pc, #8]	; (28c8 <RTC_I2C_IRQ_Enable+0xc>)
    28c0:	200a      	movs	r0, #10
    28c2:	f7fe fe5b 	bl	157c <ext_irq_register>
}
    28c6:	bd10      	pop	{r4, pc}
    28c8:	00002871 	.word	0x00002871

000028cc <RTC_IRQ_Ready>:
	uint8_t res = rtcIntCount;
    28cc:	4b02      	ldr	r3, [pc, #8]	; (28d8 <RTC_IRQ_Ready+0xc>)
    28ce:	7818      	ldrb	r0, [r3, #0]
	rtcIntCount = 0;
    28d0:	2200      	movs	r2, #0
    28d2:	701a      	strb	r2, [r3, #0]
}
    28d4:	4770      	bx	lr
    28d6:	46c0      	nop			; (mov r8, r8)
    28d8:	20000e0b 	.word	0x20000e0b

000028dc <EXT_I2C_IRQ_isReady>:
	uint8_t res = i2cIntCount;
    28dc:	4b02      	ldr	r3, [pc, #8]	; (28e8 <EXT_I2C_IRQ_isReady+0xc>)
    28de:	7818      	ldrb	r0, [r3, #0]
	i2cIntCount = 0;
    28e0:	2200      	movs	r2, #0
    28e2:	701a      	strb	r2, [r3, #0]
}
    28e4:	4770      	bx	lr
    28e6:	46c0      	nop			; (mov r8, r8)
    28e8:	20000e09 	.word	0x20000e09

000028ec <rf_isReady>:
bool rf_isReady(){
    28ec:	b510      	push	{r4, lr}
	if (int_count != 0){
    28ee:	4b09      	ldr	r3, [pc, #36]	; (2914 <rf_isReady+0x28>)
    28f0:	781b      	ldrb	r3, [r3, #0]
    28f2:	2b00      	cmp	r3, #0
    28f4:	d101      	bne.n	28fa <rf_isReady+0xe>
	return false;
    28f6:	2000      	movs	r0, #0
}
    28f8:	bd10      	pop	{r4, pc}
		ptr_rfHeader = data_ready();
    28fa:	f000 fdbf 	bl	347c <data_ready>
    28fe:	4b06      	ldr	r3, [pc, #24]	; (2918 <rf_isReady+0x2c>)
    2900:	6018      	str	r0, [r3, #0]
		int_count = 0;
    2902:	2200      	movs	r2, #0
    2904:	4b03      	ldr	r3, [pc, #12]	; (2914 <rf_isReady+0x28>)
    2906:	701a      	strb	r2, [r3, #0]
		return (ptr_rfHeader->dataValid == 0 ) ? false : true;
    2908:	7980      	ldrb	r0, [r0, #6]
    290a:	1e43      	subs	r3, r0, #1
    290c:	4198      	sbcs	r0, r3
    290e:	b2c0      	uxtb	r0, r0
    2910:	e7f2      	b.n	28f8 <rf_isReady+0xc>
    2912:	46c0      	nop			; (mov r8, r8)
    2914:	20000e0a 	.word	0x20000e0a
    2918:	20000ed8 	.word	0x20000ed8

0000291c <rfMsgType>:
	return ptr_rfHeader;
    291c:	4b01      	ldr	r3, [pc, #4]	; (2924 <rfMsgType+0x8>)
    291e:	6818      	ldr	r0, [r3, #0]
}
    2920:	4770      	bx	lr
    2922:	46c0      	nop			; (mov r8, r8)
    2924:	20000ed8 	.word	0x20000ed8

00002928 <RFM69_ReadBuff>:
	io_write(rf_spi, &addr, 1);
	io_read(rf_spi,&addr,1);
	return addr;
}

void RFM69_ReadBuff(uint8_t* buff, uint16_t len){
    2928:	b510      	push	{r4, lr}
    292a:	0003      	movs	r3, r0
    292c:	000a      	movs	r2, r1
	io_read(rf_spi,buff,len);
    292e:	4903      	ldr	r1, [pc, #12]	; (293c <RFM69_ReadBuff+0x14>)
    2930:	6808      	ldr	r0, [r1, #0]
    2932:	0019      	movs	r1, r3
    2934:	f7fe ff2e 	bl	1794 <io_read>
}
    2938:	bd10      	pop	{r4, pc}
    293a:	46c0      	nop			; (mov r8, r8)
    293c:	20000e84 	.word	0x20000e84

00002940 <RFM69_WriteBuff>:

void RFM69_WriteBuff(uint8_t* buff, uint16_t len){
    2940:	b510      	push	{r4, lr}
    2942:	0003      	movs	r3, r0
    2944:	000a      	movs	r2, r1
	io_write(rf_spi,buff,len);
    2946:	4903      	ldr	r1, [pc, #12]	; (2954 <RFM69_WriteBuff+0x14>)
    2948:	6808      	ldr	r0, [r1, #0]
    294a:	0019      	movs	r1, r3
    294c:	f7fe ff08 	bl	1760 <io_write>
}
    2950:	bd10      	pop	{r4, pc}
    2952:	46c0      	nop			; (mov r8, r8)
    2954:	20000e84 	.word	0x20000e84

00002958 <RFM_69_sel>:
/**
 * \brief Set output level on port with mask
 */
static inline void _gpio_set_level(const enum gpio_port port, const uint32_t mask, const bool level)
{
	if (level) {
    2958:	2800      	cmp	r0, #0
    295a:	d105      	bne.n	2968 <RFM_69_sel+0x10>
	((Port *)hw)->Group[submodule_index].OUTCLR.reg = mask;
    295c:	2280      	movs	r2, #128	; 0x80
    295e:	0552      	lsls	r2, r2, #21
    2960:	23c0      	movs	r3, #192	; 0xc0
    2962:	05db      	lsls	r3, r3, #23
    2964:	615a      	str	r2, [r3, #20]

void RFM_69_sel(bool arg){
	gpio_set_pin_level(RF_CS , arg);
}
    2966:	4770      	bx	lr
	((Port *)hw)->Group[submodule_index].OUTSET.reg = mask;
    2968:	2280      	movs	r2, #128	; 0x80
    296a:	0552      	lsls	r2, r2, #21
    296c:	23c0      	movs	r3, #192	; 0xc0
    296e:	05db      	lsls	r3, r3, #23
    2970:	619a      	str	r2, [r3, #24]
    2972:	e7f8      	b.n	2966 <RFM_69_sel+0xe>

00002974 <SPI_write>:





void SPI_write(uint8_t arg){
    2974:	b500      	push	{lr}
    2976:	b083      	sub	sp, #12
    2978:	466b      	mov	r3, sp
    297a:	1dd9      	adds	r1, r3, #7
    297c:	7008      	strb	r0, [r1, #0]
	uint8_t *addr_ptr = &arg;
	//struct io_descriptor *io;
	//spi_m_sync_get_io_descriptor(&RF_SPI, &io); ///<<< EXP
	//spi_m_sync_enable(&RF_SPI);
	io_write(rf_spi, &arg, 1);	
    297e:	4b03      	ldr	r3, [pc, #12]	; (298c <SPI_write+0x18>)
    2980:	6818      	ldr	r0, [r3, #0]
    2982:	2201      	movs	r2, #1
    2984:	f7fe feec 	bl	1760 <io_write>
}
    2988:	b003      	add	sp, #12
    298a:	bd00      	pop	{pc}
    298c:	20000e84 	.word	0x20000e84

00002990 <SPI_read>:


uint8_t SPI_read(){
    2990:	b510      	push	{r4, lr}
    2992:	b082      	sub	sp, #8
	uint8_t data_byte = 0;
    2994:	466b      	mov	r3, sp
    2996:	1ddc      	adds	r4, r3, #7
    2998:	2300      	movs	r3, #0
    299a:	7023      	strb	r3, [r4, #0]
	//spi_m_sync_get_io_descriptor(&RF_SPI, &io); ///<<< EXP
	io_read(rf_spi,&data_byte,1);
    299c:	4b04      	ldr	r3, [pc, #16]	; (29b0 <SPI_read+0x20>)
    299e:	6818      	ldr	r0, [r3, #0]
    29a0:	2201      	movs	r2, #1
    29a2:	0021      	movs	r1, r4
    29a4:	f7fe fef6 	bl	1794 <io_read>
	return data_byte;
    29a8:	7820      	ldrb	r0, [r4, #0]
}
    29aa:	b002      	add	sp, #8
    29ac:	bd10      	pop	{r4, pc}
    29ae:	46c0      	nop			; (mov r8, r8)
    29b0:	20000e84 	.word	0x20000e84

000029b4 <EXT_SPI_init>:
	gpio_set_pin_level(LED_G, true);
}

//Display section
void EXT_SPI_init(void)
{
    29b4:	b5f8      	push	{r3, r4, r5, r6, r7, lr}
    29b6:	46de      	mov	lr, fp
    29b8:	4657      	mov	r7, sl
    29ba:	464e      	mov	r6, r9
    29bc:	4645      	mov	r5, r8
    29be:	b5e0      	push	{r5, r6, r7, lr}
			peripheral = (uint32_t)_pm_get_apbb_index(module);
			PM->APBBMASK.reg |= 1 << peripheral;
		}
		break;
	case PM_BUS_APBC:
		PM->APBCMASK.reg |= 1 << peripheral;
    29c0:	4a50      	ldr	r2, [pc, #320]	; (2b04 <EXT_SPI_init+0x150>)
    29c2:	6a13      	ldr	r3, [r2, #32]
    29c4:	2404      	movs	r4, #4
    29c6:	4323      	orrs	r3, r4
    29c8:	6213      	str	r3, [r2, #32]
	((Gclk *)hw)->CLKCTRL.reg = data;
    29ca:	4a4f      	ldr	r2, [pc, #316]	; (2b08 <EXT_SPI_init+0x154>)
    29cc:	4b4f      	ldr	r3, [pc, #316]	; (2b0c <EXT_SPI_init+0x158>)
    29ce:	805a      	strh	r2, [r3, #2]
	_pm_enable_bus_clock(PM_BUS_APBC, SERCOM0);
	_gclk_enable_channel(SERCOM0_GCLK_ID_CORE, CONF_GCLK_SERCOM0_CORE_SRC);
	
	
	spi_m_sync_init(&EXT_SPI, SERCOM0);
    29d0:	4d4f      	ldr	r5, [pc, #316]	; (2b10 <EXT_SPI_init+0x15c>)
    29d2:	4950      	ldr	r1, [pc, #320]	; (2b14 <EXT_SPI_init+0x160>)
    29d4:	0028      	movs	r0, r5
    29d6:	f7fe fef7 	bl	17c8 <spi_m_sync_init>
	spi_m_sync_get_io_descriptor(&EXT_SPI, &lcd_spi);
    29da:	494f      	ldr	r1, [pc, #316]	; (2b18 <EXT_SPI_init+0x164>)
    29dc:	0028      	movs	r0, r5
    29de:	f7fe ff7f 	bl	18e0 <spi_m_sync_get_io_descriptor>
	spi_m_sync_enable(&EXT_SPI);
    29e2:	0028      	movs	r0, r5
    29e4:	f7fe ff18 	bl	1818 <spi_m_sync_enable>
	((Port *)hw)->Group[submodule_index].OUTCLR.reg = mask;
    29e8:	22c0      	movs	r2, #192	; 0xc0
    29ea:	05d2      	lsls	r2, r2, #23
    29ec:	2310      	movs	r3, #16
    29ee:	6153      	str	r3, [r2, #20]
	((Port *)hw)->Group[submodule_index].DIRSET.reg = mask;
    29f0:	6093      	str	r3, [r2, #8]
	((Port *)hw)->Group[submodule_index].WRCONFIG.reg = data;
    29f2:	4b4a      	ldr	r3, [pc, #296]	; (2b1c <EXT_SPI_init+0x168>)
    29f4:	494a      	ldr	r1, [pc, #296]	; (2b20 <EXT_SPI_init+0x16c>)
    29f6:	6299      	str	r1, [r3, #40]	; 0x28
    29f8:	21c0      	movs	r1, #192	; 0xc0
    29fa:	0609      	lsls	r1, r1, #24
    29fc:	468b      	mov	fp, r1
    29fe:	6299      	str	r1, [r3, #40]	; 0x28
	tmp = ((Port *)hw)->Group[submodule_index].PINCFG[index].reg;
    2a00:	2644      	movs	r6, #68	; 0x44
    2a02:	5d98      	ldrb	r0, [r3, r6]
	tmp &= ~PORT_PINCFG_PMUXEN;
    2a04:	2101      	movs	r1, #1
    2a06:	4388      	bics	r0, r1
	tmp |= value << PORT_PINCFG_PMUXEN_Pos;
    2a08:	2501      	movs	r5, #1
    2a0a:	46a8      	mov	r8, r5
    2a0c:	4645      	mov	r5, r8
    2a0e:	4328      	orrs	r0, r5
    2a10:	b2c0      	uxtb	r0, r0
	((Port *)hw)->Group[submodule_index].PINCFG[index].reg = tmp;
    2a12:	5598      	strb	r0, [r3, r6]
	tmp = ((Port *)hw)->Group[submodule_index].PMUX[index].reg;
    2a14:	3e12      	subs	r6, #18
    2a16:	5d98      	ldrb	r0, [r3, r6]
	tmp &= ~PORT_PMUX_PMUXE_Msk;
    2a18:	250f      	movs	r5, #15
    2a1a:	46ac      	mov	ip, r5
    2a1c:	43a8      	bics	r0, r5
	tmp |= PORT_PMUX_PMUXE(data);
    2a1e:	2703      	movs	r7, #3
    2a20:	4338      	orrs	r0, r7
    2a22:	b2c0      	uxtb	r0, r0
	((Port *)hw)->Group[submodule_index].PMUX[index].reg = tmp;
    2a24:	5598      	strb	r0, [r3, r6]
	((Port *)hw)->Group[submodule_index].OUTCLR.reg = mask;
    2a26:	2020      	movs	r0, #32
    2a28:	6150      	str	r0, [r2, #20]
	((Port *)hw)->Group[submodule_index].DIRSET.reg = mask;
    2a2a:	6090      	str	r0, [r2, #8]
	((Port *)hw)->Group[submodule_index].WRCONFIG.reg = data;
    2a2c:	483d      	ldr	r0, [pc, #244]	; (2b24 <EXT_SPI_init+0x170>)
    2a2e:	6298      	str	r0, [r3, #40]	; 0x28
    2a30:	4658      	mov	r0, fp
    2a32:	6298      	str	r0, [r3, #40]	; 0x28
	tmp = ((Port *)hw)->Group[submodule_index].PINCFG[index].reg;
    2a34:	2045      	movs	r0, #69	; 0x45
    2a36:	4681      	mov	r9, r0
    2a38:	5c18      	ldrb	r0, [r3, r0]
	tmp &= ~PORT_PINCFG_PMUXEN;
    2a3a:	4388      	bics	r0, r1
	tmp |= value << PORT_PINCFG_PMUXEN_Pos;
    2a3c:	4645      	mov	r5, r8
    2a3e:	4328      	orrs	r0, r5
    2a40:	b2c0      	uxtb	r0, r0
	((Port *)hw)->Group[submodule_index].PINCFG[index].reg = tmp;
    2a42:	464d      	mov	r5, r9
    2a44:	5558      	strb	r0, [r3, r5]
	tmp = ((Port *)hw)->Group[submodule_index].PMUX[index].reg;
    2a46:	5d98      	ldrb	r0, [r3, r6]
	tmp &= ~PORT_PMUX_PMUXO_Msk;
    2a48:	3d36      	subs	r5, #54	; 0x36
    2a4a:	4028      	ands	r0, r5
	tmp |= PORT_PMUX_PMUXO(data);
    2a4c:	2530      	movs	r5, #48	; 0x30
    2a4e:	46a9      	mov	r9, r5
    2a50:	464d      	mov	r5, r9
    2a52:	4328      	orrs	r0, r5
    2a54:	b2c0      	uxtb	r0, r0
	((Port *)hw)->Group[submodule_index].PMUX[index].reg = tmp;
    2a56:	5598      	strb	r0, [r3, r6]
	((Port *)hw)->Group[submodule_index].DIRCLR.reg = mask;
    2a58:	360e      	adds	r6, #14
    2a5a:	6056      	str	r6, [r2, #4]
	((Port *)hw)->Group[submodule_index].WRCONFIG.reg = data;
    2a5c:	4832      	ldr	r0, [pc, #200]	; (2b28 <EXT_SPI_init+0x174>)
    2a5e:	6298      	str	r0, [r3, #40]	; 0x28
    2a60:	4832      	ldr	r0, [pc, #200]	; (2b2c <EXT_SPI_init+0x178>)
    2a62:	6298      	str	r0, [r3, #40]	; 0x28
	((Port *)hw)->Group[submodule_index].PINCFG[index].reg &= ~PORT_PINCFG_PULLEN;
    2a64:	2046      	movs	r0, #70	; 0x46
    2a66:	5c1d      	ldrb	r5, [r3, r0]
    2a68:	43a5      	bics	r5, r4
    2a6a:	541d      	strb	r5, [r3, r0]
	tmp = ((Port *)hw)->Group[submodule_index].PINCFG[index].reg;
    2a6c:	5c1c      	ldrb	r4, [r3, r0]
	tmp &= ~PORT_PINCFG_PMUXEN;
    2a6e:	438c      	bics	r4, r1
	tmp |= value << PORT_PINCFG_PMUXEN_Pos;
    2a70:	4645      	mov	r5, r8
    2a72:	432c      	orrs	r4, r5
    2a74:	b2e4      	uxtb	r4, r4
	((Port *)hw)->Group[submodule_index].PINCFG[index].reg = tmp;
    2a76:	541c      	strb	r4, [r3, r0]
	tmp = ((Port *)hw)->Group[submodule_index].PMUX[index].reg;
    2a78:	2433      	movs	r4, #51	; 0x33
    2a7a:	5d18      	ldrb	r0, [r3, r4]
	tmp &= ~PORT_PMUX_PMUXE_Msk;
    2a7c:	4665      	mov	r5, ip
    2a7e:	43a8      	bics	r0, r5
	tmp |= PORT_PMUX_PMUXE(data);
    2a80:	4338      	orrs	r0, r7
    2a82:	b2c0      	uxtb	r0, r0
	((Port *)hw)->Group[submodule_index].PMUX[index].reg = tmp;
    2a84:	5518      	strb	r0, [r3, r4]
	((Port *)hw)->Group[submodule_index].OUTSET.reg = mask;
    2a86:	2080      	movs	r0, #128	; 0x80
    2a88:	6190      	str	r0, [r2, #24]
    2a8a:	3465      	adds	r4, #101	; 0x65
    2a8c:	5116      	str	r6, [r2, r4]
    2a8e:	6190      	str	r0, [r2, #24]
	((Port *)hw)->Group[submodule_index].DIRSET.reg = mask;
    2a90:	6090      	str	r0, [r2, #8]
	((Port *)hw)->Group[submodule_index].WRCONFIG.reg = data;
    2a92:	4c27      	ldr	r4, [pc, #156]	; (2b30 <EXT_SPI_init+0x17c>)
    2a94:	46a0      	mov	r8, r4
    2a96:	629c      	str	r4, [r3, #40]	; 0x28
    2a98:	465c      	mov	r4, fp
    2a9a:	629c      	str	r4, [r3, #40]	; 0x28
	tmp = ((Port *)hw)->Group[submodule_index].PINCFG[index].reg;
    2a9c:	2447      	movs	r4, #71	; 0x47
    2a9e:	5d1d      	ldrb	r5, [r3, r4]
	tmp &= ~PORT_PINCFG_PMUXEN;
    2aa0:	438d      	bics	r5, r1
	((Port *)hw)->Group[submodule_index].PINCFG[index].reg = tmp;
    2aa2:	551d      	strb	r5, [r3, r4]
	((Port *)hw)->Group[submodule_index].OUTSET.reg = mask;
    2aa4:	2598      	movs	r5, #152	; 0x98
    2aa6:	5156      	str	r6, [r2, r5]
	((Port *)hw)->Group[submodule_index].DIRSET.reg = mask;
    2aa8:	3d10      	subs	r5, #16
    2aaa:	46a9      	mov	r9, r5
    2aac:	5156      	str	r6, [r2, r5]
	((Port *)hw)->Group[submodule_index].WRCONFIG.reg = data;
    2aae:	3668      	adds	r6, #104	; 0x68
    2ab0:	4d20      	ldr	r5, [pc, #128]	; (2b34 <EXT_SPI_init+0x180>)
    2ab2:	519d      	str	r5, [r3, r6]
    2ab4:	465d      	mov	r5, fp
    2ab6:	519d      	str	r5, [r3, r6]
	tmp = ((Port *)hw)->Group[submodule_index].PINCFG[index].reg;
    2ab8:	25c6      	movs	r5, #198	; 0xc6
    2aba:	46aa      	mov	sl, r5
    2abc:	5d5d      	ldrb	r5, [r3, r5]
	tmp &= ~PORT_PINCFG_PMUXEN;
    2abe:	438d      	bics	r5, r1
    2ac0:	46ac      	mov	ip, r5
	((Port *)hw)->Group[submodule_index].PINCFG[index].reg = tmp;
    2ac2:	4655      	mov	r5, sl
    2ac4:	4667      	mov	r7, ip
    2ac6:	555f      	strb	r7, [r3, r5]
	((Port *)hw)->Group[submodule_index].OUTSET.reg = mask;
    2ac8:	353b      	adds	r5, #59	; 0x3b
    2aca:	35ff      	adds	r5, #255	; 0xff
    2acc:	46ac      	mov	ip, r5
    2ace:	2798      	movs	r7, #152	; 0x98
    2ad0:	51d5      	str	r5, [r2, r7]
	((Port *)hw)->Group[submodule_index].DIRSET.reg = mask;
    2ad2:	464d      	mov	r5, r9
    2ad4:	4667      	mov	r7, ip
    2ad6:	5157      	str	r7, [r2, r5]
	((Port *)hw)->Group[submodule_index].WRCONFIG.reg = data;
    2ad8:	4f17      	ldr	r7, [pc, #92]	; (2b38 <EXT_SPI_init+0x184>)
    2ada:	519f      	str	r7, [r3, r6]
    2adc:	465d      	mov	r5, fp
    2ade:	519d      	str	r5, [r3, r6]
	tmp = ((Port *)hw)->Group[submodule_index].PINCFG[index].reg;
    2ae0:	27c9      	movs	r7, #201	; 0xc9
    2ae2:	5dde      	ldrb	r6, [r3, r7]
	tmp &= ~PORT_PINCFG_PMUXEN;
    2ae4:	438e      	bics	r6, r1
	((Port *)hw)->Group[submodule_index].PINCFG[index].reg = tmp;
    2ae6:	55de      	strb	r6, [r3, r7]
	((Port *)hw)->Group[submodule_index].OUTSET.reg = mask;
    2ae8:	6190      	str	r0, [r2, #24]
	((Port *)hw)->Group[submodule_index].DIRSET.reg = mask;
    2aea:	6090      	str	r0, [r2, #8]
	((Port *)hw)->Group[submodule_index].WRCONFIG.reg = data;
    2aec:	4642      	mov	r2, r8
    2aee:	629a      	str	r2, [r3, #40]	; 0x28
    2af0:	629d      	str	r5, [r3, #40]	; 0x28
	tmp = ((Port *)hw)->Group[submodule_index].PINCFG[index].reg;
    2af2:	5d1a      	ldrb	r2, [r3, r4]
	tmp &= ~PORT_PINCFG_PMUXEN;
    2af4:	438a      	bics	r2, r1
	((Port *)hw)->Group[submodule_index].PINCFG[index].reg = tmp;
    2af6:	551a      	strb	r2, [r3, r4]
	gpio_set_pin_direction(LCD_RST, GPIO_DIRECTION_OUT);
	gpio_set_pin_function(LCD_RST, GPIO_PIN_FUNCTION_OFF);
	
	
		
}
    2af8:	bc3c      	pop	{r2, r3, r4, r5}
    2afa:	4690      	mov	r8, r2
    2afc:	4699      	mov	r9, r3
    2afe:	46a2      	mov	sl, r4
    2b00:	46ab      	mov	fp, r5
    2b02:	bdf8      	pop	{r3, r4, r5, r6, r7, pc}
    2b04:	40000400 	.word	0x40000400
    2b08:	0000400d 	.word	0x0000400d
    2b0c:	40000c00 	.word	0x40000c00
    2b10:	20000ec0 	.word	0x20000ec0
    2b14:	42000800 	.word	0x42000800
    2b18:	20000f14 	.word	0x20000f14
    2b1c:	41004400 	.word	0x41004400
    2b20:	40000010 	.word	0x40000010
    2b24:	40000020 	.word	0x40000020
    2b28:	40020040 	.word	0x40020040
    2b2c:	c0020000 	.word	0xc0020000
    2b30:	40000080 	.word	0x40000080
    2b34:	40000040 	.word	0x40000040
    2b38:	40000200 	.word	0x40000200

00002b3c <vfd_write_data>:
void vfd_write_data(uint8_t* buff, uint16_t len){
    2b3c:	b510      	push	{r4, lr}
    2b3e:	0003      	movs	r3, r0
    2b40:	000a      	movs	r2, r1
	io_write(lcd_spi, buff, len);
    2b42:	4903      	ldr	r1, [pc, #12]	; (2b50 <vfd_write_data+0x14>)
    2b44:	6808      	ldr	r0, [r1, #0]
    2b46:	0019      	movs	r1, r3
    2b48:	f7fe fe0a 	bl	1760 <io_write>
	
}
    2b4c:	bd10      	pop	{r4, pc}
    2b4e:	46c0      	nop			; (mov r8, r8)
    2b50:	20000f14 	.word	0x20000f14

00002b54 <vfd_cs_set>:

void vfd_cs_set(bool state){
	gpio_set_pin_level(VFD_CS, !state);
    2b54:	2301      	movs	r3, #1
    2b56:	4058      	eors	r0, r3
    2b58:	b2c0      	uxtb	r0, r0
    2b5a:	2800      	cmp	r0, #0
    2b5c:	d106      	bne.n	2b6c <vfd_cs_set+0x18>
	((Port *)hw)->Group[submodule_index].OUTCLR.reg = mask;
    2b5e:	2180      	movs	r1, #128	; 0x80
    2b60:	0089      	lsls	r1, r1, #2
    2b62:	2394      	movs	r3, #148	; 0x94
    2b64:	22c0      	movs	r2, #192	; 0xc0
    2b66:	05d2      	lsls	r2, r2, #23
    2b68:	50d1      	str	r1, [r2, r3]
}
    2b6a:	4770      	bx	lr
	((Port *)hw)->Group[submodule_index].OUTSET.reg = mask;
    2b6c:	2180      	movs	r1, #128	; 0x80
    2b6e:	0089      	lsls	r1, r1, #2
    2b70:	2398      	movs	r3, #152	; 0x98
    2b72:	22c0      	movs	r2, #192	; 0xc0
    2b74:	05d2      	lsls	r2, r2, #23
    2b76:	50d1      	str	r1, [r2, r3]
    2b78:	e7f7      	b.n	2b6a <vfd_cs_set+0x16>

00002b7a <cmd_pin_handle>:
    2b7a:	2800      	cmp	r0, #0
    2b7c:	d105      	bne.n	2b8a <cmd_pin_handle+0x10>
	((Port *)hw)->Group[submodule_index].OUTCLR.reg = mask;
    2b7e:	2140      	movs	r1, #64	; 0x40
    2b80:	2394      	movs	r3, #148	; 0x94
    2b82:	22c0      	movs	r2, #192	; 0xc0
    2b84:	05d2      	lsls	r2, r2, #23
    2b86:	50d1      	str	r1, [r2, r3]

void cmd_pin_handle(bool state){
	gpio_set_pin_level(FILAMENT_EN, state);
}
    2b88:	4770      	bx	lr
	((Port *)hw)->Group[submodule_index].OUTSET.reg = mask;
    2b8a:	2140      	movs	r1, #64	; 0x40
    2b8c:	2398      	movs	r3, #152	; 0x98
    2b8e:	22c0      	movs	r2, #192	; 0xc0
    2b90:	05d2      	lsls	r2, r2, #23
    2b92:	50d1      	str	r1, [r2, r3]
    2b94:	e7f8      	b.n	2b88 <cmd_pin_handle+0xe>

00002b96 <u8x8_avr_gpio_and_delay>:
		break;
		default:
		return 0;
	}
	return 0;
}
    2b96:	2000      	movs	r0, #0
    2b98:	4770      	bx	lr
	...

00002b9c <vfd_spi>:
uint8_t vfd_spi(u8x8_t *u8x8, uint8_t msg, uint8_t arg_int, void *arg_ptr)
{
    2b9c:	b510      	push	{r4, lr}
	
	switch(msg)
    2b9e:	3914      	subs	r1, #20
    2ba0:	b2cc      	uxtb	r4, r1
    2ba2:	2c0c      	cmp	r4, #12
    2ba4:	d81f      	bhi.n	2be6 <vfd_spi+0x4a>
    2ba6:	00a1      	lsls	r1, r4, #2
    2ba8:	4810      	ldr	r0, [pc, #64]	; (2bec <vfd_spi+0x50>)
    2baa:	5841      	ldr	r1, [r0, r1]
    2bac:	468f      	mov	pc, r1
	{
		case U8X8_MSG_BYTE_SEND:
		vfd_write_data(arg_ptr, arg_int);
    2bae:	b291      	uxth	r1, r2
    2bb0:	0018      	movs	r0, r3
    2bb2:	f7ff ffc3 	bl	2b3c <vfd_write_data>
		vfd_cs_set(false);
		break;
		default:
		return 0;
	}
	return 1;
    2bb6:	2001      	movs	r0, #1
}
    2bb8:	bd10      	pop	{r4, pc}
		vfd_cs_set(false);
    2bba:	2000      	movs	r0, #0
    2bbc:	f7ff ffca 	bl	2b54 <vfd_cs_set>
	return 1;
    2bc0:	2001      	movs	r0, #1
		break;
    2bc2:	e7f9      	b.n	2bb8 <vfd_spi+0x1c>
		cmd_pin_handle(arg_int);
    2bc4:	1e51      	subs	r1, r2, #1
    2bc6:	418a      	sbcs	r2, r1
    2bc8:	b2d0      	uxtb	r0, r2
    2bca:	f7ff ffd6 	bl	2b7a <cmd_pin_handle>
	return 1;
    2bce:	2001      	movs	r0, #1
		break;
    2bd0:	e7f2      	b.n	2bb8 <vfd_spi+0x1c>
		vfd_cs_set(true);
    2bd2:	2001      	movs	r0, #1
    2bd4:	f7ff ffbe 	bl	2b54 <vfd_cs_set>
	return 1;
    2bd8:	2001      	movs	r0, #1
		break;
    2bda:	e7ed      	b.n	2bb8 <vfd_spi+0x1c>
		vfd_cs_set(false);
    2bdc:	2000      	movs	r0, #0
    2bde:	f7ff ffb9 	bl	2b54 <vfd_cs_set>
	return 1;
    2be2:	2001      	movs	r0, #1
		break;
    2be4:	e7e8      	b.n	2bb8 <vfd_spi+0x1c>
		return 0;
    2be6:	2000      	movs	r0, #0
    2be8:	e7e6      	b.n	2bb8 <vfd_spi+0x1c>
    2bea:	46c0      	nop			; (mov r8, r8)
    2bec:	0000b0f0 	.word	0x0000b0f0

00002bf0 <RF_HW_Reset>:
	RF_IRQ_Enable();
	
}


void RF_HW_Reset(void){
    2bf0:	b570      	push	{r4, r5, r6, lr}
    2bf2:	24c0      	movs	r4, #192	; 0xc0
    2bf4:	05e4      	lsls	r4, r4, #23
    2bf6:	2504      	movs	r5, #4
    2bf8:	61a5      	str	r5, [r4, #24]
	gpio_set_pin_level(RF_RST, true);
	delay_ms(1);
    2bfa:	2001      	movs	r0, #1
    2bfc:	f7fe fc78 	bl	14f0 <delay_ms>
	((Port *)hw)->Group[submodule_index].OUTCLR.reg = mask;
    2c00:	6165      	str	r5, [r4, #20]
	gpio_set_pin_level(RF_RST, false);
	delay_ms(20);
    2c02:	2014      	movs	r0, #20
    2c04:	f7fe fc74 	bl	14f0 <delay_ms>
}
    2c08:	bd70      	pop	{r4, r5, r6, pc}
	...

00002c0c <RF_SPI_init>:
void RF_SPI_init(void){
    2c0c:	b5f8      	push	{r3, r4, r5, r6, r7, lr}
    2c0e:	46de      	mov	lr, fp
    2c10:	4657      	mov	r7, sl
    2c12:	464e      	mov	r6, r9
    2c14:	4645      	mov	r5, r8
    2c16:	b5e0      	push	{r5, r6, r7, lr}
    2c18:	4a66      	ldr	r2, [pc, #408]	; (2db4 <RF_SPI_init+0x1a8>)
    2c1a:	6a13      	ldr	r3, [r2, #32]
    2c1c:	2108      	movs	r1, #8
    2c1e:	468b      	mov	fp, r1
    2c20:	430b      	orrs	r3, r1
    2c22:	6213      	str	r3, [r2, #32]
    2c24:	4a64      	ldr	r2, [pc, #400]	; (2db8 <RF_SPI_init+0x1ac>)
    2c26:	4b65      	ldr	r3, [pc, #404]	; (2dbc <RF_SPI_init+0x1b0>)
    2c28:	805a      	strh	r2, [r3, #2]
	spi_m_sync_init(&RF_SPI, SERCOM1);
    2c2a:	4c65      	ldr	r4, [pc, #404]	; (2dc0 <RF_SPI_init+0x1b4>)
    2c2c:	4965      	ldr	r1, [pc, #404]	; (2dc4 <RF_SPI_init+0x1b8>)
    2c2e:	0020      	movs	r0, r4
    2c30:	f7fe fdca 	bl	17c8 <spi_m_sync_init>
	spi_m_sync_get_io_descriptor(&RF_SPI, &rf_spi);
    2c34:	4964      	ldr	r1, [pc, #400]	; (2dc8 <RF_SPI_init+0x1bc>)
    2c36:	0020      	movs	r0, r4
    2c38:	f7fe fe52 	bl	18e0 <spi_m_sync_get_io_descriptor>
	spi_m_sync_enable(&RF_SPI);
    2c3c:	0020      	movs	r0, r4
    2c3e:	f7fe fdeb 	bl	1818 <spi_m_sync_enable>
    2c42:	25c0      	movs	r5, #192	; 0xc0
    2c44:	05ed      	lsls	r5, r5, #23
    2c46:	2601      	movs	r6, #1
    2c48:	616e      	str	r6, [r5, #20]
	((Port *)hw)->Group[submodule_index].DIRSET.reg = mask;
    2c4a:	60ae      	str	r6, [r5, #8]
	((Port *)hw)->Group[submodule_index].WRCONFIG.reg = data;
    2c4c:	4c5f      	ldr	r4, [pc, #380]	; (2dcc <RF_SPI_init+0x1c0>)
    2c4e:	4b60      	ldr	r3, [pc, #384]	; (2dd0 <RF_SPI_init+0x1c4>)
    2c50:	62a3      	str	r3, [r4, #40]	; 0x28
    2c52:	27c0      	movs	r7, #192	; 0xc0
    2c54:	063f      	lsls	r7, r7, #24
    2c56:	62a7      	str	r7, [r4, #40]	; 0x28
	tmp = ((Port *)hw)->Group[submodule_index].PINCFG[index].reg;
    2c58:	2240      	movs	r2, #64	; 0x40
    2c5a:	5ca3      	ldrb	r3, [r4, r2]
	tmp &= ~PORT_PINCFG_PMUXEN;
    2c5c:	43b3      	bics	r3, r6
	tmp |= value << PORT_PINCFG_PMUXEN_Pos;
    2c5e:	2101      	movs	r1, #1
    2c60:	4688      	mov	r8, r1
    2c62:	4641      	mov	r1, r8
    2c64:	430b      	orrs	r3, r1
    2c66:	b2db      	uxtb	r3, r3
	((Port *)hw)->Group[submodule_index].PINCFG[index].reg = tmp;
    2c68:	54a3      	strb	r3, [r4, r2]
	tmp = ((Port *)hw)->Group[submodule_index].PMUX[index].reg;
    2c6a:	3a10      	subs	r2, #16
    2c6c:	5ca3      	ldrb	r3, [r4, r2]
	tmp &= ~PORT_PMUX_PMUXE_Msk;
    2c6e:	210f      	movs	r1, #15
    2c70:	468a      	mov	sl, r1
    2c72:	438b      	bics	r3, r1
	tmp |= PORT_PMUX_PMUXE(data);
    2c74:	2103      	movs	r1, #3
    2c76:	430b      	orrs	r3, r1
    2c78:	b2db      	uxtb	r3, r3
	((Port *)hw)->Group[submodule_index].PMUX[index].reg = tmp;
    2c7a:	54a3      	strb	r3, [r4, r2]
	((Port *)hw)->Group[submodule_index].OUTCLR.reg = mask;
    2c7c:	2302      	movs	r3, #2
    2c7e:	616b      	str	r3, [r5, #20]
	((Port *)hw)->Group[submodule_index].DIRSET.reg = mask;
    2c80:	60ab      	str	r3, [r5, #8]
	((Port *)hw)->Group[submodule_index].WRCONFIG.reg = data;
    2c82:	4b54      	ldr	r3, [pc, #336]	; (2dd4 <RF_SPI_init+0x1c8>)
    2c84:	62a3      	str	r3, [r4, #40]	; 0x28
    2c86:	62a7      	str	r7, [r4, #40]	; 0x28
	tmp = ((Port *)hw)->Group[submodule_index].PINCFG[index].reg;
    2c88:	2141      	movs	r1, #65	; 0x41
    2c8a:	5c63      	ldrb	r3, [r4, r1]
	tmp &= ~PORT_PINCFG_PMUXEN;
    2c8c:	43b3      	bics	r3, r6
	tmp |= value << PORT_PINCFG_PMUXEN_Pos;
    2c8e:	4640      	mov	r0, r8
    2c90:	4303      	orrs	r3, r0
    2c92:	b2db      	uxtb	r3, r3
	((Port *)hw)->Group[submodule_index].PINCFG[index].reg = tmp;
    2c94:	5463      	strb	r3, [r4, r1]
	tmp = ((Port *)hw)->Group[submodule_index].PMUX[index].reg;
    2c96:	5ca3      	ldrb	r3, [r4, r2]
	tmp &= ~PORT_PMUX_PMUXO_Msk;
    2c98:	3932      	subs	r1, #50	; 0x32
    2c9a:	400b      	ands	r3, r1
	tmp |= PORT_PMUX_PMUXO(data);
    2c9c:	2130      	movs	r1, #48	; 0x30
    2c9e:	430b      	orrs	r3, r1
    2ca0:	b2db      	uxtb	r3, r3
	((Port *)hw)->Group[submodule_index].PMUX[index].reg = tmp;
    2ca2:	54a3      	strb	r3, [r4, r2]
	((Port *)hw)->Group[submodule_index].DIRCLR.reg = mask;
    2ca4:	2380      	movs	r3, #128	; 0x80
    2ca6:	02db      	lsls	r3, r3, #11
    2ca8:	606b      	str	r3, [r5, #4]
	((Port *)hw)->Group[submodule_index].WRCONFIG.reg = data;
    2caa:	4b4b      	ldr	r3, [pc, #300]	; (2dd8 <RF_SPI_init+0x1cc>)
    2cac:	62a3      	str	r3, [r4, #40]	; 0x28
    2cae:	4b4b      	ldr	r3, [pc, #300]	; (2ddc <RF_SPI_init+0x1d0>)
    2cb0:	62a3      	str	r3, [r4, #40]	; 0x28
	((Port *)hw)->Group[submodule_index].PINCFG[index].reg &= ~PORT_PINCFG_PULLEN;
    2cb2:	3222      	adds	r2, #34	; 0x22
    2cb4:	5ca3      	ldrb	r3, [r4, r2]
    2cb6:	2104      	movs	r1, #4
    2cb8:	4689      	mov	r9, r1
    2cba:	438b      	bics	r3, r1
    2cbc:	54a3      	strb	r3, [r4, r2]
	tmp = ((Port *)hw)->Group[submodule_index].PINCFG[index].reg;
    2cbe:	5ca3      	ldrb	r3, [r4, r2]
	tmp &= ~PORT_PINCFG_PMUXEN;
    2cc0:	43b3      	bics	r3, r6
	tmp |= value << PORT_PINCFG_PMUXEN_Pos;
    2cc2:	4303      	orrs	r3, r0
    2cc4:	b2db      	uxtb	r3, r3
	((Port *)hw)->Group[submodule_index].PINCFG[index].reg = tmp;
    2cc6:	54a3      	strb	r3, [r4, r2]
	tmp = ((Port *)hw)->Group[submodule_index].PMUX[index].reg;
    2cc8:	3a19      	subs	r2, #25
    2cca:	5ca3      	ldrb	r3, [r4, r2]
	tmp &= ~PORT_PMUX_PMUXE_Msk;
    2ccc:	4651      	mov	r1, sl
    2cce:	438b      	bics	r3, r1
	tmp |= PORT_PMUX_PMUXE(data);
    2cd0:	2102      	movs	r1, #2
    2cd2:	430b      	orrs	r3, r1
    2cd4:	b2db      	uxtb	r3, r3
	((Port *)hw)->Group[submodule_index].PMUX[index].reg = tmp;
    2cd6:	54a3      	strb	r3, [r4, r2]
	((Port *)hw)->Group[submodule_index].OUTCLR.reg = mask;
    2cd8:	464b      	mov	r3, r9
    2cda:	616b      	str	r3, [r5, #20]
	((Port *)hw)->Group[submodule_index].DIRSET.reg = mask;
    2cdc:	60ab      	str	r3, [r5, #8]
	((Port *)hw)->Group[submodule_index].WRCONFIG.reg = data;
    2cde:	4b40      	ldr	r3, [pc, #256]	; (2de0 <RF_SPI_init+0x1d4>)
    2ce0:	62a3      	str	r3, [r4, #40]	; 0x28
    2ce2:	62a7      	str	r7, [r4, #40]	; 0x28
	tmp = ((Port *)hw)->Group[submodule_index].PINCFG[index].reg;
    2ce4:	3209      	adds	r2, #9
    2ce6:	5ca3      	ldrb	r3, [r4, r2]
	tmp &= ~PORT_PINCFG_PMUXEN;
    2ce8:	43b3      	bics	r3, r6
	((Port *)hw)->Group[submodule_index].PINCFG[index].reg = tmp;
    2cea:	54a3      	strb	r3, [r4, r2]
	RF_HW_Reset();
    2cec:	f7ff ff80 	bl	2bf0 <RF_HW_Reset>
	((Port *)hw)->Group[submodule_index].OUTSET.reg = mask;
    2cf0:	2380      	movs	r3, #128	; 0x80
    2cf2:	055b      	lsls	r3, r3, #21
    2cf4:	61ab      	str	r3, [r5, #24]
	((Port *)hw)->Group[submodule_index].DIRSET.reg = mask;
    2cf6:	60ab      	str	r3, [r5, #8]
	((Port *)hw)->Group[submodule_index].WRCONFIG.reg = data;
    2cf8:	2280      	movs	r2, #128	; 0x80
    2cfa:	05d2      	lsls	r2, r2, #23
    2cfc:	62a2      	str	r2, [r4, #40]	; 0x28
    2cfe:	4b39      	ldr	r3, [pc, #228]	; (2de4 <RF_SPI_init+0x1d8>)
    2d00:	62a3      	str	r3, [r4, #40]	; 0x28
	tmp = ((Port *)hw)->Group[submodule_index].PINCFG[index].reg;
    2d02:	215c      	movs	r1, #92	; 0x5c
    2d04:	5c63      	ldrb	r3, [r4, r1]
	tmp &= ~PORT_PINCFG_PMUXEN;
    2d06:	43b3      	bics	r3, r6
	((Port *)hw)->Group[submodule_index].PINCFG[index].reg = tmp;
    2d08:	5463      	strb	r3, [r4, r1]
	((Port *)hw)->Group[submodule_index].OUTSET.reg = mask;
    2d0a:	2380      	movs	r3, #128	; 0x80
    2d0c:	041b      	lsls	r3, r3, #16
    2d0e:	61ab      	str	r3, [r5, #24]
	((Port *)hw)->Group[submodule_index].DIRSET.reg = mask;
    2d10:	60ab      	str	r3, [r5, #8]
	((Port *)hw)->Group[submodule_index].WRCONFIG.reg = data;
    2d12:	62a2      	str	r2, [r4, #40]	; 0x28
    2d14:	4b34      	ldr	r3, [pc, #208]	; (2de8 <RF_SPI_init+0x1dc>)
    2d16:	62a3      	str	r3, [r4, #40]	; 0x28
	tmp = ((Port *)hw)->Group[submodule_index].PINCFG[index].reg;
    2d18:	3905      	subs	r1, #5
    2d1a:	5c63      	ldrb	r3, [r4, r1]
	tmp &= ~PORT_PINCFG_PMUXEN;
    2d1c:	43b3      	bics	r3, r6
	((Port *)hw)->Group[submodule_index].PINCFG[index].reg = tmp;
    2d1e:	5463      	strb	r3, [r4, r1]
	((Port *)hw)->Group[submodule_index].OUTCLR.reg = mask;
    2d20:	465b      	mov	r3, fp
    2d22:	616b      	str	r3, [r5, #20]
	((Port *)hw)->Group[submodule_index].DIRSET.reg = mask;
    2d24:	60ab      	str	r3, [r5, #8]
	((Port *)hw)->Group[submodule_index].WRCONFIG.reg = data;
    2d26:	4b31      	ldr	r3, [pc, #196]	; (2dec <RF_SPI_init+0x1e0>)
    2d28:	62a3      	str	r3, [r4, #40]	; 0x28
    2d2a:	62a7      	str	r7, [r4, #40]	; 0x28
	tmp = ((Port *)hw)->Group[submodule_index].PINCFG[index].reg;
    2d2c:	3914      	subs	r1, #20
    2d2e:	5c63      	ldrb	r3, [r4, r1]
	tmp &= ~PORT_PINCFG_PMUXEN;
    2d30:	43b3      	bics	r3, r6
	((Port *)hw)->Group[submodule_index].PINCFG[index].reg = tmp;
    2d32:	5463      	strb	r3, [r4, r1]
	((Port *)hw)->Group[submodule_index].OUTSET.reg = mask;
    2d34:	2310      	movs	r3, #16
    2d36:	3155      	adds	r1, #85	; 0x55
    2d38:	506b      	str	r3, [r5, r1]
	((Port *)hw)->Group[submodule_index].DIRSET.reg = mask;
    2d3a:	3910      	subs	r1, #16
    2d3c:	506b      	str	r3, [r5, r1]
	((Port *)hw)->Group[submodule_index].WRCONFIG.reg = data;
    2d3e:	3398      	adds	r3, #152	; 0x98
    2d40:	492b      	ldr	r1, [pc, #172]	; (2df0 <RF_SPI_init+0x1e4>)
    2d42:	50e1      	str	r1, [r4, r3]
    2d44:	50e7      	str	r7, [r4, r3]
	tmp = ((Port *)hw)->Group[submodule_index].PINCFG[index].reg;
    2d46:	20c4      	movs	r0, #196	; 0xc4
    2d48:	5c21      	ldrb	r1, [r4, r0]
	tmp &= ~PORT_PINCFG_PMUXEN;
    2d4a:	43b1      	bics	r1, r6
	((Port *)hw)->Group[submodule_index].PINCFG[index].reg = tmp;
    2d4c:	5421      	strb	r1, [r4, r0]
	((Port *)hw)->Group[submodule_index].DIRCLR.reg = mask;
    2d4e:	2184      	movs	r1, #132	; 0x84
    2d50:	468c      	mov	ip, r1
    2d52:	3964      	subs	r1, #100	; 0x64
    2d54:	4660      	mov	r0, ip
    2d56:	5029      	str	r1, [r5, r0]
	((Port *)hw)->Group[submodule_index].WRCONFIG.reg = data;
    2d58:	4926      	ldr	r1, [pc, #152]	; (2df4 <RF_SPI_init+0x1e8>)
    2d5a:	50e1      	str	r1, [r4, r3]
    2d5c:	4926      	ldr	r1, [pc, #152]	; (2df8 <RF_SPI_init+0x1ec>)
    2d5e:	50e1      	str	r1, [r4, r3]
	((Port *)hw)->Group[submodule_index].PINCFG[index].reg &= ~PORT_PINCFG_PULLEN;
    2d60:	21c5      	movs	r1, #197	; 0xc5
    2d62:	5c67      	ldrb	r7, [r4, r1]
    2d64:	4648      	mov	r0, r9
    2d66:	4387      	bics	r7, r0
    2d68:	5467      	strb	r7, [r4, r1]
	tmp = ((Port *)hw)->Group[submodule_index].PINCFG[index].reg;
    2d6a:	5c67      	ldrb	r7, [r4, r1]
	tmp &= ~PORT_PINCFG_PMUXEN;
    2d6c:	43b7      	bics	r7, r6
	((Port *)hw)->Group[submodule_index].PINCFG[index].reg = tmp;
    2d6e:	5467      	strb	r7, [r4, r1]
	((Port *)hw)->Group[submodule_index].DIRCLR.reg = mask;
    2d70:	4661      	mov	r1, ip
    2d72:	506a      	str	r2, [r5, r1]
	((Port *)hw)->Group[submodule_index].WRCONFIG.reg = data;
    2d74:	4918      	ldr	r1, [pc, #96]	; (2dd8 <RF_SPI_init+0x1cc>)
    2d76:	50e1      	str	r1, [r4, r3]
    2d78:	4920      	ldr	r1, [pc, #128]	; (2dfc <RF_SPI_init+0x1f0>)
    2d7a:	50e1      	str	r1, [r4, r3]
	((Port *)hw)->Group[submodule_index].DIRCLR.reg = mask;
    2d7c:	4663      	mov	r3, ip
    2d7e:	50ea      	str	r2, [r5, r3]
	((Port *)hw)->Group[submodule_index].PINCFG[index].reg |= PORT_PINCFG_PULLEN;
    2d80:	21de      	movs	r1, #222	; 0xde
    2d82:	5c63      	ldrb	r3, [r4, r1]
    2d84:	4303      	orrs	r3, r0
    2d86:	b2db      	uxtb	r3, r3
    2d88:	5463      	strb	r3, [r4, r1]
	((Port *)hw)->Group[submodule_index].OUTCLR.reg = mask;
    2d8a:	2394      	movs	r3, #148	; 0x94
    2d8c:	50ea      	str	r2, [r5, r3]
	tmp = ((Port *)hw)->Group[submodule_index].PINCFG[index].reg;
    2d8e:	5c63      	ldrb	r3, [r4, r1]
	tmp &= ~PORT_PINCFG_PMUXEN;
    2d90:	43b3      	bics	r3, r6
	tmp |= value << PORT_PINCFG_PMUXEN_Pos;
    2d92:	4642      	mov	r2, r8
    2d94:	4313      	orrs	r3, r2
    2d96:	b2db      	uxtb	r3, r3
	((Port *)hw)->Group[submodule_index].PINCFG[index].reg = tmp;
    2d98:	5463      	strb	r3, [r4, r1]
	tmp = ((Port *)hw)->Group[submodule_index].PMUX[index].reg;
    2d9a:	22bf      	movs	r2, #191	; 0xbf
    2d9c:	5ca3      	ldrb	r3, [r4, r2]
	tmp &= ~PORT_PMUX_PMUXE_Msk;
    2d9e:	4651      	mov	r1, sl
    2da0:	438b      	bics	r3, r1
	((Port *)hw)->Group[submodule_index].PMUX[index].reg = tmp;
    2da2:	54a3      	strb	r3, [r4, r2]
	RF_IRQ_Enable();
    2da4:	f7ff fd74 	bl	2890 <RF_IRQ_Enable>
}
    2da8:	bc3c      	pop	{r2, r3, r4, r5}
    2daa:	4690      	mov	r8, r2
    2dac:	4699      	mov	r9, r3
    2dae:	46a2      	mov	sl, r4
    2db0:	46ab      	mov	fp, r5
    2db2:	bdf8      	pop	{r3, r4, r5, r6, r7, pc}
    2db4:	40000400 	.word	0x40000400
    2db8:	0000400e 	.word	0x0000400e
    2dbc:	40000c00 	.word	0x40000c00
    2dc0:	20000e88 	.word	0x20000e88
    2dc4:	42000c00 	.word	0x42000c00
    2dc8:	20000e84 	.word	0x20000e84
    2dcc:	41004400 	.word	0x41004400
    2dd0:	40000001 	.word	0x40000001
    2dd4:	40000002 	.word	0x40000002
    2dd8:	40020000 	.word	0x40020000
    2ddc:	c0020004 	.word	0xc0020004
    2de0:	40000004 	.word	0x40000004
    2de4:	c0001000 	.word	0xc0001000
    2de8:	c0000080 	.word	0xc0000080
    2dec:	40000008 	.word	0x40000008
    2df0:	40000010 	.word	0x40000010
    2df4:	40020020 	.word	0x40020020
    2df8:	c0020000 	.word	0xc0020000
    2dfc:	c0024000 	.word	0xc0024000

00002e00 <EXT_I2C_init>:

//External I2C port


void EXT_I2C_init(void)
{
    2e00:	b5f0      	push	{r4, r5, r6, r7, lr}
    2e02:	46c6      	mov	lr, r8
    2e04:	b500      	push	{lr}
    2e06:	4a30      	ldr	r2, [pc, #192]	; (2ec8 <EXT_I2C_init+0xc8>)
    2e08:	6a13      	ldr	r3, [r2, #32]
    2e0a:	2140      	movs	r1, #64	; 0x40
    2e0c:	430b      	orrs	r3, r1
    2e0e:	6213      	str	r3, [r2, #32]
    2e10:	4b2e      	ldr	r3, [pc, #184]	; (2ecc <EXT_I2C_init+0xcc>)
    2e12:	4a2f      	ldr	r2, [pc, #188]	; (2ed0 <EXT_I2C_init+0xd0>)
    2e14:	805a      	strh	r2, [r3, #2]
    2e16:	4a2f      	ldr	r2, [pc, #188]	; (2ed4 <EXT_I2C_init+0xd4>)
    2e18:	805a      	strh	r2, [r3, #2]
	_pm_enable_bus_clock(PM_BUS_APBC, SERCOM4);
	_gclk_enable_channel(SERCOM4_GCLK_ID_CORE, CONF_GCLK_SERCOM4_CORE_SRC);
	_gclk_enable_channel(SERCOM4_GCLK_ID_SLOW, CONF_GCLK_SERCOM4_SLOW_SRC);
	
	i2c_m_sync_init(&EXT_I2C, SERCOM4);
    2e1a:	4d2f      	ldr	r5, [pc, #188]	; (2ed8 <EXT_I2C_init+0xd8>)
    2e1c:	492f      	ldr	r1, [pc, #188]	; (2edc <EXT_I2C_init+0xdc>)
    2e1e:	0028      	movs	r0, r5
    2e20:	f7fe fc4e 	bl	16c0 <i2c_m_sync_init>
	((Port *)hw)->Group[submodule_index].PINCFG[index].reg &= ~PORT_PINCFG_PULLEN;
    2e24:	4c2e      	ldr	r4, [pc, #184]	; (2ee0 <EXT_I2C_init+0xe0>)
    2e26:	22cc      	movs	r2, #204	; 0xcc
    2e28:	5ca3      	ldrb	r3, [r4, r2]
    2e2a:	2104      	movs	r1, #4
    2e2c:	438b      	bics	r3, r1
    2e2e:	54a3      	strb	r3, [r4, r2]
	tmp = ((Port *)hw)->Group[submodule_index].PINCFG[index].reg;
    2e30:	5ca3      	ldrb	r3, [r4, r2]
	tmp &= ~PORT_PINCFG_PMUXEN;
    2e32:	2001      	movs	r0, #1
    2e34:	4680      	mov	r8, r0
    2e36:	4383      	bics	r3, r0
	tmp |= value << PORT_PINCFG_PMUXEN_Pos;
    2e38:	2701      	movs	r7, #1
    2e3a:	433b      	orrs	r3, r7
    2e3c:	b2db      	uxtb	r3, r3
	((Port *)hw)->Group[submodule_index].PINCFG[index].reg = tmp;
    2e3e:	54a3      	strb	r3, [r4, r2]
	tmp = ((Port *)hw)->Group[submodule_index].PMUX[index].reg;
    2e40:	3a16      	subs	r2, #22
    2e42:	5ca3      	ldrb	r3, [r4, r2]
	tmp &= ~PORT_PMUX_PMUXE_Msk;
    2e44:	260f      	movs	r6, #15
    2e46:	43b3      	bics	r3, r6
	tmp |= PORT_PMUX_PMUXE(data);
    2e48:	2002      	movs	r0, #2
    2e4a:	4303      	orrs	r3, r0
    2e4c:	b2db      	uxtb	r3, r3
	((Port *)hw)->Group[submodule_index].PMUX[index].reg = tmp;
    2e4e:	54a3      	strb	r3, [r4, r2]
	((Port *)hw)->Group[submodule_index].PINCFG[index].reg &= ~PORT_PINCFG_PULLEN;
    2e50:	20cd      	movs	r0, #205	; 0xcd
    2e52:	5c23      	ldrb	r3, [r4, r0]
    2e54:	438b      	bics	r3, r1
    2e56:	5423      	strb	r3, [r4, r0]
	tmp = ((Port *)hw)->Group[submodule_index].PINCFG[index].reg;
    2e58:	5c23      	ldrb	r3, [r4, r0]
	tmp &= ~PORT_PINCFG_PMUXEN;
    2e5a:	4641      	mov	r1, r8
    2e5c:	438b      	bics	r3, r1
	tmp |= value << PORT_PINCFG_PMUXEN_Pos;
    2e5e:	433b      	orrs	r3, r7
    2e60:	b2db      	uxtb	r3, r3
	((Port *)hw)->Group[submodule_index].PINCFG[index].reg = tmp;
    2e62:	5423      	strb	r3, [r4, r0]
	tmp = ((Port *)hw)->Group[submodule_index].PMUX[index].reg;
    2e64:	5ca3      	ldrb	r3, [r4, r2]
	tmp &= ~PORT_PMUX_PMUXO_Msk;
    2e66:	310e      	adds	r1, #14
    2e68:	400b      	ands	r3, r1
	tmp |= PORT_PMUX_PMUXO(data);
    2e6a:	2120      	movs	r1, #32
    2e6c:	430b      	orrs	r3, r1
    2e6e:	b2db      	uxtb	r3, r3
	((Port *)hw)->Group[submodule_index].PMUX[index].reg = tmp;
    2e70:	54a3      	strb	r3, [r4, r2]
	gpio_set_pin_pull_mode(PB12, GPIO_PULL_OFF);
	gpio_set_pin_function(PB12, PINMUX_PB12C_SERCOM4_PAD0);
	gpio_set_pin_pull_mode(PB13, GPIO_PULL_OFF);
	gpio_set_pin_function(PB13, PINMUX_PB13C_SERCOM4_PAD1);
	
	i2c_m_sync_get_io_descriptor(&EXT_I2C, &I2C_io);
    2e72:	491c      	ldr	r1, [pc, #112]	; (2ee4 <EXT_I2C_init+0xe4>)
    2e74:	0028      	movs	r0, r5
    2e76:	f7fe fc6f 	bl	1758 <i2c_m_sync_get_io_descriptor>
	i2c_m_sync_enable(&EXT_I2C);
    2e7a:	0028      	movs	r0, r5
    2e7c:	f7fe fc3c 	bl	16f8 <i2c_m_sync_enable>
	((Port *)hw)->Group[submodule_index].DIRCLR.reg = mask;
    2e80:	21c0      	movs	r1, #192	; 0xc0
    2e82:	05c9      	lsls	r1, r1, #23
    2e84:	2384      	movs	r3, #132	; 0x84
    2e86:	2080      	movs	r0, #128	; 0x80
    2e88:	0040      	lsls	r0, r0, #1
    2e8a:	50c8      	str	r0, [r1, r3]
	((Port *)hw)->Group[submodule_index].WRCONFIG.reg = data;
    2e8c:	22a8      	movs	r2, #168	; 0xa8
    2e8e:	4d16      	ldr	r5, [pc, #88]	; (2ee8 <EXT_I2C_init+0xe8>)
    2e90:	50a5      	str	r5, [r4, r2]
    2e92:	4d16      	ldr	r5, [pc, #88]	; (2eec <EXT_I2C_init+0xec>)
    2e94:	50a5      	str	r5, [r4, r2]
	((Port *)hw)->Group[submodule_index].DIRCLR.reg = mask;
    2e96:	50c8      	str	r0, [r1, r3]
	((Port *)hw)->Group[submodule_index].PINCFG[index].reg |= PORT_PINCFG_PULLEN;
    2e98:	3220      	adds	r2, #32
    2e9a:	5ca3      	ldrb	r3, [r4, r2]
    2e9c:	2504      	movs	r5, #4
    2e9e:	432b      	orrs	r3, r5
    2ea0:	b2db      	uxtb	r3, r3
    2ea2:	54a3      	strb	r3, [r4, r2]
	((Port *)hw)->Group[submodule_index].OUTSET.reg = mask;
    2ea4:	2398      	movs	r3, #152	; 0x98
    2ea6:	50c8      	str	r0, [r1, r3]
	tmp = ((Port *)hw)->Group[submodule_index].PINCFG[index].reg;
    2ea8:	5ca3      	ldrb	r3, [r4, r2]
	tmp &= ~PORT_PINCFG_PMUXEN;
    2eaa:	4641      	mov	r1, r8
    2eac:	438b      	bics	r3, r1
	tmp |= value << PORT_PINCFG_PMUXEN_Pos;
    2eae:	433b      	orrs	r3, r7
    2eb0:	b2db      	uxtb	r3, r3
	((Port *)hw)->Group[submodule_index].PINCFG[index].reg = tmp;
    2eb2:	54a3      	strb	r3, [r4, r2]
	tmp = ((Port *)hw)->Group[submodule_index].PMUX[index].reg;
    2eb4:	3a14      	subs	r2, #20
    2eb6:	5ca3      	ldrb	r3, [r4, r2]
	tmp &= ~PORT_PMUX_PMUXE_Msk;
    2eb8:	43b3      	bics	r3, r6
	((Port *)hw)->Group[submodule_index].PMUX[index].reg = tmp;
    2eba:	54a3      	strb	r3, [r4, r2]
	
	
	gpio_set_pin_direction(EXT_I2C_IRQ, GPIO_DIRECTION_IN);
	gpio_set_pin_pull_mode(EXT_I2C_IRQ, GPIO_PULL_UP);
	gpio_set_pin_function(EXT_I2C_IRQ, PORT_PB08A_EIC_EXTINT8);
	EXT_I2C_IRQ_Enable();
    2ebc:	f7ff fcf6 	bl	28ac <EXT_I2C_IRQ_Enable>
}
    2ec0:	bc04      	pop	{r2}
    2ec2:	4690      	mov	r8, r2
    2ec4:	bdf0      	pop	{r4, r5, r6, r7, pc}
    2ec6:	46c0      	nop			; (mov r8, r8)
    2ec8:	40000400 	.word	0x40000400
    2ecc:	40000c00 	.word	0x40000c00
    2ed0:	00004011 	.word	0x00004011
    2ed4:	0000430c 	.word	0x0000430c
    2ed8:	20000ea0 	.word	0x20000ea0
    2edc:	42001800 	.word	0x42001800
    2ee0:	41004400 	.word	0x41004400
    2ee4:	20000ee0 	.word	0x20000ee0
    2ee8:	40020100 	.word	0x40020100
    2eec:	c0020000 	.word	0xc0020000

00002ef0 <RTC_I2C_init>:

void RTC_I2C_init(void){
    2ef0:	b5f0      	push	{r4, r5, r6, r7, lr}
    2ef2:	46ce      	mov	lr, r9
    2ef4:	b500      	push	{lr}
    2ef6:	4a2c      	ldr	r2, [pc, #176]	; (2fa8 <RTC_I2C_init+0xb8>)
    2ef8:	6a13      	ldr	r3, [r2, #32]
    2efa:	2110      	movs	r1, #16
    2efc:	430b      	orrs	r3, r1
    2efe:	6213      	str	r3, [r2, #32]
    2f00:	4b2a      	ldr	r3, [pc, #168]	; (2fac <RTC_I2C_init+0xbc>)
    2f02:	4a2b      	ldr	r2, [pc, #172]	; (2fb0 <RTC_I2C_init+0xc0>)
    2f04:	805a      	strh	r2, [r3, #2]
    2f06:	4a2b      	ldr	r2, [pc, #172]	; (2fb4 <RTC_I2C_init+0xc4>)
    2f08:	805a      	strh	r2, [r3, #2]
	_pm_enable_bus_clock(PM_BUS_APBC, SERCOM2);
	_gclk_enable_channel(SERCOM2_GCLK_ID_CORE, CONF_GCLK_SERCOM2_CORE_SRC);
	_gclk_enable_channel(SERCOM2_GCLK_ID_SLOW, CONF_GCLK_SERCOM2_SLOW_SRC);
	
	i2c_m_sync_init(&RTC_I2C, SERCOM2);
    2f0a:	492b      	ldr	r1, [pc, #172]	; (2fb8 <RTC_I2C_init+0xc8>)
    2f0c:	482b      	ldr	r0, [pc, #172]	; (2fbc <RTC_I2C_init+0xcc>)
    2f0e:	f7fe fbd7 	bl	16c0 <i2c_m_sync_init>
	((Port *)hw)->Group[submodule_index].PINCFG[index].reg &= ~PORT_PINCFG_PULLEN;
    2f12:	4c2b      	ldr	r4, [pc, #172]	; (2fc0 <RTC_I2C_init+0xd0>)
    2f14:	2248      	movs	r2, #72	; 0x48
    2f16:	5ca3      	ldrb	r3, [r4, r2]
    2f18:	2104      	movs	r1, #4
    2f1a:	4689      	mov	r9, r1
    2f1c:	438b      	bics	r3, r1
    2f1e:	54a3      	strb	r3, [r4, r2]
	tmp = ((Port *)hw)->Group[submodule_index].PINCFG[index].reg;
    2f20:	5ca3      	ldrb	r3, [r4, r2]
	tmp &= ~PORT_PINCFG_PMUXEN;
    2f22:	2501      	movs	r5, #1
    2f24:	43ab      	bics	r3, r5
	tmp |= value << PORT_PINCFG_PMUXEN_Pos;
    2f26:	2701      	movs	r7, #1
    2f28:	433b      	orrs	r3, r7
    2f2a:	b2db      	uxtb	r3, r3
	((Port *)hw)->Group[submodule_index].PINCFG[index].reg = tmp;
    2f2c:	54a3      	strb	r3, [r4, r2]
	tmp = ((Port *)hw)->Group[submodule_index].PMUX[index].reg;
    2f2e:	3a14      	subs	r2, #20
    2f30:	5ca3      	ldrb	r3, [r4, r2]
	tmp &= ~PORT_PMUX_PMUXE_Msk;
    2f32:	260f      	movs	r6, #15
    2f34:	43b3      	bics	r3, r6
	tmp |= PORT_PMUX_PMUXE(data);
    2f36:	2103      	movs	r1, #3
    2f38:	430b      	orrs	r3, r1
    2f3a:	b2db      	uxtb	r3, r3
	((Port *)hw)->Group[submodule_index].PMUX[index].reg = tmp;
    2f3c:	54a3      	strb	r3, [r4, r2]
	((Port *)hw)->Group[submodule_index].PINCFG[index].reg &= ~PORT_PINCFG_PULLEN;
    2f3e:	2149      	movs	r1, #73	; 0x49
    2f40:	5c63      	ldrb	r3, [r4, r1]
    2f42:	4648      	mov	r0, r9
    2f44:	4383      	bics	r3, r0
    2f46:	5463      	strb	r3, [r4, r1]
	tmp = ((Port *)hw)->Group[submodule_index].PINCFG[index].reg;
    2f48:	5c63      	ldrb	r3, [r4, r1]
	tmp &= ~PORT_PINCFG_PMUXEN;
    2f4a:	43ab      	bics	r3, r5
	tmp |= value << PORT_PINCFG_PMUXEN_Pos;
    2f4c:	433b      	orrs	r3, r7
    2f4e:	b2db      	uxtb	r3, r3
	((Port *)hw)->Group[submodule_index].PINCFG[index].reg = tmp;
    2f50:	5463      	strb	r3, [r4, r1]
	tmp = ((Port *)hw)->Group[submodule_index].PMUX[index].reg;
    2f52:	5ca3      	ldrb	r3, [r4, r2]
	tmp &= ~PORT_PMUX_PMUXO_Msk;
    2f54:	393a      	subs	r1, #58	; 0x3a
    2f56:	400b      	ands	r3, r1
	tmp |= PORT_PMUX_PMUXO(data);
    2f58:	2130      	movs	r1, #48	; 0x30
    2f5a:	430b      	orrs	r3, r1
    2f5c:	b2db      	uxtb	r3, r3
	((Port *)hw)->Group[submodule_index].PMUX[index].reg = tmp;
    2f5e:	54a3      	strb	r3, [r4, r2]
	gpio_set_pin_function(PA08, PINMUX_PA08D_SERCOM2_PAD0);

	gpio_set_pin_pull_mode(PA09, GPIO_PULL_OFF);
	gpio_set_pin_function(PA09, PINMUX_PA09D_SERCOM2_PAD1);
	
	i2c_m_sync_get_io_descriptor(&RTC_I2C, &RTC_I2C_io);
    2f60:	4918      	ldr	r1, [pc, #96]	; (2fc4 <RTC_I2C_init+0xd4>)
    2f62:	4816      	ldr	r0, [pc, #88]	; (2fbc <RTC_I2C_init+0xcc>)
    2f64:	f7fe fbf8 	bl	1758 <i2c_m_sync_get_io_descriptor>
	i2c_m_sync_enable(&RTC_I2C);
    2f68:	4814      	ldr	r0, [pc, #80]	; (2fbc <RTC_I2C_init+0xcc>)
    2f6a:	f7fe fbc5 	bl	16f8 <i2c_m_sync_enable>
	((Port *)hw)->Group[submodule_index].DIRCLR.reg = mask;
    2f6e:	2280      	movs	r2, #128	; 0x80
    2f70:	00d2      	lsls	r2, r2, #3
    2f72:	23c0      	movs	r3, #192	; 0xc0
    2f74:	05db      	lsls	r3, r3, #23
    2f76:	605a      	str	r2, [r3, #4]
	((Port *)hw)->Group[submodule_index].WRCONFIG.reg = data;
    2f78:	4b13      	ldr	r3, [pc, #76]	; (2fc8 <RTC_I2C_init+0xd8>)
    2f7a:	62a3      	str	r3, [r4, #40]	; 0x28
    2f7c:	4b13      	ldr	r3, [pc, #76]	; (2fcc <RTC_I2C_init+0xdc>)
    2f7e:	62a3      	str	r3, [r4, #40]	; 0x28
	((Port *)hw)->Group[submodule_index].PINCFG[index].reg &= ~PORT_PINCFG_PULLEN;
    2f80:	224a      	movs	r2, #74	; 0x4a
    2f82:	5ca3      	ldrb	r3, [r4, r2]
    2f84:	4649      	mov	r1, r9
    2f86:	438b      	bics	r3, r1
    2f88:	54a3      	strb	r3, [r4, r2]
	tmp = ((Port *)hw)->Group[submodule_index].PINCFG[index].reg;
    2f8a:	5ca3      	ldrb	r3, [r4, r2]
	tmp &= ~PORT_PINCFG_PMUXEN;
    2f8c:	43ab      	bics	r3, r5
	tmp |= value << PORT_PINCFG_PMUXEN_Pos;
    2f8e:	433b      	orrs	r3, r7
    2f90:	b2db      	uxtb	r3, r3
	((Port *)hw)->Group[submodule_index].PINCFG[index].reg = tmp;
    2f92:	54a3      	strb	r3, [r4, r2]
	tmp = ((Port *)hw)->Group[submodule_index].PMUX[index].reg;
    2f94:	3a15      	subs	r2, #21
    2f96:	5ca3      	ldrb	r3, [r4, r2]
	tmp &= ~PORT_PMUX_PMUXE_Msk;
    2f98:	43b3      	bics	r3, r6
	((Port *)hw)->Group[submodule_index].PMUX[index].reg = tmp;
    2f9a:	54a3      	strb	r3, [r4, r2]
	
	gpio_set_pin_direction(RTC_IRQ, GPIO_DIRECTION_IN);
	gpio_set_pin_pull_mode(RTC_IRQ, GPIO_PULL_OFF);
	gpio_set_pin_function(RTC_IRQ, PINMUX_PA10A_EIC_EXTINT10);
	RTC_I2C_IRQ_Enable();
    2f9c:	f7ff fc8e 	bl	28bc <RTC_I2C_IRQ_Enable>
}
    2fa0:	bc04      	pop	{r2}
    2fa2:	4691      	mov	r9, r2
    2fa4:	bdf0      	pop	{r4, r5, r6, r7, pc}
    2fa6:	46c0      	nop			; (mov r8, r8)
    2fa8:	40000400 	.word	0x40000400
    2fac:	40000c00 	.word	0x40000c00
    2fb0:	0000400f 	.word	0x0000400f
    2fb4:	0000430c 	.word	0x0000430c
    2fb8:	42001000 	.word	0x42001000
    2fbc:	20000ee4 	.word	0x20000ee4
    2fc0:	41004400 	.word	0x41004400
    2fc4:	20000e80 	.word	0x20000e80
    2fc8:	40020400 	.word	0x40020400
    2fcc:	c0020000 	.word	0xc0020000

00002fd0 <RTC_write_batch>:



bool RTC_write_batch(uint8_t addres, uint8_t *data, uint8_t data_len){
    2fd0:	b570      	push	{r4, r5, r6, lr}
    2fd2:	000d      	movs	r5, r1
    2fd4:	0014      	movs	r4, r2
	i2c_m_sync_set_slaveaddr(&RTC_I2C, addres, I2C_M_SEVEN);
    2fd6:	b201      	sxth	r1, r0
    2fd8:	2280      	movs	r2, #128	; 0x80
    2fda:	0112      	lsls	r2, r2, #4
    2fdc:	4805      	ldr	r0, [pc, #20]	; (2ff4 <RTC_write_batch+0x24>)
    2fde:	f7fe fb8f 	bl	1700 <i2c_m_sync_set_slaveaddr>
	//i2c_m_sync_cmd_write(&EXT_I2C, 0x00, data, data_len);
	return (io_write(RTC_I2C_io, (uint8_t *)data, data_len) >= 0) ? true : false;
    2fe2:	b2a2      	uxth	r2, r4
    2fe4:	4b04      	ldr	r3, [pc, #16]	; (2ff8 <RTC_write_batch+0x28>)
    2fe6:	6818      	ldr	r0, [r3, #0]
    2fe8:	0029      	movs	r1, r5
    2fea:	f7fe fbb9 	bl	1760 <io_write>
    2fee:	43c0      	mvns	r0, r0
    2ff0:	0fc0      	lsrs	r0, r0, #31
}
    2ff2:	bd70      	pop	{r4, r5, r6, pc}
    2ff4:	20000ee4 	.word	0x20000ee4
    2ff8:	20000e80 	.word	0x20000e80

00002ffc <RTC_read_batch>:

bool RTC_read_batch(uint8_t addres ,uint8_t *data, uint8_t data_len){
    2ffc:	b570      	push	{r4, r5, r6, lr}
    2ffe:	000c      	movs	r4, r1
    3000:	0015      	movs	r5, r2
	i2c_m_sync_set_slaveaddr(&RTC_I2C, addres, I2C_M_SEVEN);
    3002:	b201      	sxth	r1, r0
    3004:	4e06      	ldr	r6, [pc, #24]	; (3020 <RTC_read_batch+0x24>)
    3006:	2280      	movs	r2, #128	; 0x80
    3008:	0112      	lsls	r2, r2, #4
    300a:	0030      	movs	r0, r6
    300c:	f7fe fb78 	bl	1700 <i2c_m_sync_set_slaveaddr>
	i2c_m_sync_cmd_read(&RTC_I2C, 0x00, data, data_len);
    3010:	002b      	movs	r3, r5
    3012:	0022      	movs	r2, r4
    3014:	2100      	movs	r1, #0
    3016:	0030      	movs	r0, r6
    3018:	f7fe fb7c 	bl	1714 <i2c_m_sync_cmd_read>
	//return (io_read(I2C_io, (uint8_t *)data, data_len) >= 0) ? true : false;
}
    301c:	bd70      	pop	{r4, r5, r6, pc}
    301e:	46c0      	nop			; (mov r8, r8)
    3020:	20000ee4 	.word	0x20000ee4

00003024 <I2C_write_batch>:

bool I2C_write_batch(uint8_t addres, uint8_t *data, uint8_t data_len){
    3024:	b570      	push	{r4, r5, r6, lr}
    3026:	000d      	movs	r5, r1
    3028:	0014      	movs	r4, r2
	i2c_m_sync_set_slaveaddr(&EXT_I2C, addres, I2C_M_SEVEN);
    302a:	b201      	sxth	r1, r0
    302c:	2280      	movs	r2, #128	; 0x80
    302e:	0112      	lsls	r2, r2, #4
    3030:	4805      	ldr	r0, [pc, #20]	; (3048 <I2C_write_batch+0x24>)
    3032:	f7fe fb65 	bl	1700 <i2c_m_sync_set_slaveaddr>
	//i2c_m_sync_cmd_write(&EXT_I2C, 0x00, data, data_len);
	return (io_write(I2C_io, (uint8_t *)data, data_len) >= 0) ? true : false;  
    3036:	b2a2      	uxth	r2, r4
    3038:	4b04      	ldr	r3, [pc, #16]	; (304c <I2C_write_batch+0x28>)
    303a:	6818      	ldr	r0, [r3, #0]
    303c:	0029      	movs	r1, r5
    303e:	f7fe fb8f 	bl	1760 <io_write>
    3042:	43c0      	mvns	r0, r0
    3044:	0fc0      	lsrs	r0, r0, #31
}
    3046:	bd70      	pop	{r4, r5, r6, pc}
    3048:	20000ea0 	.word	0x20000ea0
    304c:	20000ee0 	.word	0x20000ee0

00003050 <I2C_read_batch>:

bool I2C_read_batch(uint8_t addres ,uint8_t *data, uint8_t data_len){
    3050:	b570      	push	{r4, r5, r6, lr}
    3052:	000c      	movs	r4, r1
    3054:	0015      	movs	r5, r2
	i2c_m_sync_set_slaveaddr(&EXT_I2C, addres, I2C_M_SEVEN);
    3056:	b201      	sxth	r1, r0
    3058:	4e06      	ldr	r6, [pc, #24]	; (3074 <I2C_read_batch+0x24>)
    305a:	2280      	movs	r2, #128	; 0x80
    305c:	0112      	lsls	r2, r2, #4
    305e:	0030      	movs	r0, r6
    3060:	f7fe fb4e 	bl	1700 <i2c_m_sync_set_slaveaddr>
	
	i2c_m_sync_cmd_read(&EXT_I2C, 0x00, data, data_len);
    3064:	002b      	movs	r3, r5
    3066:	0022      	movs	r2, r4
    3068:	2100      	movs	r1, #0
    306a:	0030      	movs	r0, r6
    306c:	f7fe fb52 	bl	1714 <i2c_m_sync_cmd_read>
	
	//return (io_read(I2C_io, (uint8_t *)data, data_len) >= 0) ? true : false;
}
    3070:	bd70      	pop	{r4, r5, r6, pc}
    3072:	46c0      	nop			; (mov r8, r8)
    3074:	20000ea0 	.word	0x20000ea0

00003078 <I2C_read_batch_addr>:
bool I2C_read_batch_addr(uint8_t addres, uint8_t reg, uint8_t *data, uint8_t data_len){
    3078:	b5f8      	push	{r3, r4, r5, r6, r7, lr}
    307a:	000c      	movs	r4, r1
    307c:	0015      	movs	r5, r2
    307e:	001e      	movs	r6, r3
	i2c_m_sync_set_slaveaddr(&EXT_I2C, addres, I2C_M_SEVEN);
    3080:	b201      	sxth	r1, r0
    3082:	4f06      	ldr	r7, [pc, #24]	; (309c <I2C_read_batch_addr+0x24>)
    3084:	2280      	movs	r2, #128	; 0x80
    3086:	0112      	lsls	r2, r2, #4
    3088:	0038      	movs	r0, r7
    308a:	f7fe fb39 	bl	1700 <i2c_m_sync_set_slaveaddr>
	
	i2c_m_sync_cmd_read(&EXT_I2C, reg, data, data_len);
    308e:	0033      	movs	r3, r6
    3090:	002a      	movs	r2, r5
    3092:	0021      	movs	r1, r4
    3094:	0038      	movs	r0, r7
    3096:	f7fe fb3d 	bl	1714 <i2c_m_sync_cmd_read>
	//return (io_read(I2C_io, (uint8_t *)data, data_len) >= 0) ? true : false;
}
    309a:	bdf8      	pop	{r3, r4, r5, r6, r7, pc}
    309c:	20000ea0 	.word	0x20000ea0

000030a0 <DEBUG_SERIAL_init>:
		gpio_set_pin_level(IO4 , false);
	}
	
}

void DEBUG_SERIAL_init(void){	
    30a0:	b570      	push	{r4, r5, r6, lr}
    30a2:	4a1a      	ldr	r2, [pc, #104]	; (310c <DEBUG_SERIAL_init+0x6c>)
    30a4:	6a13      	ldr	r3, [r2, #32]
    30a6:	2120      	movs	r1, #32
    30a8:	430b      	orrs	r3, r1
    30aa:	6213      	str	r3, [r2, #32]
    30ac:	4a18      	ldr	r2, [pc, #96]	; (3110 <DEBUG_SERIAL_init+0x70>)
    30ae:	4b19      	ldr	r3, [pc, #100]	; (3114 <DEBUG_SERIAL_init+0x74>)
    30b0:	805a      	strh	r2, [r3, #2]
	_pm_enable_bus_clock(PM_BUS_APBC, SERCOM3);
	_gclk_enable_channel(SERCOM3_GCLK_ID_CORE, CONF_GCLK_SERCOM3_CORE_SRC);
	
	usart_sync_init(&DEBUG_SERIAL, SERCOM3, (void *)NULL);
    30b2:	4c19      	ldr	r4, [pc, #100]	; (3118 <DEBUG_SERIAL_init+0x78>)
    30b4:	2200      	movs	r2, #0
    30b6:	4919      	ldr	r1, [pc, #100]	; (311c <DEBUG_SERIAL_init+0x7c>)
    30b8:	0020      	movs	r0, r4
    30ba:	f7fe fc89 	bl	19d0 <usart_sync_init>
	tmp = ((Port *)hw)->Group[submodule_index].PINCFG[index].reg;
    30be:	4b18      	ldr	r3, [pc, #96]	; (3120 <DEBUG_SERIAL_init+0x80>)
    30c0:	2250      	movs	r2, #80	; 0x50
    30c2:	5c99      	ldrb	r1, [r3, r2]
	tmp &= ~PORT_PINCFG_PMUXEN;
    30c4:	2601      	movs	r6, #1
    30c6:	43b1      	bics	r1, r6
	tmp |= value << PORT_PINCFG_PMUXEN_Pos;
    30c8:	2501      	movs	r5, #1
    30ca:	4329      	orrs	r1, r5
    30cc:	b2c9      	uxtb	r1, r1
	((Port *)hw)->Group[submodule_index].PINCFG[index].reg = tmp;
    30ce:	5499      	strb	r1, [r3, r2]
	tmp = ((Port *)hw)->Group[submodule_index].PMUX[index].reg;
    30d0:	2038      	movs	r0, #56	; 0x38
    30d2:	5c19      	ldrb	r1, [r3, r0]
	tmp &= ~PORT_PMUX_PMUXE_Msk;
    30d4:	3a41      	subs	r2, #65	; 0x41
    30d6:	4391      	bics	r1, r2
	tmp |= PORT_PMUX_PMUXE(data);
    30d8:	2203      	movs	r2, #3
    30da:	4311      	orrs	r1, r2
    30dc:	b2c9      	uxtb	r1, r1
	((Port *)hw)->Group[submodule_index].PMUX[index].reg = tmp;
    30de:	5419      	strb	r1, [r3, r0]
	tmp = ((Port *)hw)->Group[submodule_index].PINCFG[index].reg;
    30e0:	2151      	movs	r1, #81	; 0x51
    30e2:	5c5a      	ldrb	r2, [r3, r1]
	tmp &= ~PORT_PINCFG_PMUXEN;
    30e4:	43b2      	bics	r2, r6
	tmp |= value << PORT_PINCFG_PMUXEN_Pos;
    30e6:	432a      	orrs	r2, r5
    30e8:	b2d2      	uxtb	r2, r2
	((Port *)hw)->Group[submodule_index].PINCFG[index].reg = tmp;
    30ea:	545a      	strb	r2, [r3, r1]
	tmp = ((Port *)hw)->Group[submodule_index].PMUX[index].reg;
    30ec:	5c1a      	ldrb	r2, [r3, r0]
	tmp &= ~PORT_PMUX_PMUXO_Msk;
    30ee:	3942      	subs	r1, #66	; 0x42
    30f0:	400a      	ands	r2, r1
	tmp |= PORT_PMUX_PMUXO(data);
    30f2:	2130      	movs	r1, #48	; 0x30
    30f4:	430a      	orrs	r2, r1
    30f6:	b2d2      	uxtb	r2, r2
	((Port *)hw)->Group[submodule_index].PMUX[index].reg = tmp;
    30f8:	541a      	strb	r2, [r3, r0]
	gpio_set_pin_function(PA16, PINMUX_PA16D_SERCOM3_PAD0);
	gpio_set_pin_function(PA17, PINMUX_PA17D_SERCOM3_PAD1);
	usart_sync_get_io_descriptor(&DEBUG_SERIAL, &debugSerial);
    30fa:	490a      	ldr	r1, [pc, #40]	; (3124 <DEBUG_SERIAL_init+0x84>)
    30fc:	0020      	movs	r0, r4
    30fe:	f7fe fc9b 	bl	1a38 <usart_sync_get_io_descriptor>
	usart_sync_enable(&DEBUG_SERIAL);
    3102:	0020      	movs	r0, r4
    3104:	f7fe fc86 	bl	1a14 <usart_sync_enable>
}
    3108:	bd70      	pop	{r4, r5, r6, pc}
    310a:	46c0      	nop			; (mov r8, r8)
    310c:	40000400 	.word	0x40000400
    3110:	00004010 	.word	0x00004010
    3114:	40000c00 	.word	0x40000c00
    3118:	20000f08 	.word	0x20000f08
    311c:	42001400 	.word	0x42001400
    3120:	41004400 	.word	0x41004400
    3124:	20000edc 	.word	0x20000edc

00003128 <RF_select>:
    //if (!inISR) sei();
}

// Enable SPI transfer
void RF_select()
{
    3128:	b510      	push	{r4, lr}
    RFM_69_sel(false);
    312a:	2000      	movs	r0, #0
    312c:	f7ff fc14 	bl	2958 <RFM_69_sel>
}
    3130:	bd10      	pop	{r4, pc}

00003132 <RF_unselect>:

// Disable SPI transfer
void RF_unselect()
{
    3132:	b510      	push	{r4, lr}
     RFM_69_sel(true);
    3134:	2001      	movs	r0, #1
    3136:	f7ff fc0f 	bl	2958 <RFM_69_sel>
}
    313a:	bd10      	pop	{r4, pc}

0000313c <readReg>:
{
    313c:	b510      	push	{r4, lr}
    313e:	0004      	movs	r4, r0
    RF_select();
    3140:	f7ff fff2 	bl	3128 <RF_select>
    SPI_write(addr & 0x7F);
    3144:	207f      	movs	r0, #127	; 0x7f
    3146:	4020      	ands	r0, r4
    3148:	f7ff fc14 	bl	2974 <SPI_write>
    uint8_t regval = SPI_read();
    314c:	f7ff fc20 	bl	2990 <SPI_read>
    3150:	0004      	movs	r4, r0
    RF_unselect();
    3152:	f7ff ffee 	bl	3132 <RF_unselect>
}
    3156:	0020      	movs	r0, r4
    3158:	bd10      	pop	{r4, pc}

0000315a <writeReg>:
{
    315a:	b570      	push	{r4, r5, r6, lr}
    315c:	0005      	movs	r5, r0
    315e:	000c      	movs	r4, r1
    RF_select();
    3160:	f7ff ffe2 	bl	3128 <RF_select>
    SPI_write(addr | 0x80);
    3164:	2080      	movs	r0, #128	; 0x80
    3166:	4240      	negs	r0, r0
    3168:	4328      	orrs	r0, r5
    316a:	b2c0      	uxtb	r0, r0
    316c:	f7ff fc02 	bl	2974 <SPI_write>
    SPI_write(value);
    3170:	0020      	movs	r0, r4
    3172:	f7ff fbff 	bl	2974 <SPI_write>
    RF_unselect();
    3176:	f7ff ffdc 	bl	3132 <RF_unselect>
}
    317a:	bd70      	pop	{r4, r5, r6, pc}

0000317c <rfm69_init>:
{	
    317c:	b510      	push	{r4, lr}
	RF_HW_Reset();
    317e:	f7ff fd37 	bl	2bf0 <RF_HW_Reset>
	uint8_t tmp_data = readReg(REG_VERSION);
    3182:	2010      	movs	r0, #16
    3184:	f7ff ffda 	bl	313c <readReg>
	writeReg(REG_OPMODE, RF_OPMODE_STANDBY);
    3188:	2104      	movs	r1, #4
    318a:	2001      	movs	r0, #1
    318c:	f7ff ffe5 	bl	315a <writeReg>
	tmp_data = readReg(REG_IRQFLAGS1);
    3190:	2027      	movs	r0, #39	; 0x27
    3192:	f7ff ffd3 	bl	313c <readReg>
	writeReg(REG_FIFOTHRESH, 0x8f);
    3196:	218f      	movs	r1, #143	; 0x8f
    3198:	203c      	movs	r0, #60	; 0x3c
    319a:	f7ff ffde 	bl	315a <writeReg>
	writeReg(REG_TESTDAGC, 0x30);
    319e:	2130      	movs	r1, #48	; 0x30
    31a0:	206f      	movs	r0, #111	; 0x6f
    31a2:	f7ff ffda 	bl	315a <writeReg>
	writeReg(REG_TESTPA1, 0x55); //only for HW
    31a6:	2155      	movs	r1, #85	; 0x55
    31a8:	205a      	movs	r0, #90	; 0x5a
    31aa:	f7ff ffd6 	bl	315a <writeReg>
	writeReg(REG_TESTPA2, 0x70); //only for HW
    31ae:	2170      	movs	r1, #112	; 0x70
    31b0:	205c      	movs	r0, #92	; 0x5c
    31b2:	f7ff ffd2 	bl	315a <writeReg>
	tmp_data = readReg(REG_SYNCCONFIG);
    31b6:	202e      	movs	r0, #46	; 0x2e
    31b8:	f7ff ffc0 	bl	313c <readReg>
	writeReg(REG_SYNCVALUE1, 0x2d);
    31bc:	212d      	movs	r1, #45	; 0x2d
    31be:	202f      	movs	r0, #47	; 0x2f
    31c0:	f7ff ffcb 	bl	315a <writeReg>
	writeReg(REG_SYNCVALUE2, 0xd4);
    31c4:	21d4      	movs	r1, #212	; 0xd4
    31c6:	2030      	movs	r0, #48	; 0x30
    31c8:	f7ff ffc7 	bl	315a <writeReg>
	writeReg(REG_SYNCCONFIG, 0x88);
    31cc:	2188      	movs	r1, #136	; 0x88
    31ce:	202e      	movs	r0, #46	; 0x2e
    31d0:	f7ff ffc3 	bl	315a <writeReg>
	writeReg(REG_DATAMODUL, RF_DATAMODUL_MODULATIONSHAPING_01);
    31d4:	2101      	movs	r1, #1
    31d6:	2002      	movs	r0, #2
    31d8:	f7ff ffbf 	bl	315a <writeReg>
	writeReg(REG_BITRATEMSB, 0x00);
    31dc:	2100      	movs	r1, #0
    31de:	2003      	movs	r0, #3
    31e0:	f7ff ffbb 	bl	315a <writeReg>
	writeReg(REG_BITRATELSB, 0x80);
    31e4:	2180      	movs	r1, #128	; 0x80
    31e6:	2004      	movs	r0, #4
    31e8:	f7ff ffb7 	bl	315a <writeReg>
	writeReg(REG_FDEVMSB, 0x10);
    31ec:	2110      	movs	r1, #16
    31ee:	2005      	movs	r0, #5
    31f0:	f7ff ffb3 	bl	315a <writeReg>
	writeReg(REG_FDEVLSB, 0x00);
    31f4:	2100      	movs	r1, #0
    31f6:	2006      	movs	r0, #6
    31f8:	f7ff ffaf 	bl	315a <writeReg>
	writeReg(REG_RXBW, RF_RXBW_DCCFREQ_111);
    31fc:	21e0      	movs	r1, #224	; 0xe0
    31fe:	2019      	movs	r0, #25
    3200:	f7ff ffab 	bl	315a <writeReg>
	writeReg(REG_AFCBW, RF_AFCBW_DCCFREQAFC_111);
    3204:	21e0      	movs	r1, #224	; 0xe0
    3206:	201a      	movs	r0, #26
    3208:	f7ff ffa7 	bl	315a <writeReg>
	writeReg(REG_PACKETCONFIG1, 0xD0);
    320c:	21d0      	movs	r1, #208	; 0xd0
    320e:	2037      	movs	r0, #55	; 0x37
    3210:	f7ff ffa3 	bl	315a <writeReg>
	writeReg(REG_PREAMBLEMSB, 0x00);
    3214:	2100      	movs	r1, #0
    3216:	202c      	movs	r0, #44	; 0x2c
    3218:	f7ff ff9f 	bl	315a <writeReg>
	writeReg(REG_PREAMBLELSB , 0x04);
    321c:	2104      	movs	r1, #4
    321e:	202d      	movs	r0, #45	; 0x2d
    3220:	f7ff ff9b 	bl	315a <writeReg>
	writeReg(REG_FRFMSB, RF_FRFMSB_868);
    3224:	21d9      	movs	r1, #217	; 0xd9
    3226:	2007      	movs	r0, #7
    3228:	f7ff ff97 	bl	315a <writeReg>
	writeReg(REG_FRFMID, RF_FRFMID_868);
    322c:	2100      	movs	r1, #0
    322e:	2008      	movs	r0, #8
    3230:	f7ff ff93 	bl	315a <writeReg>
	writeReg(REG_FRFLSB, RF_FRFLSB_868);
    3234:	2100      	movs	r1, #0
    3236:	2009      	movs	r0, #9
    3238:	f7ff ff8f 	bl	315a <writeReg>
	tmp_data = readReg(REG_PACKETCONFIG2); //2
    323c:	203d      	movs	r0, #61	; 0x3d
    323e:	f7ff ff7d 	bl	313c <readReg>
    3242:	0004      	movs	r4, r0
	writeReg(REG_PACKETCONFIG2, RF_PACKET2_AUTORXRESTART_ON);
    3244:	2102      	movs	r1, #2
    3246:	203d      	movs	r0, #61	; 0x3d
    3248:	f7ff ff87 	bl	315a <writeReg>
	writeReg(REG_PALEVEL, RF_PALEVEL_OUTPUTPOWER_11111);
    324c:	211f      	movs	r1, #31
    324e:	2011      	movs	r0, #17
    3250:	f7ff ff83 	bl	315a <writeReg>
	writeReg(REG_DIOMAPPING1 , RF_DIOMAPPING1_DIO0_01);
    3254:	2140      	movs	r1, #64	; 0x40
    3256:	2025      	movs	r0, #37	; 0x25
    3258:	f7ff ff7f 	bl	315a <writeReg>
	writeReg(REG_OPMODE, RF_OPMODE_RECEIVER);
    325c:	2110      	movs	r1, #16
    325e:	2001      	movs	r0, #1
    3260:	f7ff ff7b 	bl	315a <writeReg>
}
    3264:	0020      	movs	r0, r4
    3266:	bd10      	pop	{r4, pc}

00003268 <setHighPowerRegs>:
{
    3268:	b510      	push	{r4, lr}
    if(onOff==1)
    326a:	2801      	cmp	r0, #1
    326c:	d008      	beq.n	3280 <setHighPowerRegs+0x18>
        writeReg(REG_TESTPA1, 0x55);
    326e:	2155      	movs	r1, #85	; 0x55
    3270:	205a      	movs	r0, #90	; 0x5a
    3272:	f7ff ff72 	bl	315a <writeReg>
        writeReg(REG_TESTPA2, 0x70);
    3276:	2170      	movs	r1, #112	; 0x70
    3278:	205c      	movs	r0, #92	; 0x5c
    327a:	f7ff ff6e 	bl	315a <writeReg>
}
    327e:	bd10      	pop	{r4, pc}
    writeReg(REG_TESTPA1, 0x5D);
    3280:	215d      	movs	r1, #93	; 0x5d
    3282:	3059      	adds	r0, #89	; 0x59
    3284:	f7ff ff69 	bl	315a <writeReg>
    writeReg(REG_TESTPA2, 0x7C);
    3288:	217c      	movs	r1, #124	; 0x7c
    328a:	205c      	movs	r0, #92	; 0x5c
    328c:	f7ff ff65 	bl	315a <writeReg>
    3290:	e7f5      	b.n	327e <setHighPowerRegs+0x16>
	...

00003294 <setMode>:
{
    3294:	b510      	push	{r4, lr}
    3296:	0004      	movs	r4, r0
    if (newMode == mode)
    3298:	4b30      	ldr	r3, [pc, #192]	; (335c <setMode+0xc8>)
    329a:	781b      	ldrb	r3, [r3, #0]
    329c:	b2db      	uxtb	r3, r3
    329e:	4283      	cmp	r3, r0
    32a0:	d044      	beq.n	332c <setMode+0x98>
    switch (newMode)
    32a2:	2804      	cmp	r0, #4
    32a4:	d842      	bhi.n	332c <setMode+0x98>
    32a6:	0083      	lsls	r3, r0, #2
    32a8:	4a2d      	ldr	r2, [pc, #180]	; (3360 <setMode+0xcc>)
    32aa:	58d3      	ldr	r3, [r2, r3]
    32ac:	469f      	mov	pc, r3
            writeReg(REG_OPMODE, (readReg(REG_OPMODE) & 0xE3) | RF_OPMODE_TRANSMITTER);
    32ae:	2001      	movs	r0, #1
    32b0:	f7ff ff44 	bl	313c <readReg>
    32b4:	b241      	sxtb	r1, r0
    32b6:	231c      	movs	r3, #28
    32b8:	4399      	bics	r1, r3
    32ba:	200c      	movs	r0, #12
    32bc:	4301      	orrs	r1, r0
    32be:	b2c9      	uxtb	r1, r1
    32c0:	2001      	movs	r0, #1
    32c2:	f7ff ff4a 	bl	315a <writeReg>
            if (isRFM69HW) setHighPowerRegs(1);
    32c6:	4b27      	ldr	r3, [pc, #156]	; (3364 <setMode+0xd0>)
    32c8:	781b      	ldrb	r3, [r3, #0]
    32ca:	2b00      	cmp	r3, #0
    32cc:	d023      	beq.n	3316 <setMode+0x82>
    32ce:	2001      	movs	r0, #1
    32d0:	f7ff ffca 	bl	3268 <setHighPowerRegs>
    32d4:	e01f      	b.n	3316 <setMode+0x82>
            writeReg(REG_OPMODE, (readReg(REG_OPMODE) & 0xE3) | RF_OPMODE_RECEIVER);
    32d6:	2001      	movs	r0, #1
    32d8:	f7ff ff30 	bl	313c <readReg>
    32dc:	b241      	sxtb	r1, r0
    32de:	231c      	movs	r3, #28
    32e0:	4399      	bics	r1, r3
    32e2:	2010      	movs	r0, #16
    32e4:	4301      	orrs	r1, r0
    32e6:	b2c9      	uxtb	r1, r1
    32e8:	2001      	movs	r0, #1
    32ea:	f7ff ff36 	bl	315a <writeReg>
            if (isRFM69HW) setHighPowerRegs(0);
    32ee:	4b1d      	ldr	r3, [pc, #116]	; (3364 <setMode+0xd0>)
    32f0:	781b      	ldrb	r3, [r3, #0]
    32f2:	2b00      	cmp	r3, #0
    32f4:	d00f      	beq.n	3316 <setMode+0x82>
    32f6:	2000      	movs	r0, #0
    32f8:	f7ff ffb6 	bl	3268 <setHighPowerRegs>
    32fc:	e00b      	b.n	3316 <setMode+0x82>
            writeReg(REG_OPMODE, (readReg(REG_OPMODE) & 0xE3) | RF_OPMODE_SYNTHESIZER);
    32fe:	2001      	movs	r0, #1
    3300:	f7ff ff1c 	bl	313c <readReg>
    3304:	b241      	sxtb	r1, r0
    3306:	231c      	movs	r3, #28
    3308:	4399      	bics	r1, r3
    330a:	2008      	movs	r0, #8
    330c:	4301      	orrs	r1, r0
    330e:	b2c9      	uxtb	r1, r1
    3310:	2001      	movs	r0, #1
    3312:	f7ff ff22 	bl	315a <writeReg>
    while (mode == RF69_MODE_SLEEP && (readReg(REG_IRQFLAGS1) & RF_IRQFLAGS1_MODEREADY) == 0x00); // wait for ModeReady
    3316:	4b11      	ldr	r3, [pc, #68]	; (335c <setMode+0xc8>)
    3318:	781b      	ldrb	r3, [r3, #0]
    331a:	2b00      	cmp	r3, #0
    331c:	d104      	bne.n	3328 <setMode+0x94>
    331e:	2027      	movs	r0, #39	; 0x27
    3320:	f7ff ff0c 	bl	313c <readReg>
    3324:	0603      	lsls	r3, r0, #24
    3326:	d5f6      	bpl.n	3316 <setMode+0x82>
    mode = newMode;
    3328:	4b0c      	ldr	r3, [pc, #48]	; (335c <setMode+0xc8>)
    332a:	701c      	strb	r4, [r3, #0]
}
    332c:	bd10      	pop	{r4, pc}
            writeReg(REG_OPMODE, (readReg(REG_OPMODE) & 0xE3) | RF_OPMODE_STANDBY);
    332e:	2001      	movs	r0, #1
    3330:	f7ff ff04 	bl	313c <readReg>
    3334:	b241      	sxtb	r1, r0
    3336:	231c      	movs	r3, #28
    3338:	4399      	bics	r1, r3
    333a:	2004      	movs	r0, #4
    333c:	4301      	orrs	r1, r0
    333e:	b2c9      	uxtb	r1, r1
    3340:	2001      	movs	r0, #1
    3342:	f7ff ff0a 	bl	315a <writeReg>
            break;
    3346:	e7e6      	b.n	3316 <setMode+0x82>
            writeReg(REG_OPMODE, (readReg(REG_OPMODE) & 0xE3) | RF_OPMODE_SLEEP);
    3348:	2001      	movs	r0, #1
    334a:	f7ff fef7 	bl	313c <readReg>
    334e:	231c      	movs	r3, #28
    3350:	4398      	bics	r0, r3
    3352:	b2c1      	uxtb	r1, r0
    3354:	2001      	movs	r0, #1
    3356:	f7ff ff00 	bl	315a <writeReg>
            break;
    335a:	e7dc      	b.n	3316 <setMode+0x82>
    335c:	20000001 	.word	0x20000001
    3360:	0000b124 	.word	0x0000b124
    3364:	20000000 	.word	0x20000000

00003368 <setHighPower>:
{
    3368:	b510      	push	{r4, lr}
    isRFM69HW = onOff;
    336a:	4b13      	ldr	r3, [pc, #76]	; (33b8 <setHighPower+0x50>)
    336c:	7018      	strb	r0, [r3, #0]
    writeReg(REG_OCP, isRFM69HW ? RF_OCP_OFF : RF_OCP_ON);
    336e:	2800      	cmp	r0, #0
    3370:	d011      	beq.n	3396 <setHighPower+0x2e>
    3372:	210f      	movs	r1, #15
    3374:	2013      	movs	r0, #19
    3376:	f7ff fef0 	bl	315a <writeReg>
    if (isRFM69HW == 1) // turning ON
    337a:	4b0f      	ldr	r3, [pc, #60]	; (33b8 <setHighPower+0x50>)
    337c:	781b      	ldrb	r3, [r3, #0]
    337e:	2b01      	cmp	r3, #1
    3380:	d00b      	beq.n	339a <setHighPower+0x32>
        writeReg(REG_PALEVEL, RF_PALEVEL_PA0_ON | RF_PALEVEL_PA1_OFF | RF_PALEVEL_PA2_OFF | powerLevel); // enable P0 only
    3382:	4b0e      	ldr	r3, [pc, #56]	; (33bc <setHighPower+0x54>)
    3384:	781b      	ldrb	r3, [r3, #0]
    3386:	2180      	movs	r1, #128	; 0x80
    3388:	4249      	negs	r1, r1
    338a:	4319      	orrs	r1, r3
    338c:	b2c9      	uxtb	r1, r1
    338e:	2011      	movs	r0, #17
    3390:	f7ff fee3 	bl	315a <writeReg>
}
    3394:	bd10      	pop	{r4, pc}
    writeReg(REG_OCP, isRFM69HW ? RF_OCP_OFF : RF_OCP_ON);
    3396:	211a      	movs	r1, #26
    3398:	e7ec      	b.n	3374 <setHighPower+0xc>
        writeReg(REG_PALEVEL, (readReg(REG_PALEVEL) & 0x1F) | RF_PALEVEL_PA1_ON | RF_PALEVEL_PA2_ON); // enable P1 & P2 amplifier stages
    339a:	2011      	movs	r0, #17
    339c:	f7ff fece 	bl	313c <readReg>
    33a0:	b240      	sxtb	r0, r0
    33a2:	211f      	movs	r1, #31
    33a4:	4001      	ands	r1, r0
    33a6:	2060      	movs	r0, #96	; 0x60
    33a8:	4301      	orrs	r1, r0
    33aa:	b249      	sxtb	r1, r1
    33ac:	b2c9      	uxtb	r1, r1
    33ae:	2011      	movs	r0, #17
    33b0:	f7ff fed3 	bl	315a <writeReg>
    33b4:	e7ee      	b.n	3394 <setHighPower+0x2c>
    33b6:	46c0      	nop			; (mov r8, r8)
    33b8:	20000000 	.word	0x20000000
    33bc:	20000002 	.word	0x20000002

000033c0 <readRSSI>:
{
    33c0:	b510      	push	{r4, lr}
    if (forceTrigger==1)
    33c2:	2801      	cmp	r0, #1
    33c4:	d007      	beq.n	33d6 <readRSSI+0x16>
    rssi = -readReg(REG_RSSIVALUE);
    33c6:	2024      	movs	r0, #36	; 0x24
    33c8:	f7ff feb8 	bl	313c <readReg>
    33cc:	b280      	uxth	r0, r0
    33ce:	4240      	negs	r0, r0
    33d0:	b200      	sxth	r0, r0
    rssi >>= 1;
    33d2:	1040      	asrs	r0, r0, #1
}
    33d4:	bd10      	pop	{r4, pc}
        writeReg(REG_RSSICONFIG, RF_RSSI_START);
    33d6:	2101      	movs	r1, #1
    33d8:	3022      	adds	r0, #34	; 0x22
    33da:	f7ff febe 	bl	315a <writeReg>
        while ((readReg(REG_RSSICONFIG) & RF_RSSI_DONE) == 0x00); // wait for RSSI_Ready
    33de:	2023      	movs	r0, #35	; 0x23
    33e0:	f7ff feac 	bl	313c <readReg>
    33e4:	0783      	lsls	r3, r0, #30
    33e6:	d5fa      	bpl.n	33de <readRSSI+0x1e>
    33e8:	e7ed      	b.n	33c6 <readRSSI+0x6>

000033ea <sendFrame>:
{
    33ea:	b570      	push	{r4, r5, r6, lr}
    33ec:	0004      	movs	r4, r0
    33ee:	000d      	movs	r5, r1
    setMode(RF69_MODE_SLEEP); // turn off receiver to prevent reception while filling fifo
    33f0:	2000      	movs	r0, #0
    33f2:	f7ff ff4f 	bl	3294 <setMode>
    while ((readReg(REG_IRQFLAGS1) & RF_IRQFLAGS1_MODEREADY) == 0x00); // wait for ModeReady
    33f6:	2027      	movs	r0, #39	; 0x27
    33f8:	f7ff fea0 	bl	313c <readReg>
    33fc:	0603      	lsls	r3, r0, #24
    33fe:	d5fa      	bpl.n	33f6 <sendFrame+0xc>
    writeReg(REG_DIOMAPPING1, RF_DIOMAPPING1_DIO0_00); // DIO0 is "Packet Sent"
    3400:	2100      	movs	r1, #0
    3402:	2025      	movs	r0, #37	; 0x25
    3404:	f7ff fea9 	bl	315a <writeReg>
    if (txHeader->rxtxBuffLenght > RF69_MAX_DATA_LEN)
    3408:	7823      	ldrb	r3, [r4, #0]
    340a:	2b3d      	cmp	r3, #61	; 0x3d
    340c:	d901      	bls.n	3412 <sendFrame+0x28>
        txHeader->rxtxBuffLenght = RF69_MAX_DATA_LEN;
    340e:	233d      	movs	r3, #61	; 0x3d
    3410:	7023      	strb	r3, [r4, #0]
    RF_select(); //enable data transfer
    3412:	f7ff fe89 	bl	3128 <RF_select>
    SPI_write(REG_FIFO | 0x80);
    3416:	2080      	movs	r0, #128	; 0x80
    3418:	f7ff faac 	bl	2974 <SPI_write>
    SPI_write(txHeader->rxtxBuffLenght + 4);
    341c:	7820      	ldrb	r0, [r4, #0]
    341e:	3004      	adds	r0, #4
    3420:	b2c0      	uxtb	r0, r0
    3422:	f7ff faa7 	bl	2974 <SPI_write>
    SPI_write(txHeader->destinationAddr);
    3426:	7860      	ldrb	r0, [r4, #1]
    3428:	f7ff faa4 	bl	2974 <SPI_write>
    SPI_write(txHeader->senderAddr);
    342c:	78a0      	ldrb	r0, [r4, #2]
    342e:	f7ff faa1 	bl	2974 <SPI_write>
    SPI_write(txHeader->opcode);
    3432:	78e0      	ldrb	r0, [r4, #3]
    3434:	f7ff fa9e 	bl	2974 <SPI_write>
    SPI_write(txHeader->dataCRC);
    3438:	79e0      	ldrb	r0, [r4, #7]
    343a:	f7ff fa9b 	bl	2974 <SPI_write>
	RFM69_WriteBuff((void *)buffer, txHeader->rxtxBuffLenght);
    343e:	7821      	ldrb	r1, [r4, #0]
    3440:	0028      	movs	r0, r5
    3442:	f7ff fa7d 	bl	2940 <RFM69_WriteBuff>
    RF_unselect(); 
    3446:	f7ff fe74 	bl	3132 <RF_unselect>
	setMode(RF69_MODE_TX);
    344a:	2004      	movs	r0, #4
    344c:	f7ff ff22 	bl	3294 <setMode>
	delay_ms(1);
    3450:	2001      	movs	r0, #1
    3452:	f7fe f84d 	bl	14f0 <delay_ms>
	uint16_t tx_timeout = RF69_TX_LIMIT_MS;
    3456:	2464      	movs	r4, #100	; 0x64
	while (readReg(REG_IRQFLAGS1) != RF_TX_DONE){
    3458:	2027      	movs	r0, #39	; 0x27
    345a:	f7ff fe6f 	bl	313c <readReg>
    345e:	28a0      	cmp	r0, #160	; 0xa0
    3460:	d007      	beq.n	3472 <sendFrame+0x88>
		tx_timeout--;
    3462:	3c01      	subs	r4, #1
    3464:	b2a4      	uxth	r4, r4
		if (tx_timeout==0){
    3466:	2c00      	cmp	r4, #0
    3468:	d003      	beq.n	3472 <sendFrame+0x88>
		delay_us(10);	
    346a:	200a      	movs	r0, #10
    346c:	f7fe f834 	bl	14d8 <delay_us>
    3470:	e7f2      	b.n	3458 <sendFrame+0x6e>
	setMode(RF69_MODE_RX);
    3472:	2003      	movs	r0, #3
    3474:	f7ff ff0e 	bl	3294 <setMode>
}
    3478:	bd70      	pop	{r4, r5, r6, pc}
	...

0000347c <data_ready>:

// Interrupt Service Routine

rfHeader* data_ready(){
    347c:	b510      	push	{r4, lr}
	
	if (readReg(REG_IRQFLAGS2) & RF_IRQFLAGS2_PAYLOADREADY){
    347e:	2028      	movs	r0, #40	; 0x28
    3480:	f7ff fe5c 	bl	313c <readReg>
    3484:	0743      	lsls	r3, r0, #29
    3486:	d404      	bmi.n	3492 <data_ready+0x16>
		writeReg(REG_OPMODE , RF69_ListenAbort);
		rfRxHeader.rssi = readRSSI(0);
		setMode(RF69_MODE_RX);
		return &rfRxHeader;
		}else{
		rfRxHeader.dataValid=0;
    3488:	2200      	movs	r2, #0
    348a:	4b1d      	ldr	r3, [pc, #116]	; (3500 <data_ready+0x84>)
    348c:	719a      	strb	r2, [r3, #6]
		return &rfRxHeader;
	}
}
    348e:	481c      	ldr	r0, [pc, #112]	; (3500 <data_ready+0x84>)
    3490:	bd10      	pop	{r4, pc}
		memset(DATA, 0, sizeof(DATA));
    3492:	223e      	movs	r2, #62	; 0x3e
    3494:	2100      	movs	r1, #0
    3496:	481b      	ldr	r0, [pc, #108]	; (3504 <data_ready+0x88>)
    3498:	f002 feb2 	bl	6200 <memset>
		writeReg(REG_OPMODE , RF69_MODE_STANDBY);
    349c:	2101      	movs	r1, #1
    349e:	2001      	movs	r0, #1
    34a0:	f7ff fe5b 	bl	315a <writeReg>
		RF_select();
    34a4:	f7ff fe40 	bl	3128 <RF_select>
		SPI_write(REG_FIFO);
    34a8:	2000      	movs	r0, #0
    34aa:	f7ff fa63 	bl	2974 <SPI_write>
		RFM69_ReadBuff(&rfRxHeader, 5);
    34ae:	4c14      	ldr	r4, [pc, #80]	; (3500 <data_ready+0x84>)
    34b0:	2105      	movs	r1, #5
    34b2:	0020      	movs	r0, r4
    34b4:	f7ff fa38 	bl	2928 <RFM69_ReadBuff>
		rfRxHeader.rxtxBuffLenght -= 5;
    34b8:	7823      	ldrb	r3, [r4, #0]
    34ba:	3b05      	subs	r3, #5
    34bc:	b2db      	uxtb	r3, r3
    34be:	7023      	strb	r3, [r4, #0]
		if(rfRxHeader.rxtxBuffLenght >= (RF69_MAX_DATA_LEN-5)){
    34c0:	2b37      	cmp	r3, #55	; 0x37
    34c2:	d919      	bls.n	34f8 <data_ready+0x7c>
			rfRxHeader.rxtxBuffLenght = RF69_MAX_DATA_LEN-5;
    34c4:	2238      	movs	r2, #56	; 0x38
    34c6:	4b0e      	ldr	r3, [pc, #56]	; (3500 <data_ready+0x84>)
    34c8:	701a      	strb	r2, [r3, #0]
		RFM69_ReadBuff(&DATA, rfRxHeader.rxtxBuffLenght);
    34ca:	4c0d      	ldr	r4, [pc, #52]	; (3500 <data_ready+0x84>)
    34cc:	7821      	ldrb	r1, [r4, #0]
    34ce:	480d      	ldr	r0, [pc, #52]	; (3504 <data_ready+0x88>)
    34d0:	f7ff fa2a 	bl	2928 <RFM69_ReadBuff>
		RF_unselect();
    34d4:	f7ff fe2d 	bl	3132 <RF_unselect>
		writeReg(REG_DIOMAPPING1 , 0x40);
    34d8:	2140      	movs	r1, #64	; 0x40
    34da:	2025      	movs	r0, #37	; 0x25
    34dc:	f7ff fe3d 	bl	315a <writeReg>
		writeReg(REG_OPMODE , RF69_ListenAbort);
    34e0:	2110      	movs	r1, #16
    34e2:	2001      	movs	r0, #1
    34e4:	f7ff fe39 	bl	315a <writeReg>
		rfRxHeader.rssi = readRSSI(0);
    34e8:	2000      	movs	r0, #0
    34ea:	f7ff ff69 	bl	33c0 <readRSSI>
    34ee:	80a0      	strh	r0, [r4, #4]
		setMode(RF69_MODE_RX);
    34f0:	2003      	movs	r0, #3
    34f2:	f7ff fecf 	bl	3294 <setMode>
		return &rfRxHeader;
    34f6:	e7ca      	b.n	348e <data_ready+0x12>
			rfRxHeader.dataValid=1;
    34f8:	2201      	movs	r2, #1
    34fa:	4b01      	ldr	r3, [pc, #4]	; (3500 <data_ready+0x84>)
    34fc:	719a      	strb	r2, [r3, #6]
    34fe:	e7e4      	b.n	34ca <data_ready+0x4e>
    3500:	20000f1c 	.word	0x20000f1c
    3504:	20000e40 	.word	0x20000e40

00003508 <simpleCRC>:


uint8_t simpleCRC(uint8_t *array, uint8_t length) {
    3508:	b510      	push	{r4, lr}
    350a:	0004      	movs	r4, r0
	uint8_t checksum = 0;

	for (size_t i = 0; i < length; ++i) {
    350c:	2200      	movs	r2, #0
	uint8_t checksum = 0;
    350e:	2300      	movs	r3, #0
	for (size_t i = 0; i < length; ++i) {
    3510:	e003      	b.n	351a <simpleCRC+0x12>
		checksum += array[i];
    3512:	5ca0      	ldrb	r0, [r4, r2]
    3514:	181b      	adds	r3, r3, r0
    3516:	b2db      	uxtb	r3, r3
	for (size_t i = 0; i < length; ++i) {
    3518:	3201      	adds	r2, #1
    351a:	428a      	cmp	r2, r1
    351c:	d3f9      	bcc.n	3512 <simpleCRC+0xa>
	}

	return checksum;
    351e:	0018      	movs	r0, r3
    3520:	bd10      	pop	{r4, pc}
	...

00003524 <rtc_int_enable>:
	"Sat"
};



void rtc_int_enable(rtc_date *RTCx){
    3524:	b570      	push	{r4, r5, r6, lr}
	rtc_config_3[1] |= (1 << TIE);
    3526:	4c0d      	ldr	r4, [pc, #52]	; (355c <rtc_int_enable+0x38>)
    3528:	7863      	ldrb	r3, [r4, #1]
    352a:	2210      	movs	r2, #16
    352c:	4313      	orrs	r3, r2
    352e:	7063      	strb	r3, [r4, #1]
	rtc_config_2[1] |= (1 << TD) | (1 << TE);
    3530:	4d0b      	ldr	r5, [pc, #44]	; (3560 <rtc_int_enable+0x3c>)
    3532:	786b      	ldrb	r3, [r5, #1]
    3534:	2211      	movs	r2, #17
    3536:	4313      	orrs	r3, r2
    3538:	706b      	strb	r3, [r5, #1]
	
	RTC_write_batch(RTC_ADDR, rtc_config_1,sizeof(rtc_config_1));
    353a:	2203      	movs	r2, #3
    353c:	4909      	ldr	r1, [pc, #36]	; (3564 <rtc_int_enable+0x40>)
    353e:	2032      	movs	r0, #50	; 0x32
    3540:	f7ff fd46 	bl	2fd0 <RTC_write_batch>
	RTC_write_batch(RTC_ADDR, rtc_config_2,sizeof(rtc_config_2));
    3544:	2202      	movs	r2, #2
    3546:	0029      	movs	r1, r5
    3548:	2032      	movs	r0, #50	; 0x32
    354a:	f7ff fd41 	bl	2fd0 <RTC_write_batch>
	RTC_write_batch(RTC_ADDR, rtc_config_3,sizeof(rtc_config_3));
    354e:	2202      	movs	r2, #2
    3550:	0021      	movs	r1, r4
    3552:	2032      	movs	r0, #50	; 0x32
    3554:	f7ff fd3c 	bl	2fd0 <RTC_write_batch>
	
	
}
    3558:	bd70      	pop	{r4, r5, r6, pc}
    355a:	46c0      	nop			; (mov r8, r8)
    355c:	2000000c 	.word	0x2000000c
    3560:	20000008 	.word	0x20000008
    3564:	20000004 	.word	0x20000004

00003568 <BCDtoDEC>:
	rtc_raw[7]=DECtoBCD(RTCx->year);
	RTC_write_batch(RTC_ADDR, rtc_raw,sizeof(rtc_raw));
}

uint8_t BCDtoDEC(uint8_t val)
{
    3568:	0001      	movs	r1, r0
	return ((val / 0x10) * 10) + (val % 0x10);
    356a:	0902      	lsrs	r2, r0, #4
    356c:	0093      	lsls	r3, r2, #2
    356e:	18d2      	adds	r2, r2, r3
    3570:	0053      	lsls	r3, r2, #1
    3572:	b2db      	uxtb	r3, r3
    3574:	200f      	movs	r0, #15
    3576:	4008      	ands	r0, r1
    3578:	1818      	adds	r0, r3, r0
    357a:	b2c0      	uxtb	r0, r0
}
    357c:	4770      	bx	lr

0000357e <rtc_sync>:
void rtc_sync(rtc_date *RTCx){
    357e:	b510      	push	{r4, lr}
    3580:	b082      	sub	sp, #8
    3582:	0004      	movs	r4, r0
	RTC_read_batch(RTC_ADDR, rtc_raw, sizeof(rtc_raw));
    3584:	2207      	movs	r2, #7
    3586:	4669      	mov	r1, sp
    3588:	2032      	movs	r0, #50	; 0x32
    358a:	f7ff fd37 	bl	2ffc <RTC_read_batch>
	RTCx->second=BCDtoDEC(rtc_raw[0]);
    358e:	466b      	mov	r3, sp
    3590:	7818      	ldrb	r0, [r3, #0]
    3592:	f7ff ffe9 	bl	3568 <BCDtoDEC>
    3596:	7020      	strb	r0, [r4, #0]
	RTCx->minute=BCDtoDEC(rtc_raw[1]);
    3598:	466b      	mov	r3, sp
    359a:	7858      	ldrb	r0, [r3, #1]
    359c:	f7ff ffe4 	bl	3568 <BCDtoDEC>
    35a0:	7060      	strb	r0, [r4, #1]
	RTCx->hour=BCDtoDEC(rtc_raw[2]);
    35a2:	466b      	mov	r3, sp
    35a4:	7898      	ldrb	r0, [r3, #2]
    35a6:	f7ff ffdf 	bl	3568 <BCDtoDEC>
    35aa:	70a0      	strb	r0, [r4, #2]
	RTCx->dayofweek=rtc_raw[3];
    35ac:	466b      	mov	r3, sp
    35ae:	78db      	ldrb	r3, [r3, #3]
    35b0:	7223      	strb	r3, [r4, #8]
	RTCx->date=BCDtoDEC(rtc_raw[4]);
    35b2:	466b      	mov	r3, sp
    35b4:	7918      	ldrb	r0, [r3, #4]
    35b6:	f7ff ffd7 	bl	3568 <BCDtoDEC>
    35ba:	70e0      	strb	r0, [r4, #3]
	RTCx->month=BCDtoDEC(rtc_raw[5]);
    35bc:	466b      	mov	r3, sp
    35be:	7958      	ldrb	r0, [r3, #5]
    35c0:	f7ff ffd2 	bl	3568 <BCDtoDEC>
    35c4:	7120      	strb	r0, [r4, #4]
	RTCx->year=BCDtoDEC(rtc_raw[6]);
    35c6:	466b      	mov	r3, sp
    35c8:	7998      	ldrb	r0, [r3, #6]
    35ca:	f7ff ffcd 	bl	3568 <BCDtoDEC>
    35ce:	80e0      	strh	r0, [r4, #6]
}
    35d0:	b002      	add	sp, #8
    35d2:	bd10      	pop	{r4, pc}

000035d4 <DECtoBCD>:

// BCDtoDEC -- convert decimal to binary-coded decimal (BCD)
uint8_t DECtoBCD(uint8_t val)
{
    35d4:	b570      	push	{r4, r5, r6, lr}
    35d6:	0005      	movs	r5, r0
	return ((val / 10) * 0x10) + (val % 10);
    35d8:	210a      	movs	r1, #10
    35da:	f000 fa07 	bl	39ec <__udivsi3>
    35de:	0100      	lsls	r0, r0, #4
    35e0:	b2c4      	uxtb	r4, r0
    35e2:	210a      	movs	r1, #10
    35e4:	0028      	movs	r0, r5
    35e6:	f000 fa87 	bl	3af8 <__aeabi_uidivmod>
    35ea:	1864      	adds	r4, r4, r1
    35ec:	b2e0      	uxtb	r0, r4
}
    35ee:	bd70      	pop	{r4, r5, r6, pc}

000035f0 <rtc_set>:
void rtc_set(rtc_date *RTCx){
    35f0:	b510      	push	{r4, lr}
    35f2:	b082      	sub	sp, #8
    35f4:	0004      	movs	r4, r0
	rtc_raw[0] = 0;
    35f6:	2300      	movs	r3, #0
    35f8:	466a      	mov	r2, sp
    35fa:	7013      	strb	r3, [r2, #0]
	rtc_raw[1]=DECtoBCD(RTCx->second);
    35fc:	7800      	ldrb	r0, [r0, #0]
    35fe:	f7ff ffe9 	bl	35d4 <DECtoBCD>
    3602:	466b      	mov	r3, sp
    3604:	7058      	strb	r0, [r3, #1]
	rtc_raw[2]=DECtoBCD(RTCx->minute);
    3606:	7860      	ldrb	r0, [r4, #1]
    3608:	f7ff ffe4 	bl	35d4 <DECtoBCD>
    360c:	466b      	mov	r3, sp
    360e:	7098      	strb	r0, [r3, #2]
	rtc_raw[3]=DECtoBCD(RTCx->hour);
    3610:	78a0      	ldrb	r0, [r4, #2]
    3612:	f7ff ffdf 	bl	35d4 <DECtoBCD>
    3616:	466b      	mov	r3, sp
    3618:	70d8      	strb	r0, [r3, #3]
	rtc_raw[4]=RTCx->dayofweek;
    361a:	7a23      	ldrb	r3, [r4, #8]
    361c:	466a      	mov	r2, sp
    361e:	7113      	strb	r3, [r2, #4]
	rtc_raw[5]=DECtoBCD(RTCx->date);
    3620:	78e0      	ldrb	r0, [r4, #3]
    3622:	f7ff ffd7 	bl	35d4 <DECtoBCD>
    3626:	466b      	mov	r3, sp
    3628:	7158      	strb	r0, [r3, #5]
	rtc_raw[6]=DECtoBCD(RTCx->month);
    362a:	7920      	ldrb	r0, [r4, #4]
    362c:	f7ff ffd2 	bl	35d4 <DECtoBCD>
    3630:	466b      	mov	r3, sp
    3632:	7198      	strb	r0, [r3, #6]
	rtc_raw[7]=DECtoBCD(RTCx->year);
    3634:	79a0      	ldrb	r0, [r4, #6]
    3636:	f7ff ffcd 	bl	35d4 <DECtoBCD>
    363a:	466b      	mov	r3, sp
    363c:	71d8      	strb	r0, [r3, #7]
	RTC_write_batch(RTC_ADDR, rtc_raw,sizeof(rtc_raw));
    363e:	2208      	movs	r2, #8
    3640:	4669      	mov	r1, sp
    3642:	2032      	movs	r0, #50	; 0x32
    3644:	f7ff fcc4 	bl	2fd0 <RTC_write_batch>
}
    3648:	b002      	add	sp, #8
    364a:	bd10      	pop	{r4, pc}

0000364c <main>:
//u8g2.setBitmapMode(1);

rgb_led led1 = {255, 128, 1};

int main(void)
{
    364c:	b5f0      	push	{r4, r5, r6, r7, lr}
    364e:	46d6      	mov	lr, sl
    3650:	4647      	mov	r7, r8
    3652:	b580      	push	{r7, lr}
    3654:	b0a1      	sub	sp, #132	; 0x84
	/* Initializes MCU, drivers and middleware */
	atmel_start_init();
    3656:	f7fc fd55 	bl	104 <atmel_start_init>
	
	EXT_SPI_init();
    365a:	f7ff f9ab 	bl	29b4 <EXT_SPI_init>
	RF_SPI_init();
    365e:	f7ff fad5 	bl	2c0c <RF_SPI_init>
	EXT_I2C_init();
    3662:	f7ff fbcd 	bl	2e00 <EXT_I2C_init>
	RTC_I2C_init();
    3666:	f7ff fc43 	bl	2ef0 <RTC_I2C_init>
	rtc_int_enable(&sys_rtc);
    366a:	48ca      	ldr	r0, [pc, #808]	; (3994 <main+0x348>)
    366c:	f7ff ff5a 	bl	3524 <rtc_int_enable>
	DEBUG_SERIAL_init();
    3670:	f7ff fd16 	bl	30a0 <DEBUG_SERIAL_init>
	rfm69_init(868, NODEID, NETWORKID);
    3674:	2221      	movs	r2, #33	; 0x21
    3676:	2121      	movs	r1, #33	; 0x21
    3678:	20d9      	movs	r0, #217	; 0xd9
    367a:	0080      	lsls	r0, r0, #2
    367c:	f7ff fd7e 	bl	317c <rfm69_init>
	setHighPower(true);
    3680:	2001      	movs	r0, #1
    3682:	f7ff fe71 	bl	3368 <setHighPower>
	uint8_t rtcData[24];
	uint8_t batData[24];
	//uint8_t spiRamData[33];
	//uint8_t spiDataBuffer[16];
	char debugString[128];
	uint8_t outputs_regs[] = {0x06, 0x07, 0xff};
    3686:	a907      	add	r1, sp, #28
    3688:	4bc3      	ldr	r3, [pc, #780]	; (3998 <main+0x34c>)
    368a:	881a      	ldrh	r2, [r3, #0]
    368c:	800a      	strh	r2, [r1, #0]
    368e:	789a      	ldrb	r2, [r3, #2]
    3690:	708a      	strb	r2, [r1, #2]
	uint8_t portValue[] = {0x02, 0xff, 0xff};
    3692:	aa06      	add	r2, sp, #24
    3694:	8898      	ldrh	r0, [r3, #4]
    3696:	8010      	strh	r0, [r2, #0]
    3698:	799b      	ldrb	r3, [r3, #6]
    369a:	7093      	strb	r3, [r2, #2]
	uint8_t lcdInitReq = 0;
	//rtc_set(&sys_rtc);
	uint8_t scrUpdateRequest = 0;
	uint8_t backLightTime = 10;
	uint8_t rfReportTime = REPORTMSGTIME;
	I2C_write_batch(0x27, (uint8_t *)&outputs_regs, 3);
    369c:	2203      	movs	r2, #3
    369e:	2027      	movs	r0, #39	; 0x27
    36a0:	f7ff fcc0 	bl	3024 <I2C_write_batch>
	((Port *)hw)->Group[submodule_index].OUTCLR.reg = mask;
    36a4:	25c0      	movs	r5, #192	; 0xc0
    36a6:	05ed      	lsls	r5, r5, #23
    36a8:	2480      	movs	r4, #128	; 0x80
    36aa:	616c      	str	r4, [r5, #20]

	
	gpio_set_pin_level(LCD_RST, false);
	delay_ms(10);
    36ac:	200a      	movs	r0, #10
    36ae:	f7fd ff1f 	bl	14f0 <delay_ms>
	((Port *)hw)->Group[submodule_index].OUTSET.reg = mask;
    36b2:	61ac      	str	r4, [r5, #24]
	gpio_set_pin_level(LCD_RST, true);
	delay_ms(10);
    36b4:	200a      	movs	r0, #10
    36b6:	f7fd ff1b 	bl	14f0 <delay_ms>
	
	u8g2_Setup_st7565_zolen_128x64_f( &lcd, U8G2_MIRROR_VERTICAL, vfd_spi, u8x8_avr_gpio_and_delay);	// contrast: 110
    36ba:	4cb8      	ldr	r4, [pc, #736]	; (399c <main+0x350>)
    36bc:	4bb8      	ldr	r3, [pc, #736]	; (39a0 <main+0x354>)
    36be:	4ab9      	ldr	r2, [pc, #740]	; (39a4 <main+0x358>)
    36c0:	49b9      	ldr	r1, [pc, #740]	; (39a8 <main+0x35c>)
    36c2:	0020      	movs	r0, r4
    36c4:	f7fc fec6 	bl	454 <u8g2_Setup_st7565_zolen_128x64_f>
	u8g2_InitDisplay(&lcd);
    36c8:	0020      	movs	r0, r4
    36ca:	f7fd fd49 	bl	1160 <u8x8_InitDisplay>

	u8g2_SetPowerSave(&lcd, 0);
    36ce:	2100      	movs	r1, #0
    36d0:	0020      	movs	r0, r4
    36d2:	f7fd fd4c 	bl	116e <u8x8_SetPowerSave>
	u8g2_SetFlipMode(&lcd, 1);
    36d6:	2101      	movs	r1, #1
    36d8:	0020      	movs	r0, r4
    36da:	f7fd fd4f 	bl	117c <u8x8_SetFlipMode>
	u8g2_SetContrast(&lcd, 110); //For LCD screen
    36de:	216e      	movs	r1, #110	; 0x6e
    36e0:	0020      	movs	r0, r4
    36e2:	f7fd fd52 	bl	118a <u8x8_SetContrast>

	u8g2_ClearBuffer(&lcd);
    36e6:	0020      	movs	r0, r4
    36e8:	f7fc fdcf 	bl	28a <u8g2_ClearBuffer>
	u8g2_SendBuffer(&lcd);
    36ec:	0020      	movs	r0, r4
    36ee:	f7fc fdd8 	bl	2a2 <u8g2_SendBuffer>
	
	//WDT->CLEAR.reg=0x5a;
	//u8g2_SetFont(&lcd, u8g2_font_ncenB14_tr);
	//u8g2_SetFont(&lcd, u8g2_font_courR08_tr);
	//u8g2_SetFont(&lcd, u8g2_font_cu12_t_symbols);
	u8g2_SetFont(&lcd, u8g2_font_Terminal_tr);
    36f2:	49ae      	ldr	r1, [pc, #696]	; (39ac <main+0x360>)
    36f4:	0020      	movs	r0, r4
    36f6:	f7fd f9c7 	bl	a88 <u8g2_SetFont>
	//u8g2_SetFont(&lcd, u8g2_font_battery19_tn); //battery icons
	
	u8g2_DrawRFrame(&lcd, 0, 0, 128 ,64, 5);
    36fa:	2305      	movs	r3, #5
    36fc:	9301      	str	r3, [sp, #4]
    36fe:	333b      	adds	r3, #59	; 0x3b
    3700:	9300      	str	r3, [sp, #0]
    3702:	3340      	adds	r3, #64	; 0x40
    3704:	2200      	movs	r2, #0
    3706:	2100      	movs	r1, #0
    3708:	0020      	movs	r0, r4
    370a:	f7fc fcff 	bl	10c <u8g2_DrawRFrame>
	u8g2_DrawStr(&lcd, 20, 15, (char *)__DATE__);//
    370e:	4ba8      	ldr	r3, [pc, #672]	; (39b0 <main+0x364>)
    3710:	220f      	movs	r2, #15
    3712:	2114      	movs	r1, #20
    3714:	0020      	movs	r0, r4
    3716:	f7fd f979 	bl	a0c <u8g2_DrawStr>
	u8g2_DrawStr(&lcd, 35, 30, (char *)__TIME__);//
    371a:	4ba6      	ldr	r3, [pc, #664]	; (39b4 <main+0x368>)
    371c:	221e      	movs	r2, #30
    371e:	2123      	movs	r1, #35	; 0x23
    3720:	0020      	movs	r0, r4
    3722:	f7fd f973 	bl	a0c <u8g2_DrawStr>
	u8g2_SetFont(&lcd, u8g2_font_courR08_tr);
    3726:	49a4      	ldr	r1, [pc, #656]	; (39b8 <main+0x36c>)
    3728:	0020      	movs	r0, r4
    372a:	f7fd f9ad 	bl	a88 <u8g2_SetFont>
	u8g2_DrawStr(&lcd, 7, 40, (char *)__TIMESTAMP__);//
    372e:	4ba3      	ldr	r3, [pc, #652]	; (39bc <main+0x370>)
    3730:	2228      	movs	r2, #40	; 0x28
    3732:	2107      	movs	r1, #7
    3734:	0020      	movs	r0, r4
    3736:	f7fd f969 	bl	a0c <u8g2_DrawStr>
	//u8g2_DrawStr(&lcd, 7, 49, (char *)__FILE__);//
	u8g2_SendBuffer(&lcd);
    373a:	0020      	movs	r0, r4
    373c:	f7fc fdb1 	bl	2a2 <u8g2_SendBuffer>
	
	
	PowerMeterInit(INA226ADR);
    3740:	2040      	movs	r0, #64	; 0x40
    3742:	f7fe fff1 	bl	2728 <PowerMeterInit>
	delay_ms(150);
    3746:	2096      	movs	r0, #150	; 0x96
    3748:	f7fd fed2 	bl	14f0 <delay_ms>
	
	 
		
	GCLK->CLKCTRL.reg = GCLK_CLKCTRL_ID_WDT |
    374c:	4a9c      	ldr	r2, [pc, #624]	; (39c0 <main+0x374>)
    374e:	4b9d      	ldr	r3, [pc, #628]	; (39c4 <main+0x378>)
    3750:	805a      	strh	r2, [r3, #2]
	GCLK_CLKCTRL_CLKEN |
	GCLK_CLKCTRL_GEN_GCLK3;	
	WDT->CLEAR.bit.CLEAR = 0xA5;
    3752:	22a5      	movs	r2, #165	; 0xa5
    3754:	4b9c      	ldr	r3, [pc, #624]	; (39c8 <main+0x37c>)
    3756:	721a      	strb	r2, [r3, #8]
	((Port *)hw)->Group[submodule_index].OUTCLR.reg = mask;
    3758:	3aa4      	subs	r2, #164	; 0xa4
    375a:	2394      	movs	r3, #148	; 0x94
    375c:	50ea      	str	r2, [r5, r3]
	uint8_t rfReportTime = REPORTMSGTIME;
    375e:	2503      	movs	r5, #3
	uint8_t backLightTime = 10;
    3760:	270a      	movs	r7, #10
	uint8_t scrUpdateRequest = 0;
    3762:	2400      	movs	r4, #0
		//delay_ms(100);
		//
	//}
		
	while (1) {
		WDT->CLEAR.bit.CLEAR = 0xA5;
    3764:	22a5      	movs	r2, #165	; 0xa5
    3766:	4b98      	ldr	r3, [pc, #608]	; (39c8 <main+0x37c>)
    3768:	721a      	strb	r2, [r3, #8]
		while(WDT->STATUS.bit.SYNCBUSY);
    376a:	4b97      	ldr	r3, [pc, #604]	; (39c8 <main+0x37c>)
    376c:	79db      	ldrb	r3, [r3, #7]
    376e:	09db      	lsrs	r3, r3, #7
    3770:	d1fb      	bne.n	376a <main+0x11e>
		
		if (EXT_I2C_IRQ_isReady()){
    3772:	f7ff f8b3 	bl	28dc <EXT_I2C_IRQ_isReady>
    3776:	2800      	cmp	r0, #0
    3778:	d17a      	bne.n	3870 <main+0x224>
			scrUpdateRequest = 1;
		}
		//sprintf(keyVal, "%02d;%02d;" , keyValues[0], keyValues[1]);
		//u8g2_DrawStr(&lcd, 70, 23, (char *)keyVal);

		if (rf_isReady()) {
    377a:	f7ff f8b7 	bl	28ec <rf_isReady>
    377e:	2800      	cmp	r0, #0
    3780:	d000      	beq.n	3784 <main+0x138>
    3782:	e09b      	b.n	38bc <main+0x270>
				break;
				default:
					delay_us(1);
			}}
		
		if (RTC_IRQ_Ready())
    3784:	f7ff f8a2 	bl	28cc <RTC_IRQ_Ready>
    3788:	2800      	cmp	r0, #0
    378a:	d000      	beq.n	378e <main+0x142>
    378c:	e0b8      	b.n	3900 <main+0x2b4>
			}
			I2C_write_batch(UI_MODULE, (uint8_t *)&portValue, sizeof(portValue));
			scrUpdateRequest = 1;
		}
		
		if (scrUpdateRequest){
    378e:	2c00      	cmp	r4, #0
    3790:	d0e8      	beq.n	3764 <main+0x118>
			//u8g2_InitDisplay(&lcd);
			
			u8g2_SetFont(&lcd, u8g2_font_courR08_tr);
    3792:	4c82      	ldr	r4, [pc, #520]	; (399c <main+0x350>)
    3794:	4988      	ldr	r1, [pc, #544]	; (39b8 <main+0x36c>)
    3796:	0020      	movs	r0, r4
    3798:	f7fd f976 	bl	a88 <u8g2_SetFont>
			u8g2_DrawStr(&lcd, 100, 11, (char *)rssiData);//
    379c:	ab1a      	add	r3, sp, #104	; 0x68
    379e:	220b      	movs	r2, #11
    37a0:	2164      	movs	r1, #100	; 0x64
    37a2:	0020      	movs	r0, r4
    37a4:	f7fd f932 	bl	a0c <u8g2_DrawStr>
			
			u8g2_SetFont(&lcd, u8g2_font_Terminal_tr);
    37a8:	4980      	ldr	r1, [pc, #512]	; (39ac <main+0x360>)
    37aa:	0020      	movs	r0, r4
    37ac:	f7fd f96c 	bl	a88 <u8g2_SetFont>
			sprintf(rtcData, "%02d:%02d:%02d", sys_rtc.hour, sys_rtc.minute, sys_rtc.second);
    37b0:	4978      	ldr	r1, [pc, #480]	; (3994 <main+0x348>)
    37b2:	788a      	ldrb	r2, [r1, #2]
    37b4:	784b      	ldrb	r3, [r1, #1]
    37b6:	7809      	ldrb	r1, [r1, #0]
    37b8:	9100      	str	r1, [sp, #0]
    37ba:	4984      	ldr	r1, [pc, #528]	; (39cc <main+0x380>)
    37bc:	a80e      	add	r0, sp, #56	; 0x38
    37be:	f002 fd69 	bl	6294 <sprintf>
			u8g2_DrawStr(&lcd, 20, 11, (char *)rtcData);//
    37c2:	ab0e      	add	r3, sp, #56	; 0x38
    37c4:	220b      	movs	r2, #11
    37c6:	2114      	movs	r1, #20
    37c8:	0020      	movs	r0, r4
    37ca:	f7fd f91f 	bl	a0c <u8g2_DrawStr>
			
			u8g2_DrawRFrame(&lcd, 0, 0, 128 ,64, 5);
    37ce:	2305      	movs	r3, #5
    37d0:	9301      	str	r3, [sp, #4]
    37d2:	333b      	adds	r3, #59	; 0x3b
    37d4:	9300      	str	r3, [sp, #0]
    37d6:	3340      	adds	r3, #64	; 0x40
    37d8:	2200      	movs	r2, #0
    37da:	2100      	movs	r1, #0
    37dc:	0020      	movs	r0, r4
    37de:	f7fc fc95 	bl	10c <u8g2_DrawRFrame>
			u8g2_DrawLine(&lcd, 3,12, 124,12);
    37e2:	230c      	movs	r3, #12
    37e4:	9300      	str	r3, [sp, #0]
    37e6:	3370      	adds	r3, #112	; 0x70
    37e8:	220c      	movs	r2, #12
    37ea:	2103      	movs	r1, #3
    37ec:	0020      	movs	r0, r4
    37ee:	f7fd fa43 	bl	c78 <u8g2_DrawLine>
			sprintf(batData, "%05dmV  %05dmA", battery.voltage, battery.current);
    37f2:	4e77      	ldr	r6, [pc, #476]	; (39d0 <main+0x384>)
    37f4:	6873      	ldr	r3, [r6, #4]
    37f6:	68b2      	ldr	r2, [r6, #8]
    37f8:	4976      	ldr	r1, [pc, #472]	; (39d4 <main+0x388>)
    37fa:	a808      	add	r0, sp, #32
    37fc:	f002 fd4a 	bl	6294 <sprintf>
			u8g2_DrawStr(&lcd, 3, 24, (char *)batData);
    3800:	ab08      	add	r3, sp, #32
    3802:	2218      	movs	r2, #24
    3804:	2103      	movs	r1, #3
    3806:	0020      	movs	r0, r4
    3808:	f7fd f900 	bl	a0c <u8g2_DrawStr>
						
			sprintf(batData, "%3.1fW  %3.3fWh", battery.power, battery.energy);
    380c:	6973      	ldr	r3, [r6, #20]
    380e:	469a      	mov	sl, r3
    3810:	6930      	ldr	r0, [r6, #16]
    3812:	f002 fa2b 	bl	5c6c <__aeabi_f2d>
    3816:	9002      	str	r0, [sp, #8]
    3818:	9103      	str	r1, [sp, #12]
    381a:	4650      	mov	r0, sl
    381c:	f002 fa26 	bl	5c6c <__aeabi_f2d>
    3820:	9000      	str	r0, [sp, #0]
    3822:	9101      	str	r1, [sp, #4]
    3824:	9a02      	ldr	r2, [sp, #8]
    3826:	9b03      	ldr	r3, [sp, #12]
    3828:	496b      	ldr	r1, [pc, #428]	; (39d8 <main+0x38c>)
    382a:	a808      	add	r0, sp, #32
    382c:	f002 fd32 	bl	6294 <sprintf>
			u8g2_DrawStr(&lcd, 3, 35, (char *)batData);
    3830:	ab08      	add	r3, sp, #32
    3832:	2223      	movs	r2, #35	; 0x23
    3834:	2103      	movs	r1, #3
    3836:	0020      	movs	r0, r4
    3838:	f7fd f8e8 	bl	a0c <u8g2_DrawStr>
			
			sprintf(batData, "%03d Err: %2.1fWh", battery.capacity, battery.lastChargerErr);
    383c:	7b33      	ldrb	r3, [r6, #12]
    383e:	4698      	mov	r8, r3
    3840:	69b0      	ldr	r0, [r6, #24]
    3842:	f002 fa13 	bl	5c6c <__aeabi_f2d>
    3846:	9000      	str	r0, [sp, #0]
    3848:	9101      	str	r1, [sp, #4]
    384a:	4642      	mov	r2, r8
    384c:	4963      	ldr	r1, [pc, #396]	; (39dc <main+0x390>)
    384e:	a808      	add	r0, sp, #32
    3850:	f002 fd20 	bl	6294 <sprintf>
			u8g2_DrawStr(&lcd, 3, 46, (char *)batData);
    3854:	ab08      	add	r3, sp, #32
    3856:	222e      	movs	r2, #46	; 0x2e
    3858:	2103      	movs	r1, #3
    385a:	0020      	movs	r0, r4
    385c:	f7fd f8d6 	bl	a0c <u8g2_DrawStr>
			
			u8g2_SendBuffer(&lcd);
    3860:	0020      	movs	r0, r4
    3862:	f7fc fd1e 	bl	2a2 <u8g2_SendBuffer>
			u8g2_ClearBuffer(&lcd);
    3866:	0020      	movs	r0, r4
    3868:	f7fc fd0f 	bl	28a <u8g2_ClearBuffer>
			scrUpdateRequest = 0;
    386c:	2400      	movs	r4, #0
    386e:	e779      	b.n	3764 <main+0x118>
			delay_ms(10);
    3870:	200a      	movs	r0, #10
    3872:	f7fd fe3d 	bl	14f0 <delay_ms>
			I2C_read_batch(UI_MODULE, (uint8_t *)&keyValues, sizeof(keyValues));
    3876:	ac05      	add	r4, sp, #20
    3878:	2202      	movs	r2, #2
    387a:	0021      	movs	r1, r4
    387c:	2027      	movs	r0, #39	; 0x27
    387e:	f7ff fbe7 	bl	3050 <I2C_read_batch>
			if (GET_BIT(keyValues[0], EXT_SV3) && GET_BIT(keyValues[0], EXT_SV1) == 0){
    3882:	7822      	ldrb	r2, [r4, #0]
    3884:	2301      	movs	r3, #1
    3886:	4013      	ands	r3, r2
    3888:	d007      	beq.n	389a <main+0x24e>
    388a:	0751      	lsls	r1, r2, #29
    388c:	d405      	bmi.n	389a <main+0x24e>
				SET_BIT(portValue[1], LCD_BLK);
    388e:	a806      	add	r0, sp, #24
    3890:	7841      	ldrb	r1, [r0, #1]
    3892:	2410      	movs	r4, #16
    3894:	4321      	orrs	r1, r4
    3896:	7041      	strb	r1, [r0, #1]
				backLightTime = BACKLIGHTTIME;
    3898:	270a      	movs	r7, #10
			if (GET_BIT(keyValues[0], EXT_SV1) && GET_BIT(keyValues[0], EXT_SV3) == 0){
    389a:	0752      	lsls	r2, r2, #29
    389c:	d507      	bpl.n	38ae <main+0x262>
    389e:	2b00      	cmp	r3, #0
    38a0:	d105      	bne.n	38ae <main+0x262>
				SET_BIT(portValue[1], LCD_BLK);
    38a2:	aa06      	add	r2, sp, #24
    38a4:	7853      	ldrb	r3, [r2, #1]
    38a6:	2110      	movs	r1, #16
    38a8:	430b      	orrs	r3, r1
    38aa:	7053      	strb	r3, [r2, #1]
				backLightTime = BACKLIGHTTIME;
    38ac:	270a      	movs	r7, #10
			I2C_write_batch(UI_MODULE, (uint8_t *)&portValue, sizeof(portValue));
    38ae:	2203      	movs	r2, #3
    38b0:	a906      	add	r1, sp, #24
    38b2:	2027      	movs	r0, #39	; 0x27
    38b4:	f7ff fbb6 	bl	3024 <I2C_write_batch>
			scrUpdateRequest = 1;
    38b8:	2401      	movs	r4, #1
    38ba:	e75e      	b.n	377a <main+0x12e>
			rfHeader* rfRxDataMsg=rfMsgType();
    38bc:	f7ff f82e 	bl	291c <rfMsgType>
    38c0:	0006      	movs	r6, r0
			sprintf((char *)rssiData, "%04d" , rfRxDataMsg->rssi);
    38c2:	2304      	movs	r3, #4
    38c4:	5ec2      	ldrsh	r2, [r0, r3]
    38c6:	4946      	ldr	r1, [pc, #280]	; (39e0 <main+0x394>)
    38c8:	a81a      	add	r0, sp, #104	; 0x68
    38ca:	f002 fce3 	bl	6294 <sprintf>
			switch(rfRxDataMsg->opcode) {
    38ce:	78f3      	ldrb	r3, [r6, #3]
    38d0:	2b81      	cmp	r3, #129	; 0x81
    38d2:	d007      	beq.n	38e4 <main+0x298>
    38d4:	2b82      	cmp	r3, #130	; 0x82
    38d6:	d10f      	bne.n	38f8 <main+0x2ac>
					memcpy(&testMsg, DATA, sizeof(testMsg));
    38d8:	2218      	movs	r2, #24
    38da:	4942      	ldr	r1, [pc, #264]	; (39e4 <main+0x398>)
    38dc:	a814      	add	r0, sp, #80	; 0x50
    38de:	f002 fc4d 	bl	617c <memcpy>
				break;
    38e2:	e74f      	b.n	3784 <main+0x138>
					memcpy(&sys_rtc, DATA, sizeof(sys_rtc));
    38e4:	4e2b      	ldr	r6, [pc, #172]	; (3994 <main+0x348>)
    38e6:	220a      	movs	r2, #10
    38e8:	493e      	ldr	r1, [pc, #248]	; (39e4 <main+0x398>)
    38ea:	0030      	movs	r0, r6
    38ec:	f002 fc46 	bl	617c <memcpy>
					rtc_set(&sys_rtc);
    38f0:	0030      	movs	r0, r6
    38f2:	f7ff fe7d 	bl	35f0 <rtc_set>
    38f6:	e745      	b.n	3784 <main+0x138>
					delay_us(1);
    38f8:	2001      	movs	r0, #1
    38fa:	f7fd fded 	bl	14d8 <delay_us>
    38fe:	e741      	b.n	3784 <main+0x138>
			rtc_sync(&sys_rtc);
    3900:	4824      	ldr	r0, [pc, #144]	; (3994 <main+0x348>)
    3902:	f7ff fe3c 	bl	357e <rtc_sync>
			PowerMeterMeasure(&battery);
    3906:	4832      	ldr	r0, [pc, #200]	; (39d0 <main+0x384>)
    3908:	f7fe ff36 	bl	2778 <PowerMeterMeasure>
			if (backLightTime !=0){
    390c:	2f00      	cmp	r7, #0
    390e:	d020      	beq.n	3952 <main+0x306>
				SET_BIT(portValue[1], LCD_BLK);
    3910:	aa06      	add	r2, sp, #24
    3912:	7853      	ldrb	r3, [r2, #1]
    3914:	2110      	movs	r1, #16
    3916:	430b      	orrs	r3, r1
    3918:	7053      	strb	r3, [r2, #1]
				backLightTime--;
    391a:	3f01      	subs	r7, #1
    391c:	b2ff      	uxtb	r7, r7
			if (abs(battery.current) > 20){
    391e:	4b2c      	ldr	r3, [pc, #176]	; (39d0 <main+0x384>)
    3920:	685b      	ldr	r3, [r3, #4]
    3922:	17d9      	asrs	r1, r3, #31
    3924:	185a      	adds	r2, r3, r1
    3926:	404a      	eors	r2, r1
    3928:	2a14      	cmp	r2, #20
    392a:	dd00      	ble.n	392e <main+0x2e2>
				backLightTime=BACKLIGHTTIME;
    392c:	270a      	movs	r7, #10
			if (battery.current > 30){
    392e:	2b1e      	cmp	r3, #30
    3930:	dd15      	ble.n	395e <main+0x312>
				RESET_BIT(portValue[1], EXT_LED);
    3932:	aa06      	add	r2, sp, #24
    3934:	7853      	ldrb	r3, [r2, #1]
    3936:	2108      	movs	r1, #8
    3938:	438b      	bics	r3, r1
    393a:	7053      	strb	r3, [r2, #1]
			if(rfReportTime==0 && RADIOMODE){
    393c:	2d00      	cmp	r5, #0
    393e:	d014      	beq.n	396a <main+0x31e>
				rfReportTime--;
    3940:	3d01      	subs	r5, #1
    3942:	b2ed      	uxtb	r5, r5
			I2C_write_batch(UI_MODULE, (uint8_t *)&portValue, sizeof(portValue));
    3944:	2203      	movs	r2, #3
    3946:	a906      	add	r1, sp, #24
    3948:	2027      	movs	r0, #39	; 0x27
    394a:	f7ff fb6b 	bl	3024 <I2C_write_batch>
			scrUpdateRequest = 1;
    394e:	2401      	movs	r4, #1
    3950:	e71d      	b.n	378e <main+0x142>
				RESET_BIT(portValue[1], LCD_BLK);
    3952:	aa06      	add	r2, sp, #24
    3954:	7853      	ldrb	r3, [r2, #1]
    3956:	2110      	movs	r1, #16
    3958:	438b      	bics	r3, r1
    395a:	7053      	strb	r3, [r2, #1]
    395c:	e7df      	b.n	391e <main+0x2d2>
				SET_BIT(portValue[1], EXT_LED);
    395e:	aa06      	add	r2, sp, #24
    3960:	7853      	ldrb	r3, [r2, #1]
    3962:	2108      	movs	r1, #8
    3964:	430b      	orrs	r3, r1
    3966:	7053      	strb	r3, [r2, #1]
    3968:	e7e8      	b.n	393c <main+0x2f0>
				rfTxDataPack.destinationAddr = ALLNODES;
    396a:	4c1f      	ldr	r4, [pc, #124]	; (39e8 <main+0x39c>)
    396c:	23fe      	movs	r3, #254	; 0xfe
    396e:	7063      	strb	r3, [r4, #1]
				rfTxDataPack.senderAddr = NODEID;
    3970:	3bdd      	subs	r3, #221	; 0xdd
    3972:	70a3      	strb	r3, [r4, #2]
				rfTxDataPack.opcode = POWERBANK;
    3974:	3362      	adds	r3, #98	; 0x62
    3976:	70e3      	strb	r3, [r4, #3]
				rfTxDataPack.rxtxBuffLenght = sizeof(battery);
    3978:	3b67      	subs	r3, #103	; 0x67
    397a:	7023      	strb	r3, [r4, #0]
				rfTxDataPack.dataCRC = simpleCRC(&battery, sizeof(battery));
    397c:	4d14      	ldr	r5, [pc, #80]	; (39d0 <main+0x384>)
    397e:	211c      	movs	r1, #28
    3980:	0028      	movs	r0, r5
    3982:	f7ff fdc1 	bl	3508 <simpleCRC>
    3986:	71e0      	strb	r0, [r4, #7]
				sendFrame(&rfTxDataPack, &battery);
    3988:	0029      	movs	r1, r5
    398a:	0020      	movs	r0, r4
    398c:	f7ff fd2d 	bl	33ea <sendFrame>
				rfReportTime=REPORTMSGTIME;
    3990:	2503      	movs	r5, #3
    3992:	e7d7      	b.n	3944 <main+0x2f8>
    3994:	20000010 	.word	0x20000010
    3998:	0000b138 	.word	0x0000b138
    399c:	20000fb8 	.word	0x20000fb8
    39a0:	00002b97 	.word	0x00002b97
    39a4:	00002b9d 	.word	0x00002b9d
    39a8:	0000af44 	.word	0x0000af44
    39ac:	0000a6e8 	.word	0x0000a6e8
    39b0:	0000b140 	.word	0x0000b140
    39b4:	0000b14c 	.word	0x0000b14c
    39b8:	0000ab7c 	.word	0x0000ab7c
    39bc:	0000b158 	.word	0x0000b158
    39c0:	00004301 	.word	0x00004301
    39c4:	40000c00 	.word	0x40000c00
    39c8:	40001000 	.word	0x40001000
    39cc:	0000b17c 	.word	0x0000b17c
    39d0:	20001054 	.word	0x20001054
    39d4:	0000b18c 	.word	0x0000b18c
    39d8:	0000b19c 	.word	0x0000b19c
    39dc:	0000b1ac 	.word	0x0000b1ac
    39e0:	0000b174 	.word	0x0000b174
    39e4:	20000e40 	.word	0x20000e40
    39e8:	20001074 	.word	0x20001074

000039ec <__udivsi3>:
    39ec:	2200      	movs	r2, #0
    39ee:	0843      	lsrs	r3, r0, #1
    39f0:	428b      	cmp	r3, r1
    39f2:	d374      	bcc.n	3ade <__udivsi3+0xf2>
    39f4:	0903      	lsrs	r3, r0, #4
    39f6:	428b      	cmp	r3, r1
    39f8:	d35f      	bcc.n	3aba <__udivsi3+0xce>
    39fa:	0a03      	lsrs	r3, r0, #8
    39fc:	428b      	cmp	r3, r1
    39fe:	d344      	bcc.n	3a8a <__udivsi3+0x9e>
    3a00:	0b03      	lsrs	r3, r0, #12
    3a02:	428b      	cmp	r3, r1
    3a04:	d328      	bcc.n	3a58 <__udivsi3+0x6c>
    3a06:	0c03      	lsrs	r3, r0, #16
    3a08:	428b      	cmp	r3, r1
    3a0a:	d30d      	bcc.n	3a28 <__udivsi3+0x3c>
    3a0c:	22ff      	movs	r2, #255	; 0xff
    3a0e:	0209      	lsls	r1, r1, #8
    3a10:	ba12      	rev	r2, r2
    3a12:	0c03      	lsrs	r3, r0, #16
    3a14:	428b      	cmp	r3, r1
    3a16:	d302      	bcc.n	3a1e <__udivsi3+0x32>
    3a18:	1212      	asrs	r2, r2, #8
    3a1a:	0209      	lsls	r1, r1, #8
    3a1c:	d065      	beq.n	3aea <__udivsi3+0xfe>
    3a1e:	0b03      	lsrs	r3, r0, #12
    3a20:	428b      	cmp	r3, r1
    3a22:	d319      	bcc.n	3a58 <__udivsi3+0x6c>
    3a24:	e000      	b.n	3a28 <__udivsi3+0x3c>
    3a26:	0a09      	lsrs	r1, r1, #8
    3a28:	0bc3      	lsrs	r3, r0, #15
    3a2a:	428b      	cmp	r3, r1
    3a2c:	d301      	bcc.n	3a32 <__udivsi3+0x46>
    3a2e:	03cb      	lsls	r3, r1, #15
    3a30:	1ac0      	subs	r0, r0, r3
    3a32:	4152      	adcs	r2, r2
    3a34:	0b83      	lsrs	r3, r0, #14
    3a36:	428b      	cmp	r3, r1
    3a38:	d301      	bcc.n	3a3e <__udivsi3+0x52>
    3a3a:	038b      	lsls	r3, r1, #14
    3a3c:	1ac0      	subs	r0, r0, r3
    3a3e:	4152      	adcs	r2, r2
    3a40:	0b43      	lsrs	r3, r0, #13
    3a42:	428b      	cmp	r3, r1
    3a44:	d301      	bcc.n	3a4a <__udivsi3+0x5e>
    3a46:	034b      	lsls	r3, r1, #13
    3a48:	1ac0      	subs	r0, r0, r3
    3a4a:	4152      	adcs	r2, r2
    3a4c:	0b03      	lsrs	r3, r0, #12
    3a4e:	428b      	cmp	r3, r1
    3a50:	d301      	bcc.n	3a56 <__udivsi3+0x6a>
    3a52:	030b      	lsls	r3, r1, #12
    3a54:	1ac0      	subs	r0, r0, r3
    3a56:	4152      	adcs	r2, r2
    3a58:	0ac3      	lsrs	r3, r0, #11
    3a5a:	428b      	cmp	r3, r1
    3a5c:	d301      	bcc.n	3a62 <__udivsi3+0x76>
    3a5e:	02cb      	lsls	r3, r1, #11
    3a60:	1ac0      	subs	r0, r0, r3
    3a62:	4152      	adcs	r2, r2
    3a64:	0a83      	lsrs	r3, r0, #10
    3a66:	428b      	cmp	r3, r1
    3a68:	d301      	bcc.n	3a6e <__udivsi3+0x82>
    3a6a:	028b      	lsls	r3, r1, #10
    3a6c:	1ac0      	subs	r0, r0, r3
    3a6e:	4152      	adcs	r2, r2
    3a70:	0a43      	lsrs	r3, r0, #9
    3a72:	428b      	cmp	r3, r1
    3a74:	d301      	bcc.n	3a7a <__udivsi3+0x8e>
    3a76:	024b      	lsls	r3, r1, #9
    3a78:	1ac0      	subs	r0, r0, r3
    3a7a:	4152      	adcs	r2, r2
    3a7c:	0a03      	lsrs	r3, r0, #8
    3a7e:	428b      	cmp	r3, r1
    3a80:	d301      	bcc.n	3a86 <__udivsi3+0x9a>
    3a82:	020b      	lsls	r3, r1, #8
    3a84:	1ac0      	subs	r0, r0, r3
    3a86:	4152      	adcs	r2, r2
    3a88:	d2cd      	bcs.n	3a26 <__udivsi3+0x3a>
    3a8a:	09c3      	lsrs	r3, r0, #7
    3a8c:	428b      	cmp	r3, r1
    3a8e:	d301      	bcc.n	3a94 <__udivsi3+0xa8>
    3a90:	01cb      	lsls	r3, r1, #7
    3a92:	1ac0      	subs	r0, r0, r3
    3a94:	4152      	adcs	r2, r2
    3a96:	0983      	lsrs	r3, r0, #6
    3a98:	428b      	cmp	r3, r1
    3a9a:	d301      	bcc.n	3aa0 <__udivsi3+0xb4>
    3a9c:	018b      	lsls	r3, r1, #6
    3a9e:	1ac0      	subs	r0, r0, r3
    3aa0:	4152      	adcs	r2, r2
    3aa2:	0943      	lsrs	r3, r0, #5
    3aa4:	428b      	cmp	r3, r1
    3aa6:	d301      	bcc.n	3aac <__udivsi3+0xc0>
    3aa8:	014b      	lsls	r3, r1, #5
    3aaa:	1ac0      	subs	r0, r0, r3
    3aac:	4152      	adcs	r2, r2
    3aae:	0903      	lsrs	r3, r0, #4
    3ab0:	428b      	cmp	r3, r1
    3ab2:	d301      	bcc.n	3ab8 <__udivsi3+0xcc>
    3ab4:	010b      	lsls	r3, r1, #4
    3ab6:	1ac0      	subs	r0, r0, r3
    3ab8:	4152      	adcs	r2, r2
    3aba:	08c3      	lsrs	r3, r0, #3
    3abc:	428b      	cmp	r3, r1
    3abe:	d301      	bcc.n	3ac4 <__udivsi3+0xd8>
    3ac0:	00cb      	lsls	r3, r1, #3
    3ac2:	1ac0      	subs	r0, r0, r3
    3ac4:	4152      	adcs	r2, r2
    3ac6:	0883      	lsrs	r3, r0, #2
    3ac8:	428b      	cmp	r3, r1
    3aca:	d301      	bcc.n	3ad0 <__udivsi3+0xe4>
    3acc:	008b      	lsls	r3, r1, #2
    3ace:	1ac0      	subs	r0, r0, r3
    3ad0:	4152      	adcs	r2, r2
    3ad2:	0843      	lsrs	r3, r0, #1
    3ad4:	428b      	cmp	r3, r1
    3ad6:	d301      	bcc.n	3adc <__udivsi3+0xf0>
    3ad8:	004b      	lsls	r3, r1, #1
    3ada:	1ac0      	subs	r0, r0, r3
    3adc:	4152      	adcs	r2, r2
    3ade:	1a41      	subs	r1, r0, r1
    3ae0:	d200      	bcs.n	3ae4 <__udivsi3+0xf8>
    3ae2:	4601      	mov	r1, r0
    3ae4:	4152      	adcs	r2, r2
    3ae6:	4610      	mov	r0, r2
    3ae8:	4770      	bx	lr
    3aea:	e7ff      	b.n	3aec <__udivsi3+0x100>
    3aec:	b501      	push	{r0, lr}
    3aee:	2000      	movs	r0, #0
    3af0:	f000 f8f0 	bl	3cd4 <__aeabi_idiv0>
    3af4:	bd02      	pop	{r1, pc}
    3af6:	46c0      	nop			; (mov r8, r8)

00003af8 <__aeabi_uidivmod>:
    3af8:	2900      	cmp	r1, #0
    3afa:	d0f7      	beq.n	3aec <__udivsi3+0x100>
    3afc:	e776      	b.n	39ec <__udivsi3>
    3afe:	4770      	bx	lr

00003b00 <__divsi3>:
    3b00:	4603      	mov	r3, r0
    3b02:	430b      	orrs	r3, r1
    3b04:	d47f      	bmi.n	3c06 <__divsi3+0x106>
    3b06:	2200      	movs	r2, #0
    3b08:	0843      	lsrs	r3, r0, #1
    3b0a:	428b      	cmp	r3, r1
    3b0c:	d374      	bcc.n	3bf8 <__divsi3+0xf8>
    3b0e:	0903      	lsrs	r3, r0, #4
    3b10:	428b      	cmp	r3, r1
    3b12:	d35f      	bcc.n	3bd4 <__divsi3+0xd4>
    3b14:	0a03      	lsrs	r3, r0, #8
    3b16:	428b      	cmp	r3, r1
    3b18:	d344      	bcc.n	3ba4 <__divsi3+0xa4>
    3b1a:	0b03      	lsrs	r3, r0, #12
    3b1c:	428b      	cmp	r3, r1
    3b1e:	d328      	bcc.n	3b72 <__divsi3+0x72>
    3b20:	0c03      	lsrs	r3, r0, #16
    3b22:	428b      	cmp	r3, r1
    3b24:	d30d      	bcc.n	3b42 <__divsi3+0x42>
    3b26:	22ff      	movs	r2, #255	; 0xff
    3b28:	0209      	lsls	r1, r1, #8
    3b2a:	ba12      	rev	r2, r2
    3b2c:	0c03      	lsrs	r3, r0, #16
    3b2e:	428b      	cmp	r3, r1
    3b30:	d302      	bcc.n	3b38 <__divsi3+0x38>
    3b32:	1212      	asrs	r2, r2, #8
    3b34:	0209      	lsls	r1, r1, #8
    3b36:	d065      	beq.n	3c04 <__divsi3+0x104>
    3b38:	0b03      	lsrs	r3, r0, #12
    3b3a:	428b      	cmp	r3, r1
    3b3c:	d319      	bcc.n	3b72 <__divsi3+0x72>
    3b3e:	e000      	b.n	3b42 <__divsi3+0x42>
    3b40:	0a09      	lsrs	r1, r1, #8
    3b42:	0bc3      	lsrs	r3, r0, #15
    3b44:	428b      	cmp	r3, r1
    3b46:	d301      	bcc.n	3b4c <__divsi3+0x4c>
    3b48:	03cb      	lsls	r3, r1, #15
    3b4a:	1ac0      	subs	r0, r0, r3
    3b4c:	4152      	adcs	r2, r2
    3b4e:	0b83      	lsrs	r3, r0, #14
    3b50:	428b      	cmp	r3, r1
    3b52:	d301      	bcc.n	3b58 <__divsi3+0x58>
    3b54:	038b      	lsls	r3, r1, #14
    3b56:	1ac0      	subs	r0, r0, r3
    3b58:	4152      	adcs	r2, r2
    3b5a:	0b43      	lsrs	r3, r0, #13
    3b5c:	428b      	cmp	r3, r1
    3b5e:	d301      	bcc.n	3b64 <__divsi3+0x64>
    3b60:	034b      	lsls	r3, r1, #13
    3b62:	1ac0      	subs	r0, r0, r3
    3b64:	4152      	adcs	r2, r2
    3b66:	0b03      	lsrs	r3, r0, #12
    3b68:	428b      	cmp	r3, r1
    3b6a:	d301      	bcc.n	3b70 <__divsi3+0x70>
    3b6c:	030b      	lsls	r3, r1, #12
    3b6e:	1ac0      	subs	r0, r0, r3
    3b70:	4152      	adcs	r2, r2
    3b72:	0ac3      	lsrs	r3, r0, #11
    3b74:	428b      	cmp	r3, r1
    3b76:	d301      	bcc.n	3b7c <__divsi3+0x7c>
    3b78:	02cb      	lsls	r3, r1, #11
    3b7a:	1ac0      	subs	r0, r0, r3
    3b7c:	4152      	adcs	r2, r2
    3b7e:	0a83      	lsrs	r3, r0, #10
    3b80:	428b      	cmp	r3, r1
    3b82:	d301      	bcc.n	3b88 <__divsi3+0x88>
    3b84:	028b      	lsls	r3, r1, #10
    3b86:	1ac0      	subs	r0, r0, r3
    3b88:	4152      	adcs	r2, r2
    3b8a:	0a43      	lsrs	r3, r0, #9
    3b8c:	428b      	cmp	r3, r1
    3b8e:	d301      	bcc.n	3b94 <__divsi3+0x94>
    3b90:	024b      	lsls	r3, r1, #9
    3b92:	1ac0      	subs	r0, r0, r3
    3b94:	4152      	adcs	r2, r2
    3b96:	0a03      	lsrs	r3, r0, #8
    3b98:	428b      	cmp	r3, r1
    3b9a:	d301      	bcc.n	3ba0 <__divsi3+0xa0>
    3b9c:	020b      	lsls	r3, r1, #8
    3b9e:	1ac0      	subs	r0, r0, r3
    3ba0:	4152      	adcs	r2, r2
    3ba2:	d2cd      	bcs.n	3b40 <__divsi3+0x40>
    3ba4:	09c3      	lsrs	r3, r0, #7
    3ba6:	428b      	cmp	r3, r1
    3ba8:	d301      	bcc.n	3bae <__divsi3+0xae>
    3baa:	01cb      	lsls	r3, r1, #7
    3bac:	1ac0      	subs	r0, r0, r3
    3bae:	4152      	adcs	r2, r2
    3bb0:	0983      	lsrs	r3, r0, #6
    3bb2:	428b      	cmp	r3, r1
    3bb4:	d301      	bcc.n	3bba <__divsi3+0xba>
    3bb6:	018b      	lsls	r3, r1, #6
    3bb8:	1ac0      	subs	r0, r0, r3
    3bba:	4152      	adcs	r2, r2
    3bbc:	0943      	lsrs	r3, r0, #5
    3bbe:	428b      	cmp	r3, r1
    3bc0:	d301      	bcc.n	3bc6 <__divsi3+0xc6>
    3bc2:	014b      	lsls	r3, r1, #5
    3bc4:	1ac0      	subs	r0, r0, r3
    3bc6:	4152      	adcs	r2, r2
    3bc8:	0903      	lsrs	r3, r0, #4
    3bca:	428b      	cmp	r3, r1
    3bcc:	d301      	bcc.n	3bd2 <__divsi3+0xd2>
    3bce:	010b      	lsls	r3, r1, #4
    3bd0:	1ac0      	subs	r0, r0, r3
    3bd2:	4152      	adcs	r2, r2
    3bd4:	08c3      	lsrs	r3, r0, #3
    3bd6:	428b      	cmp	r3, r1
    3bd8:	d301      	bcc.n	3bde <__divsi3+0xde>
    3bda:	00cb      	lsls	r3, r1, #3
    3bdc:	1ac0      	subs	r0, r0, r3
    3bde:	4152      	adcs	r2, r2
    3be0:	0883      	lsrs	r3, r0, #2
    3be2:	428b      	cmp	r3, r1
    3be4:	d301      	bcc.n	3bea <__divsi3+0xea>
    3be6:	008b      	lsls	r3, r1, #2
    3be8:	1ac0      	subs	r0, r0, r3
    3bea:	4152      	adcs	r2, r2
    3bec:	0843      	lsrs	r3, r0, #1
    3bee:	428b      	cmp	r3, r1
    3bf0:	d301      	bcc.n	3bf6 <__divsi3+0xf6>
    3bf2:	004b      	lsls	r3, r1, #1
    3bf4:	1ac0      	subs	r0, r0, r3
    3bf6:	4152      	adcs	r2, r2
    3bf8:	1a41      	subs	r1, r0, r1
    3bfa:	d200      	bcs.n	3bfe <__divsi3+0xfe>
    3bfc:	4601      	mov	r1, r0
    3bfe:	4152      	adcs	r2, r2
    3c00:	4610      	mov	r0, r2
    3c02:	4770      	bx	lr
    3c04:	e05d      	b.n	3cc2 <__divsi3+0x1c2>
    3c06:	0fca      	lsrs	r2, r1, #31
    3c08:	d000      	beq.n	3c0c <__divsi3+0x10c>
    3c0a:	4249      	negs	r1, r1
    3c0c:	1003      	asrs	r3, r0, #32
    3c0e:	d300      	bcc.n	3c12 <__divsi3+0x112>
    3c10:	4240      	negs	r0, r0
    3c12:	4053      	eors	r3, r2
    3c14:	2200      	movs	r2, #0
    3c16:	469c      	mov	ip, r3
    3c18:	0903      	lsrs	r3, r0, #4
    3c1a:	428b      	cmp	r3, r1
    3c1c:	d32d      	bcc.n	3c7a <__divsi3+0x17a>
    3c1e:	0a03      	lsrs	r3, r0, #8
    3c20:	428b      	cmp	r3, r1
    3c22:	d312      	bcc.n	3c4a <__divsi3+0x14a>
    3c24:	22fc      	movs	r2, #252	; 0xfc
    3c26:	0189      	lsls	r1, r1, #6
    3c28:	ba12      	rev	r2, r2
    3c2a:	0a03      	lsrs	r3, r0, #8
    3c2c:	428b      	cmp	r3, r1
    3c2e:	d30c      	bcc.n	3c4a <__divsi3+0x14a>
    3c30:	0189      	lsls	r1, r1, #6
    3c32:	1192      	asrs	r2, r2, #6
    3c34:	428b      	cmp	r3, r1
    3c36:	d308      	bcc.n	3c4a <__divsi3+0x14a>
    3c38:	0189      	lsls	r1, r1, #6
    3c3a:	1192      	asrs	r2, r2, #6
    3c3c:	428b      	cmp	r3, r1
    3c3e:	d304      	bcc.n	3c4a <__divsi3+0x14a>
    3c40:	0189      	lsls	r1, r1, #6
    3c42:	d03a      	beq.n	3cba <__divsi3+0x1ba>
    3c44:	1192      	asrs	r2, r2, #6
    3c46:	e000      	b.n	3c4a <__divsi3+0x14a>
    3c48:	0989      	lsrs	r1, r1, #6
    3c4a:	09c3      	lsrs	r3, r0, #7
    3c4c:	428b      	cmp	r3, r1
    3c4e:	d301      	bcc.n	3c54 <__divsi3+0x154>
    3c50:	01cb      	lsls	r3, r1, #7
    3c52:	1ac0      	subs	r0, r0, r3
    3c54:	4152      	adcs	r2, r2
    3c56:	0983      	lsrs	r3, r0, #6
    3c58:	428b      	cmp	r3, r1
    3c5a:	d301      	bcc.n	3c60 <__divsi3+0x160>
    3c5c:	018b      	lsls	r3, r1, #6
    3c5e:	1ac0      	subs	r0, r0, r3
    3c60:	4152      	adcs	r2, r2
    3c62:	0943      	lsrs	r3, r0, #5
    3c64:	428b      	cmp	r3, r1
    3c66:	d301      	bcc.n	3c6c <__divsi3+0x16c>
    3c68:	014b      	lsls	r3, r1, #5
    3c6a:	1ac0      	subs	r0, r0, r3
    3c6c:	4152      	adcs	r2, r2
    3c6e:	0903      	lsrs	r3, r0, #4
    3c70:	428b      	cmp	r3, r1
    3c72:	d301      	bcc.n	3c78 <__divsi3+0x178>
    3c74:	010b      	lsls	r3, r1, #4
    3c76:	1ac0      	subs	r0, r0, r3
    3c78:	4152      	adcs	r2, r2
    3c7a:	08c3      	lsrs	r3, r0, #3
    3c7c:	428b      	cmp	r3, r1
    3c7e:	d301      	bcc.n	3c84 <__divsi3+0x184>
    3c80:	00cb      	lsls	r3, r1, #3
    3c82:	1ac0      	subs	r0, r0, r3
    3c84:	4152      	adcs	r2, r2
    3c86:	0883      	lsrs	r3, r0, #2
    3c88:	428b      	cmp	r3, r1
    3c8a:	d301      	bcc.n	3c90 <__divsi3+0x190>
    3c8c:	008b      	lsls	r3, r1, #2
    3c8e:	1ac0      	subs	r0, r0, r3
    3c90:	4152      	adcs	r2, r2
    3c92:	d2d9      	bcs.n	3c48 <__divsi3+0x148>
    3c94:	0843      	lsrs	r3, r0, #1
    3c96:	428b      	cmp	r3, r1
    3c98:	d301      	bcc.n	3c9e <__divsi3+0x19e>
    3c9a:	004b      	lsls	r3, r1, #1
    3c9c:	1ac0      	subs	r0, r0, r3
    3c9e:	4152      	adcs	r2, r2
    3ca0:	1a41      	subs	r1, r0, r1
    3ca2:	d200      	bcs.n	3ca6 <__divsi3+0x1a6>
    3ca4:	4601      	mov	r1, r0
    3ca6:	4663      	mov	r3, ip
    3ca8:	4152      	adcs	r2, r2
    3caa:	105b      	asrs	r3, r3, #1
    3cac:	4610      	mov	r0, r2
    3cae:	d301      	bcc.n	3cb4 <__divsi3+0x1b4>
    3cb0:	4240      	negs	r0, r0
    3cb2:	2b00      	cmp	r3, #0
    3cb4:	d500      	bpl.n	3cb8 <__divsi3+0x1b8>
    3cb6:	4249      	negs	r1, r1
    3cb8:	4770      	bx	lr
    3cba:	4663      	mov	r3, ip
    3cbc:	105b      	asrs	r3, r3, #1
    3cbe:	d300      	bcc.n	3cc2 <__divsi3+0x1c2>
    3cc0:	4240      	negs	r0, r0
    3cc2:	b501      	push	{r0, lr}
    3cc4:	2000      	movs	r0, #0
    3cc6:	f000 f805 	bl	3cd4 <__aeabi_idiv0>
    3cca:	bd02      	pop	{r1, pc}

00003ccc <__aeabi_idivmod>:
    3ccc:	2900      	cmp	r1, #0
    3cce:	d0f8      	beq.n	3cc2 <__divsi3+0x1c2>
    3cd0:	e716      	b.n	3b00 <__divsi3>
    3cd2:	4770      	bx	lr

00003cd4 <__aeabi_idiv0>:
    3cd4:	4770      	bx	lr
    3cd6:	46c0      	nop			; (mov r8, r8)

00003cd8 <__aeabi_cfrcmple>:
    3cd8:	4684      	mov	ip, r0
    3cda:	1c08      	adds	r0, r1, #0
    3cdc:	4661      	mov	r1, ip
    3cde:	e7ff      	b.n	3ce0 <__aeabi_cfcmpeq>

00003ce0 <__aeabi_cfcmpeq>:
    3ce0:	b51f      	push	{r0, r1, r2, r3, r4, lr}
    3ce2:	f000 fb2d 	bl	4340 <__lesf2>
    3ce6:	2800      	cmp	r0, #0
    3ce8:	d401      	bmi.n	3cee <__aeabi_cfcmpeq+0xe>
    3cea:	2100      	movs	r1, #0
    3cec:	42c8      	cmn	r0, r1
    3cee:	bd1f      	pop	{r0, r1, r2, r3, r4, pc}

00003cf0 <__aeabi_fcmpeq>:
    3cf0:	b510      	push	{r4, lr}
    3cf2:	f000 fabf 	bl	4274 <__eqsf2>
    3cf6:	4240      	negs	r0, r0
    3cf8:	3001      	adds	r0, #1
    3cfa:	bd10      	pop	{r4, pc}

00003cfc <__aeabi_fcmplt>:
    3cfc:	b510      	push	{r4, lr}
    3cfe:	f000 fb1f 	bl	4340 <__lesf2>
    3d02:	2800      	cmp	r0, #0
    3d04:	db01      	blt.n	3d0a <__aeabi_fcmplt+0xe>
    3d06:	2000      	movs	r0, #0
    3d08:	bd10      	pop	{r4, pc}
    3d0a:	2001      	movs	r0, #1
    3d0c:	bd10      	pop	{r4, pc}
    3d0e:	46c0      	nop			; (mov r8, r8)

00003d10 <__aeabi_fcmple>:
    3d10:	b510      	push	{r4, lr}
    3d12:	f000 fb15 	bl	4340 <__lesf2>
    3d16:	2800      	cmp	r0, #0
    3d18:	dd01      	ble.n	3d1e <__aeabi_fcmple+0xe>
    3d1a:	2000      	movs	r0, #0
    3d1c:	bd10      	pop	{r4, pc}
    3d1e:	2001      	movs	r0, #1
    3d20:	bd10      	pop	{r4, pc}
    3d22:	46c0      	nop			; (mov r8, r8)

00003d24 <__aeabi_fcmpgt>:
    3d24:	b510      	push	{r4, lr}
    3d26:	f000 facb 	bl	42c0 <__gesf2>
    3d2a:	2800      	cmp	r0, #0
    3d2c:	dc01      	bgt.n	3d32 <__aeabi_fcmpgt+0xe>
    3d2e:	2000      	movs	r0, #0
    3d30:	bd10      	pop	{r4, pc}
    3d32:	2001      	movs	r0, #1
    3d34:	bd10      	pop	{r4, pc}
    3d36:	46c0      	nop			; (mov r8, r8)

00003d38 <__aeabi_fcmpge>:
    3d38:	b510      	push	{r4, lr}
    3d3a:	f000 fac1 	bl	42c0 <__gesf2>
    3d3e:	2800      	cmp	r0, #0
    3d40:	da01      	bge.n	3d46 <__aeabi_fcmpge+0xe>
    3d42:	2000      	movs	r0, #0
    3d44:	bd10      	pop	{r4, pc}
    3d46:	2001      	movs	r0, #1
    3d48:	bd10      	pop	{r4, pc}
    3d4a:	46c0      	nop			; (mov r8, r8)

00003d4c <__aeabi_uldivmod>:
    3d4c:	2b00      	cmp	r3, #0
    3d4e:	d111      	bne.n	3d74 <__aeabi_uldivmod+0x28>
    3d50:	2a00      	cmp	r2, #0
    3d52:	d10f      	bne.n	3d74 <__aeabi_uldivmod+0x28>
    3d54:	2900      	cmp	r1, #0
    3d56:	d100      	bne.n	3d5a <__aeabi_uldivmod+0xe>
    3d58:	2800      	cmp	r0, #0
    3d5a:	d002      	beq.n	3d62 <__aeabi_uldivmod+0x16>
    3d5c:	2100      	movs	r1, #0
    3d5e:	43c9      	mvns	r1, r1
    3d60:	1c08      	adds	r0, r1, #0
    3d62:	b407      	push	{r0, r1, r2}
    3d64:	4802      	ldr	r0, [pc, #8]	; (3d70 <__aeabi_uldivmod+0x24>)
    3d66:	a102      	add	r1, pc, #8	; (adr r1, 3d70 <__aeabi_uldivmod+0x24>)
    3d68:	1840      	adds	r0, r0, r1
    3d6a:	9002      	str	r0, [sp, #8]
    3d6c:	bd03      	pop	{r0, r1, pc}
    3d6e:	46c0      	nop			; (mov r8, r8)
    3d70:	ffffff65 	.word	0xffffff65
    3d74:	b403      	push	{r0, r1}
    3d76:	4668      	mov	r0, sp
    3d78:	b501      	push	{r0, lr}
    3d7a:	9802      	ldr	r0, [sp, #8]
    3d7c:	f000 f828 	bl	3dd0 <__udivmoddi4>
    3d80:	9b01      	ldr	r3, [sp, #4]
    3d82:	469e      	mov	lr, r3
    3d84:	b002      	add	sp, #8
    3d86:	bc0c      	pop	{r2, r3}
    3d88:	4770      	bx	lr
    3d8a:	46c0      	nop			; (mov r8, r8)

00003d8c <__ffssi2>:
    3d8c:	b510      	push	{r4, lr}
    3d8e:	2300      	movs	r3, #0
    3d90:	2800      	cmp	r0, #0
    3d92:	d002      	beq.n	3d9a <__ffssi2+0xe>
    3d94:	f002 f8ae 	bl	5ef4 <__ctzsi2>
    3d98:	1c43      	adds	r3, r0, #1
    3d9a:	0018      	movs	r0, r3
    3d9c:	bd10      	pop	{r4, pc}
    3d9e:	46c0      	nop			; (mov r8, r8)

00003da0 <__aeabi_f2uiz>:
    3da0:	219e      	movs	r1, #158	; 0x9e
    3da2:	b510      	push	{r4, lr}
    3da4:	05c9      	lsls	r1, r1, #23
    3da6:	1c04      	adds	r4, r0, #0
    3da8:	f7ff ffc6 	bl	3d38 <__aeabi_fcmpge>
    3dac:	2800      	cmp	r0, #0
    3dae:	d103      	bne.n	3db8 <__aeabi_f2uiz+0x18>
    3db0:	1c20      	adds	r0, r4, #0
    3db2:	f000 fdc3 	bl	493c <__aeabi_f2iz>
    3db6:	bd10      	pop	{r4, pc}
    3db8:	219e      	movs	r1, #158	; 0x9e
    3dba:	1c20      	adds	r0, r4, #0
    3dbc:	05c9      	lsls	r1, r1, #23
    3dbe:	f000 fc21 	bl	4604 <__aeabi_fsub>
    3dc2:	f000 fdbb 	bl	493c <__aeabi_f2iz>
    3dc6:	2380      	movs	r3, #128	; 0x80
    3dc8:	061b      	lsls	r3, r3, #24
    3dca:	469c      	mov	ip, r3
    3dcc:	4460      	add	r0, ip
    3dce:	e7f2      	b.n	3db6 <__aeabi_f2uiz+0x16>

00003dd0 <__udivmoddi4>:
    3dd0:	b5f0      	push	{r4, r5, r6, r7, lr}
    3dd2:	4657      	mov	r7, sl
    3dd4:	464e      	mov	r6, r9
    3dd6:	4645      	mov	r5, r8
    3dd8:	46de      	mov	lr, fp
    3dda:	b5e0      	push	{r5, r6, r7, lr}
    3ddc:	0004      	movs	r4, r0
    3dde:	b083      	sub	sp, #12
    3de0:	000d      	movs	r5, r1
    3de2:	4692      	mov	sl, r2
    3de4:	4699      	mov	r9, r3
    3de6:	428b      	cmp	r3, r1
    3de8:	d82f      	bhi.n	3e4a <__udivmoddi4+0x7a>
    3dea:	d02c      	beq.n	3e46 <__udivmoddi4+0x76>
    3dec:	4649      	mov	r1, r9
    3dee:	4650      	mov	r0, sl
    3df0:	f002 f874 	bl	5edc <__clzdi2>
    3df4:	0029      	movs	r1, r5
    3df6:	0006      	movs	r6, r0
    3df8:	0020      	movs	r0, r4
    3dfa:	f002 f86f 	bl	5edc <__clzdi2>
    3dfe:	1a33      	subs	r3, r6, r0
    3e00:	4698      	mov	r8, r3
    3e02:	3b20      	subs	r3, #32
    3e04:	469b      	mov	fp, r3
    3e06:	d500      	bpl.n	3e0a <__udivmoddi4+0x3a>
    3e08:	e074      	b.n	3ef4 <__udivmoddi4+0x124>
    3e0a:	4653      	mov	r3, sl
    3e0c:	465a      	mov	r2, fp
    3e0e:	4093      	lsls	r3, r2
    3e10:	001f      	movs	r7, r3
    3e12:	4653      	mov	r3, sl
    3e14:	4642      	mov	r2, r8
    3e16:	4093      	lsls	r3, r2
    3e18:	001e      	movs	r6, r3
    3e1a:	42af      	cmp	r7, r5
    3e1c:	d829      	bhi.n	3e72 <__udivmoddi4+0xa2>
    3e1e:	d026      	beq.n	3e6e <__udivmoddi4+0x9e>
    3e20:	465b      	mov	r3, fp
    3e22:	1ba4      	subs	r4, r4, r6
    3e24:	41bd      	sbcs	r5, r7
    3e26:	2b00      	cmp	r3, #0
    3e28:	da00      	bge.n	3e2c <__udivmoddi4+0x5c>
    3e2a:	e079      	b.n	3f20 <__udivmoddi4+0x150>
    3e2c:	2200      	movs	r2, #0
    3e2e:	2300      	movs	r3, #0
    3e30:	9200      	str	r2, [sp, #0]
    3e32:	9301      	str	r3, [sp, #4]
    3e34:	2301      	movs	r3, #1
    3e36:	465a      	mov	r2, fp
    3e38:	4093      	lsls	r3, r2
    3e3a:	9301      	str	r3, [sp, #4]
    3e3c:	2301      	movs	r3, #1
    3e3e:	4642      	mov	r2, r8
    3e40:	4093      	lsls	r3, r2
    3e42:	9300      	str	r3, [sp, #0]
    3e44:	e019      	b.n	3e7a <__udivmoddi4+0xaa>
    3e46:	4282      	cmp	r2, r0
    3e48:	d9d0      	bls.n	3dec <__udivmoddi4+0x1c>
    3e4a:	2200      	movs	r2, #0
    3e4c:	2300      	movs	r3, #0
    3e4e:	9200      	str	r2, [sp, #0]
    3e50:	9301      	str	r3, [sp, #4]
    3e52:	9b0c      	ldr	r3, [sp, #48]	; 0x30
    3e54:	2b00      	cmp	r3, #0
    3e56:	d001      	beq.n	3e5c <__udivmoddi4+0x8c>
    3e58:	601c      	str	r4, [r3, #0]
    3e5a:	605d      	str	r5, [r3, #4]
    3e5c:	9800      	ldr	r0, [sp, #0]
    3e5e:	9901      	ldr	r1, [sp, #4]
    3e60:	b003      	add	sp, #12
    3e62:	bc3c      	pop	{r2, r3, r4, r5}
    3e64:	4690      	mov	r8, r2
    3e66:	4699      	mov	r9, r3
    3e68:	46a2      	mov	sl, r4
    3e6a:	46ab      	mov	fp, r5
    3e6c:	bdf0      	pop	{r4, r5, r6, r7, pc}
    3e6e:	42a3      	cmp	r3, r4
    3e70:	d9d6      	bls.n	3e20 <__udivmoddi4+0x50>
    3e72:	2200      	movs	r2, #0
    3e74:	2300      	movs	r3, #0
    3e76:	9200      	str	r2, [sp, #0]
    3e78:	9301      	str	r3, [sp, #4]
    3e7a:	4643      	mov	r3, r8
    3e7c:	2b00      	cmp	r3, #0
    3e7e:	d0e8      	beq.n	3e52 <__udivmoddi4+0x82>
    3e80:	07fb      	lsls	r3, r7, #31
    3e82:	0872      	lsrs	r2, r6, #1
    3e84:	431a      	orrs	r2, r3
    3e86:	4646      	mov	r6, r8
    3e88:	087b      	lsrs	r3, r7, #1
    3e8a:	e00e      	b.n	3eaa <__udivmoddi4+0xda>
    3e8c:	42ab      	cmp	r3, r5
    3e8e:	d101      	bne.n	3e94 <__udivmoddi4+0xc4>
    3e90:	42a2      	cmp	r2, r4
    3e92:	d80c      	bhi.n	3eae <__udivmoddi4+0xde>
    3e94:	1aa4      	subs	r4, r4, r2
    3e96:	419d      	sbcs	r5, r3
    3e98:	2001      	movs	r0, #1
    3e9a:	1924      	adds	r4, r4, r4
    3e9c:	416d      	adcs	r5, r5
    3e9e:	2100      	movs	r1, #0
    3ea0:	3e01      	subs	r6, #1
    3ea2:	1824      	adds	r4, r4, r0
    3ea4:	414d      	adcs	r5, r1
    3ea6:	2e00      	cmp	r6, #0
    3ea8:	d006      	beq.n	3eb8 <__udivmoddi4+0xe8>
    3eaa:	42ab      	cmp	r3, r5
    3eac:	d9ee      	bls.n	3e8c <__udivmoddi4+0xbc>
    3eae:	3e01      	subs	r6, #1
    3eb0:	1924      	adds	r4, r4, r4
    3eb2:	416d      	adcs	r5, r5
    3eb4:	2e00      	cmp	r6, #0
    3eb6:	d1f8      	bne.n	3eaa <__udivmoddi4+0xda>
    3eb8:	465b      	mov	r3, fp
    3eba:	9800      	ldr	r0, [sp, #0]
    3ebc:	9901      	ldr	r1, [sp, #4]
    3ebe:	1900      	adds	r0, r0, r4
    3ec0:	4169      	adcs	r1, r5
    3ec2:	2b00      	cmp	r3, #0
    3ec4:	db22      	blt.n	3f0c <__udivmoddi4+0x13c>
    3ec6:	002b      	movs	r3, r5
    3ec8:	465a      	mov	r2, fp
    3eca:	40d3      	lsrs	r3, r2
    3ecc:	002a      	movs	r2, r5
    3ece:	4644      	mov	r4, r8
    3ed0:	40e2      	lsrs	r2, r4
    3ed2:	001c      	movs	r4, r3
    3ed4:	465b      	mov	r3, fp
    3ed6:	0015      	movs	r5, r2
    3ed8:	2b00      	cmp	r3, #0
    3eda:	db2c      	blt.n	3f36 <__udivmoddi4+0x166>
    3edc:	0026      	movs	r6, r4
    3ede:	409e      	lsls	r6, r3
    3ee0:	0033      	movs	r3, r6
    3ee2:	0026      	movs	r6, r4
    3ee4:	4647      	mov	r7, r8
    3ee6:	40be      	lsls	r6, r7
    3ee8:	0032      	movs	r2, r6
    3eea:	1a80      	subs	r0, r0, r2
    3eec:	4199      	sbcs	r1, r3
    3eee:	9000      	str	r0, [sp, #0]
    3ef0:	9101      	str	r1, [sp, #4]
    3ef2:	e7ae      	b.n	3e52 <__udivmoddi4+0x82>
    3ef4:	4642      	mov	r2, r8
    3ef6:	2320      	movs	r3, #32
    3ef8:	1a9b      	subs	r3, r3, r2
    3efa:	4652      	mov	r2, sl
    3efc:	40da      	lsrs	r2, r3
    3efe:	4641      	mov	r1, r8
    3f00:	0013      	movs	r3, r2
    3f02:	464a      	mov	r2, r9
    3f04:	408a      	lsls	r2, r1
    3f06:	0017      	movs	r7, r2
    3f08:	431f      	orrs	r7, r3
    3f0a:	e782      	b.n	3e12 <__udivmoddi4+0x42>
    3f0c:	4642      	mov	r2, r8
    3f0e:	2320      	movs	r3, #32
    3f10:	1a9b      	subs	r3, r3, r2
    3f12:	002a      	movs	r2, r5
    3f14:	4646      	mov	r6, r8
    3f16:	409a      	lsls	r2, r3
    3f18:	0023      	movs	r3, r4
    3f1a:	40f3      	lsrs	r3, r6
    3f1c:	4313      	orrs	r3, r2
    3f1e:	e7d5      	b.n	3ecc <__udivmoddi4+0xfc>
    3f20:	4642      	mov	r2, r8
    3f22:	2320      	movs	r3, #32
    3f24:	2100      	movs	r1, #0
    3f26:	1a9b      	subs	r3, r3, r2
    3f28:	2200      	movs	r2, #0
    3f2a:	9100      	str	r1, [sp, #0]
    3f2c:	9201      	str	r2, [sp, #4]
    3f2e:	2201      	movs	r2, #1
    3f30:	40da      	lsrs	r2, r3
    3f32:	9201      	str	r2, [sp, #4]
    3f34:	e782      	b.n	3e3c <__udivmoddi4+0x6c>
    3f36:	4642      	mov	r2, r8
    3f38:	2320      	movs	r3, #32
    3f3a:	0026      	movs	r6, r4
    3f3c:	1a9b      	subs	r3, r3, r2
    3f3e:	40de      	lsrs	r6, r3
    3f40:	002f      	movs	r7, r5
    3f42:	46b4      	mov	ip, r6
    3f44:	4097      	lsls	r7, r2
    3f46:	4666      	mov	r6, ip
    3f48:	003b      	movs	r3, r7
    3f4a:	4333      	orrs	r3, r6
    3f4c:	e7c9      	b.n	3ee2 <__udivmoddi4+0x112>
    3f4e:	46c0      	nop			; (mov r8, r8)

00003f50 <__aeabi_fadd>:
    3f50:	b5f0      	push	{r4, r5, r6, r7, lr}
    3f52:	46c6      	mov	lr, r8
    3f54:	024e      	lsls	r6, r1, #9
    3f56:	0247      	lsls	r7, r0, #9
    3f58:	0a76      	lsrs	r6, r6, #9
    3f5a:	0a7b      	lsrs	r3, r7, #9
    3f5c:	0044      	lsls	r4, r0, #1
    3f5e:	0fc5      	lsrs	r5, r0, #31
    3f60:	00f7      	lsls	r7, r6, #3
    3f62:	0048      	lsls	r0, r1, #1
    3f64:	4698      	mov	r8, r3
    3f66:	b500      	push	{lr}
    3f68:	0e24      	lsrs	r4, r4, #24
    3f6a:	002a      	movs	r2, r5
    3f6c:	00db      	lsls	r3, r3, #3
    3f6e:	0e00      	lsrs	r0, r0, #24
    3f70:	0fc9      	lsrs	r1, r1, #31
    3f72:	46bc      	mov	ip, r7
    3f74:	428d      	cmp	r5, r1
    3f76:	d067      	beq.n	4048 <__aeabi_fadd+0xf8>
    3f78:	1a22      	subs	r2, r4, r0
    3f7a:	2a00      	cmp	r2, #0
    3f7c:	dc00      	bgt.n	3f80 <__aeabi_fadd+0x30>
    3f7e:	e0a5      	b.n	40cc <__aeabi_fadd+0x17c>
    3f80:	2800      	cmp	r0, #0
    3f82:	d13a      	bne.n	3ffa <__aeabi_fadd+0xaa>
    3f84:	2f00      	cmp	r7, #0
    3f86:	d100      	bne.n	3f8a <__aeabi_fadd+0x3a>
    3f88:	e093      	b.n	40b2 <__aeabi_fadd+0x162>
    3f8a:	1e51      	subs	r1, r2, #1
    3f8c:	2900      	cmp	r1, #0
    3f8e:	d000      	beq.n	3f92 <__aeabi_fadd+0x42>
    3f90:	e0bc      	b.n	410c <__aeabi_fadd+0x1bc>
    3f92:	2401      	movs	r4, #1
    3f94:	1bdb      	subs	r3, r3, r7
    3f96:	015a      	lsls	r2, r3, #5
    3f98:	d546      	bpl.n	4028 <__aeabi_fadd+0xd8>
    3f9a:	019b      	lsls	r3, r3, #6
    3f9c:	099e      	lsrs	r6, r3, #6
    3f9e:	0030      	movs	r0, r6
    3fa0:	f001 ff7e 	bl	5ea0 <__clzsi2>
    3fa4:	3805      	subs	r0, #5
    3fa6:	4086      	lsls	r6, r0
    3fa8:	4284      	cmp	r4, r0
    3faa:	dd00      	ble.n	3fae <__aeabi_fadd+0x5e>
    3fac:	e09d      	b.n	40ea <__aeabi_fadd+0x19a>
    3fae:	1b04      	subs	r4, r0, r4
    3fb0:	0032      	movs	r2, r6
    3fb2:	2020      	movs	r0, #32
    3fb4:	3401      	adds	r4, #1
    3fb6:	40e2      	lsrs	r2, r4
    3fb8:	1b04      	subs	r4, r0, r4
    3fba:	40a6      	lsls	r6, r4
    3fbc:	0033      	movs	r3, r6
    3fbe:	1e5e      	subs	r6, r3, #1
    3fc0:	41b3      	sbcs	r3, r6
    3fc2:	2400      	movs	r4, #0
    3fc4:	4313      	orrs	r3, r2
    3fc6:	075a      	lsls	r2, r3, #29
    3fc8:	d004      	beq.n	3fd4 <__aeabi_fadd+0x84>
    3fca:	220f      	movs	r2, #15
    3fcc:	401a      	ands	r2, r3
    3fce:	2a04      	cmp	r2, #4
    3fd0:	d000      	beq.n	3fd4 <__aeabi_fadd+0x84>
    3fd2:	3304      	adds	r3, #4
    3fd4:	015a      	lsls	r2, r3, #5
    3fd6:	d529      	bpl.n	402c <__aeabi_fadd+0xdc>
    3fd8:	3401      	adds	r4, #1
    3fda:	2cff      	cmp	r4, #255	; 0xff
    3fdc:	d100      	bne.n	3fe0 <__aeabi_fadd+0x90>
    3fde:	e081      	b.n	40e4 <__aeabi_fadd+0x194>
    3fe0:	002a      	movs	r2, r5
    3fe2:	019b      	lsls	r3, r3, #6
    3fe4:	0a5b      	lsrs	r3, r3, #9
    3fe6:	b2e4      	uxtb	r4, r4
    3fe8:	025b      	lsls	r3, r3, #9
    3fea:	05e4      	lsls	r4, r4, #23
    3fec:	0a58      	lsrs	r0, r3, #9
    3fee:	07d2      	lsls	r2, r2, #31
    3ff0:	4320      	orrs	r0, r4
    3ff2:	4310      	orrs	r0, r2
    3ff4:	bc04      	pop	{r2}
    3ff6:	4690      	mov	r8, r2
    3ff8:	bdf0      	pop	{r4, r5, r6, r7, pc}
    3ffa:	2cff      	cmp	r4, #255	; 0xff
    3ffc:	d0e3      	beq.n	3fc6 <__aeabi_fadd+0x76>
    3ffe:	2180      	movs	r1, #128	; 0x80
    4000:	0038      	movs	r0, r7
    4002:	04c9      	lsls	r1, r1, #19
    4004:	4308      	orrs	r0, r1
    4006:	4684      	mov	ip, r0
    4008:	2a1b      	cmp	r2, #27
    400a:	dd00      	ble.n	400e <__aeabi_fadd+0xbe>
    400c:	e082      	b.n	4114 <__aeabi_fadd+0x1c4>
    400e:	2020      	movs	r0, #32
    4010:	4661      	mov	r1, ip
    4012:	40d1      	lsrs	r1, r2
    4014:	1a82      	subs	r2, r0, r2
    4016:	4660      	mov	r0, ip
    4018:	4090      	lsls	r0, r2
    401a:	0002      	movs	r2, r0
    401c:	1e50      	subs	r0, r2, #1
    401e:	4182      	sbcs	r2, r0
    4020:	430a      	orrs	r2, r1
    4022:	1a9b      	subs	r3, r3, r2
    4024:	015a      	lsls	r2, r3, #5
    4026:	d4b8      	bmi.n	3f9a <__aeabi_fadd+0x4a>
    4028:	075a      	lsls	r2, r3, #29
    402a:	d1ce      	bne.n	3fca <__aeabi_fadd+0x7a>
    402c:	08de      	lsrs	r6, r3, #3
    402e:	002a      	movs	r2, r5
    4030:	2cff      	cmp	r4, #255	; 0xff
    4032:	d13a      	bne.n	40aa <__aeabi_fadd+0x15a>
    4034:	2e00      	cmp	r6, #0
    4036:	d100      	bne.n	403a <__aeabi_fadd+0xea>
    4038:	e0ae      	b.n	4198 <__aeabi_fadd+0x248>
    403a:	2380      	movs	r3, #128	; 0x80
    403c:	03db      	lsls	r3, r3, #15
    403e:	4333      	orrs	r3, r6
    4040:	025b      	lsls	r3, r3, #9
    4042:	0a5b      	lsrs	r3, r3, #9
    4044:	24ff      	movs	r4, #255	; 0xff
    4046:	e7cf      	b.n	3fe8 <__aeabi_fadd+0x98>
    4048:	1a21      	subs	r1, r4, r0
    404a:	2900      	cmp	r1, #0
    404c:	dd52      	ble.n	40f4 <__aeabi_fadd+0x1a4>
    404e:	2800      	cmp	r0, #0
    4050:	d031      	beq.n	40b6 <__aeabi_fadd+0x166>
    4052:	2cff      	cmp	r4, #255	; 0xff
    4054:	d0b7      	beq.n	3fc6 <__aeabi_fadd+0x76>
    4056:	2080      	movs	r0, #128	; 0x80
    4058:	003e      	movs	r6, r7
    405a:	04c0      	lsls	r0, r0, #19
    405c:	4306      	orrs	r6, r0
    405e:	46b4      	mov	ip, r6
    4060:	291b      	cmp	r1, #27
    4062:	dd00      	ble.n	4066 <__aeabi_fadd+0x116>
    4064:	e0aa      	b.n	41bc <__aeabi_fadd+0x26c>
    4066:	2620      	movs	r6, #32
    4068:	4660      	mov	r0, ip
    406a:	40c8      	lsrs	r0, r1
    406c:	1a71      	subs	r1, r6, r1
    406e:	4666      	mov	r6, ip
    4070:	408e      	lsls	r6, r1
    4072:	0031      	movs	r1, r6
    4074:	1e4e      	subs	r6, r1, #1
    4076:	41b1      	sbcs	r1, r6
    4078:	4301      	orrs	r1, r0
    407a:	185b      	adds	r3, r3, r1
    407c:	0159      	lsls	r1, r3, #5
    407e:	d5d3      	bpl.n	4028 <__aeabi_fadd+0xd8>
    4080:	3401      	adds	r4, #1
    4082:	2cff      	cmp	r4, #255	; 0xff
    4084:	d100      	bne.n	4088 <__aeabi_fadd+0x138>
    4086:	e087      	b.n	4198 <__aeabi_fadd+0x248>
    4088:	2201      	movs	r2, #1
    408a:	4978      	ldr	r1, [pc, #480]	; (426c <__aeabi_fadd+0x31c>)
    408c:	401a      	ands	r2, r3
    408e:	085b      	lsrs	r3, r3, #1
    4090:	400b      	ands	r3, r1
    4092:	4313      	orrs	r3, r2
    4094:	e797      	b.n	3fc6 <__aeabi_fadd+0x76>
    4096:	2c00      	cmp	r4, #0
    4098:	d000      	beq.n	409c <__aeabi_fadd+0x14c>
    409a:	e0a7      	b.n	41ec <__aeabi_fadd+0x29c>
    409c:	2b00      	cmp	r3, #0
    409e:	d000      	beq.n	40a2 <__aeabi_fadd+0x152>
    40a0:	e0b6      	b.n	4210 <__aeabi_fadd+0x2c0>
    40a2:	1e3b      	subs	r3, r7, #0
    40a4:	d162      	bne.n	416c <__aeabi_fadd+0x21c>
    40a6:	2600      	movs	r6, #0
    40a8:	2200      	movs	r2, #0
    40aa:	0273      	lsls	r3, r6, #9
    40ac:	0a5b      	lsrs	r3, r3, #9
    40ae:	b2e4      	uxtb	r4, r4
    40b0:	e79a      	b.n	3fe8 <__aeabi_fadd+0x98>
    40b2:	0014      	movs	r4, r2
    40b4:	e787      	b.n	3fc6 <__aeabi_fadd+0x76>
    40b6:	2f00      	cmp	r7, #0
    40b8:	d04d      	beq.n	4156 <__aeabi_fadd+0x206>
    40ba:	1e48      	subs	r0, r1, #1
    40bc:	2800      	cmp	r0, #0
    40be:	d157      	bne.n	4170 <__aeabi_fadd+0x220>
    40c0:	4463      	add	r3, ip
    40c2:	2401      	movs	r4, #1
    40c4:	015a      	lsls	r2, r3, #5
    40c6:	d5af      	bpl.n	4028 <__aeabi_fadd+0xd8>
    40c8:	2402      	movs	r4, #2
    40ca:	e7dd      	b.n	4088 <__aeabi_fadd+0x138>
    40cc:	2a00      	cmp	r2, #0
    40ce:	d124      	bne.n	411a <__aeabi_fadd+0x1ca>
    40d0:	1c62      	adds	r2, r4, #1
    40d2:	b2d2      	uxtb	r2, r2
    40d4:	2a01      	cmp	r2, #1
    40d6:	ddde      	ble.n	4096 <__aeabi_fadd+0x146>
    40d8:	1bde      	subs	r6, r3, r7
    40da:	0172      	lsls	r2, r6, #5
    40dc:	d535      	bpl.n	414a <__aeabi_fadd+0x1fa>
    40de:	1afe      	subs	r6, r7, r3
    40e0:	000d      	movs	r5, r1
    40e2:	e75c      	b.n	3f9e <__aeabi_fadd+0x4e>
    40e4:	002a      	movs	r2, r5
    40e6:	2300      	movs	r3, #0
    40e8:	e77e      	b.n	3fe8 <__aeabi_fadd+0x98>
    40ea:	0033      	movs	r3, r6
    40ec:	4a60      	ldr	r2, [pc, #384]	; (4270 <__aeabi_fadd+0x320>)
    40ee:	1a24      	subs	r4, r4, r0
    40f0:	4013      	ands	r3, r2
    40f2:	e768      	b.n	3fc6 <__aeabi_fadd+0x76>
    40f4:	2900      	cmp	r1, #0
    40f6:	d163      	bne.n	41c0 <__aeabi_fadd+0x270>
    40f8:	1c61      	adds	r1, r4, #1
    40fa:	b2c8      	uxtb	r0, r1
    40fc:	2801      	cmp	r0, #1
    40fe:	dd4e      	ble.n	419e <__aeabi_fadd+0x24e>
    4100:	29ff      	cmp	r1, #255	; 0xff
    4102:	d049      	beq.n	4198 <__aeabi_fadd+0x248>
    4104:	4463      	add	r3, ip
    4106:	085b      	lsrs	r3, r3, #1
    4108:	000c      	movs	r4, r1
    410a:	e75c      	b.n	3fc6 <__aeabi_fadd+0x76>
    410c:	2aff      	cmp	r2, #255	; 0xff
    410e:	d041      	beq.n	4194 <__aeabi_fadd+0x244>
    4110:	000a      	movs	r2, r1
    4112:	e779      	b.n	4008 <__aeabi_fadd+0xb8>
    4114:	2201      	movs	r2, #1
    4116:	1a9b      	subs	r3, r3, r2
    4118:	e784      	b.n	4024 <__aeabi_fadd+0xd4>
    411a:	2c00      	cmp	r4, #0
    411c:	d01d      	beq.n	415a <__aeabi_fadd+0x20a>
    411e:	28ff      	cmp	r0, #255	; 0xff
    4120:	d022      	beq.n	4168 <__aeabi_fadd+0x218>
    4122:	2480      	movs	r4, #128	; 0x80
    4124:	04e4      	lsls	r4, r4, #19
    4126:	4252      	negs	r2, r2
    4128:	4323      	orrs	r3, r4
    412a:	2a1b      	cmp	r2, #27
    412c:	dd00      	ble.n	4130 <__aeabi_fadd+0x1e0>
    412e:	e08a      	b.n	4246 <__aeabi_fadd+0x2f6>
    4130:	001c      	movs	r4, r3
    4132:	2520      	movs	r5, #32
    4134:	40d4      	lsrs	r4, r2
    4136:	1aaa      	subs	r2, r5, r2
    4138:	4093      	lsls	r3, r2
    413a:	1e5a      	subs	r2, r3, #1
    413c:	4193      	sbcs	r3, r2
    413e:	4323      	orrs	r3, r4
    4140:	4662      	mov	r2, ip
    4142:	0004      	movs	r4, r0
    4144:	1ad3      	subs	r3, r2, r3
    4146:	000d      	movs	r5, r1
    4148:	e725      	b.n	3f96 <__aeabi_fadd+0x46>
    414a:	2e00      	cmp	r6, #0
    414c:	d000      	beq.n	4150 <__aeabi_fadd+0x200>
    414e:	e726      	b.n	3f9e <__aeabi_fadd+0x4e>
    4150:	2200      	movs	r2, #0
    4152:	2400      	movs	r4, #0
    4154:	e7a9      	b.n	40aa <__aeabi_fadd+0x15a>
    4156:	000c      	movs	r4, r1
    4158:	e735      	b.n	3fc6 <__aeabi_fadd+0x76>
    415a:	2b00      	cmp	r3, #0
    415c:	d04d      	beq.n	41fa <__aeabi_fadd+0x2aa>
    415e:	43d2      	mvns	r2, r2
    4160:	2a00      	cmp	r2, #0
    4162:	d0ed      	beq.n	4140 <__aeabi_fadd+0x1f0>
    4164:	28ff      	cmp	r0, #255	; 0xff
    4166:	d1e0      	bne.n	412a <__aeabi_fadd+0x1da>
    4168:	4663      	mov	r3, ip
    416a:	24ff      	movs	r4, #255	; 0xff
    416c:	000d      	movs	r5, r1
    416e:	e72a      	b.n	3fc6 <__aeabi_fadd+0x76>
    4170:	29ff      	cmp	r1, #255	; 0xff
    4172:	d00f      	beq.n	4194 <__aeabi_fadd+0x244>
    4174:	0001      	movs	r1, r0
    4176:	e773      	b.n	4060 <__aeabi_fadd+0x110>
    4178:	2b00      	cmp	r3, #0
    417a:	d061      	beq.n	4240 <__aeabi_fadd+0x2f0>
    417c:	24ff      	movs	r4, #255	; 0xff
    417e:	2f00      	cmp	r7, #0
    4180:	d100      	bne.n	4184 <__aeabi_fadd+0x234>
    4182:	e720      	b.n	3fc6 <__aeabi_fadd+0x76>
    4184:	2280      	movs	r2, #128	; 0x80
    4186:	4641      	mov	r1, r8
    4188:	03d2      	lsls	r2, r2, #15
    418a:	4211      	tst	r1, r2
    418c:	d002      	beq.n	4194 <__aeabi_fadd+0x244>
    418e:	4216      	tst	r6, r2
    4190:	d100      	bne.n	4194 <__aeabi_fadd+0x244>
    4192:	003b      	movs	r3, r7
    4194:	24ff      	movs	r4, #255	; 0xff
    4196:	e716      	b.n	3fc6 <__aeabi_fadd+0x76>
    4198:	24ff      	movs	r4, #255	; 0xff
    419a:	2300      	movs	r3, #0
    419c:	e724      	b.n	3fe8 <__aeabi_fadd+0x98>
    419e:	2c00      	cmp	r4, #0
    41a0:	d1ea      	bne.n	4178 <__aeabi_fadd+0x228>
    41a2:	2b00      	cmp	r3, #0
    41a4:	d058      	beq.n	4258 <__aeabi_fadd+0x308>
    41a6:	2f00      	cmp	r7, #0
    41a8:	d100      	bne.n	41ac <__aeabi_fadd+0x25c>
    41aa:	e70c      	b.n	3fc6 <__aeabi_fadd+0x76>
    41ac:	4463      	add	r3, ip
    41ae:	015a      	lsls	r2, r3, #5
    41b0:	d400      	bmi.n	41b4 <__aeabi_fadd+0x264>
    41b2:	e739      	b.n	4028 <__aeabi_fadd+0xd8>
    41b4:	4a2e      	ldr	r2, [pc, #184]	; (4270 <__aeabi_fadd+0x320>)
    41b6:	000c      	movs	r4, r1
    41b8:	4013      	ands	r3, r2
    41ba:	e704      	b.n	3fc6 <__aeabi_fadd+0x76>
    41bc:	2101      	movs	r1, #1
    41be:	e75c      	b.n	407a <__aeabi_fadd+0x12a>
    41c0:	2c00      	cmp	r4, #0
    41c2:	d11e      	bne.n	4202 <__aeabi_fadd+0x2b2>
    41c4:	2b00      	cmp	r3, #0
    41c6:	d040      	beq.n	424a <__aeabi_fadd+0x2fa>
    41c8:	43c9      	mvns	r1, r1
    41ca:	2900      	cmp	r1, #0
    41cc:	d00b      	beq.n	41e6 <__aeabi_fadd+0x296>
    41ce:	28ff      	cmp	r0, #255	; 0xff
    41d0:	d036      	beq.n	4240 <__aeabi_fadd+0x2f0>
    41d2:	291b      	cmp	r1, #27
    41d4:	dc47      	bgt.n	4266 <__aeabi_fadd+0x316>
    41d6:	001c      	movs	r4, r3
    41d8:	2620      	movs	r6, #32
    41da:	40cc      	lsrs	r4, r1
    41dc:	1a71      	subs	r1, r6, r1
    41de:	408b      	lsls	r3, r1
    41e0:	1e59      	subs	r1, r3, #1
    41e2:	418b      	sbcs	r3, r1
    41e4:	4323      	orrs	r3, r4
    41e6:	4463      	add	r3, ip
    41e8:	0004      	movs	r4, r0
    41ea:	e747      	b.n	407c <__aeabi_fadd+0x12c>
    41ec:	2b00      	cmp	r3, #0
    41ee:	d118      	bne.n	4222 <__aeabi_fadd+0x2d2>
    41f0:	1e3b      	subs	r3, r7, #0
    41f2:	d02d      	beq.n	4250 <__aeabi_fadd+0x300>
    41f4:	000d      	movs	r5, r1
    41f6:	24ff      	movs	r4, #255	; 0xff
    41f8:	e6e5      	b.n	3fc6 <__aeabi_fadd+0x76>
    41fa:	003b      	movs	r3, r7
    41fc:	0004      	movs	r4, r0
    41fe:	000d      	movs	r5, r1
    4200:	e6e1      	b.n	3fc6 <__aeabi_fadd+0x76>
    4202:	28ff      	cmp	r0, #255	; 0xff
    4204:	d01c      	beq.n	4240 <__aeabi_fadd+0x2f0>
    4206:	2480      	movs	r4, #128	; 0x80
    4208:	04e4      	lsls	r4, r4, #19
    420a:	4249      	negs	r1, r1
    420c:	4323      	orrs	r3, r4
    420e:	e7e0      	b.n	41d2 <__aeabi_fadd+0x282>
    4210:	2f00      	cmp	r7, #0
    4212:	d100      	bne.n	4216 <__aeabi_fadd+0x2c6>
    4214:	e6d7      	b.n	3fc6 <__aeabi_fadd+0x76>
    4216:	1bde      	subs	r6, r3, r7
    4218:	0172      	lsls	r2, r6, #5
    421a:	d51f      	bpl.n	425c <__aeabi_fadd+0x30c>
    421c:	1afb      	subs	r3, r7, r3
    421e:	000d      	movs	r5, r1
    4220:	e6d1      	b.n	3fc6 <__aeabi_fadd+0x76>
    4222:	24ff      	movs	r4, #255	; 0xff
    4224:	2f00      	cmp	r7, #0
    4226:	d100      	bne.n	422a <__aeabi_fadd+0x2da>
    4228:	e6cd      	b.n	3fc6 <__aeabi_fadd+0x76>
    422a:	2280      	movs	r2, #128	; 0x80
    422c:	4640      	mov	r0, r8
    422e:	03d2      	lsls	r2, r2, #15
    4230:	4210      	tst	r0, r2
    4232:	d0af      	beq.n	4194 <__aeabi_fadd+0x244>
    4234:	4216      	tst	r6, r2
    4236:	d1ad      	bne.n	4194 <__aeabi_fadd+0x244>
    4238:	003b      	movs	r3, r7
    423a:	000d      	movs	r5, r1
    423c:	24ff      	movs	r4, #255	; 0xff
    423e:	e6c2      	b.n	3fc6 <__aeabi_fadd+0x76>
    4240:	4663      	mov	r3, ip
    4242:	24ff      	movs	r4, #255	; 0xff
    4244:	e6bf      	b.n	3fc6 <__aeabi_fadd+0x76>
    4246:	2301      	movs	r3, #1
    4248:	e77a      	b.n	4140 <__aeabi_fadd+0x1f0>
    424a:	003b      	movs	r3, r7
    424c:	0004      	movs	r4, r0
    424e:	e6ba      	b.n	3fc6 <__aeabi_fadd+0x76>
    4250:	2680      	movs	r6, #128	; 0x80
    4252:	2200      	movs	r2, #0
    4254:	03f6      	lsls	r6, r6, #15
    4256:	e6f0      	b.n	403a <__aeabi_fadd+0xea>
    4258:	003b      	movs	r3, r7
    425a:	e6b4      	b.n	3fc6 <__aeabi_fadd+0x76>
    425c:	1e33      	subs	r3, r6, #0
    425e:	d000      	beq.n	4262 <__aeabi_fadd+0x312>
    4260:	e6e2      	b.n	4028 <__aeabi_fadd+0xd8>
    4262:	2200      	movs	r2, #0
    4264:	e721      	b.n	40aa <__aeabi_fadd+0x15a>
    4266:	2301      	movs	r3, #1
    4268:	e7bd      	b.n	41e6 <__aeabi_fadd+0x296>
    426a:	46c0      	nop			; (mov r8, r8)
    426c:	7dffffff 	.word	0x7dffffff
    4270:	fbffffff 	.word	0xfbffffff

00004274 <__eqsf2>:
    4274:	b570      	push	{r4, r5, r6, lr}
    4276:	0042      	lsls	r2, r0, #1
    4278:	0245      	lsls	r5, r0, #9
    427a:	024e      	lsls	r6, r1, #9
    427c:	004c      	lsls	r4, r1, #1
    427e:	0fc3      	lsrs	r3, r0, #31
    4280:	0a6d      	lsrs	r5, r5, #9
    4282:	0e12      	lsrs	r2, r2, #24
    4284:	0a76      	lsrs	r6, r6, #9
    4286:	0e24      	lsrs	r4, r4, #24
    4288:	0fc9      	lsrs	r1, r1, #31
    428a:	2001      	movs	r0, #1
    428c:	2aff      	cmp	r2, #255	; 0xff
    428e:	d006      	beq.n	429e <__eqsf2+0x2a>
    4290:	2cff      	cmp	r4, #255	; 0xff
    4292:	d003      	beq.n	429c <__eqsf2+0x28>
    4294:	42a2      	cmp	r2, r4
    4296:	d101      	bne.n	429c <__eqsf2+0x28>
    4298:	42b5      	cmp	r5, r6
    429a:	d006      	beq.n	42aa <__eqsf2+0x36>
    429c:	bd70      	pop	{r4, r5, r6, pc}
    429e:	2d00      	cmp	r5, #0
    42a0:	d1fc      	bne.n	429c <__eqsf2+0x28>
    42a2:	2cff      	cmp	r4, #255	; 0xff
    42a4:	d1fa      	bne.n	429c <__eqsf2+0x28>
    42a6:	2e00      	cmp	r6, #0
    42a8:	d1f8      	bne.n	429c <__eqsf2+0x28>
    42aa:	428b      	cmp	r3, r1
    42ac:	d006      	beq.n	42bc <__eqsf2+0x48>
    42ae:	2001      	movs	r0, #1
    42b0:	2a00      	cmp	r2, #0
    42b2:	d1f3      	bne.n	429c <__eqsf2+0x28>
    42b4:	0028      	movs	r0, r5
    42b6:	1e45      	subs	r5, r0, #1
    42b8:	41a8      	sbcs	r0, r5
    42ba:	e7ef      	b.n	429c <__eqsf2+0x28>
    42bc:	2000      	movs	r0, #0
    42be:	e7ed      	b.n	429c <__eqsf2+0x28>

000042c0 <__gesf2>:
    42c0:	b5f0      	push	{r4, r5, r6, r7, lr}
    42c2:	0042      	lsls	r2, r0, #1
    42c4:	0245      	lsls	r5, r0, #9
    42c6:	024c      	lsls	r4, r1, #9
    42c8:	0fc3      	lsrs	r3, r0, #31
    42ca:	0048      	lsls	r0, r1, #1
    42cc:	0a6d      	lsrs	r5, r5, #9
    42ce:	0e12      	lsrs	r2, r2, #24
    42d0:	0a64      	lsrs	r4, r4, #9
    42d2:	0e00      	lsrs	r0, r0, #24
    42d4:	0fc9      	lsrs	r1, r1, #31
    42d6:	2aff      	cmp	r2, #255	; 0xff
    42d8:	d01e      	beq.n	4318 <__gesf2+0x58>
    42da:	28ff      	cmp	r0, #255	; 0xff
    42dc:	d021      	beq.n	4322 <__gesf2+0x62>
    42de:	2a00      	cmp	r2, #0
    42e0:	d10a      	bne.n	42f8 <__gesf2+0x38>
    42e2:	426e      	negs	r6, r5
    42e4:	416e      	adcs	r6, r5
    42e6:	b2f6      	uxtb	r6, r6
    42e8:	2800      	cmp	r0, #0
    42ea:	d10f      	bne.n	430c <__gesf2+0x4c>
    42ec:	2c00      	cmp	r4, #0
    42ee:	d10d      	bne.n	430c <__gesf2+0x4c>
    42f0:	2000      	movs	r0, #0
    42f2:	2d00      	cmp	r5, #0
    42f4:	d009      	beq.n	430a <__gesf2+0x4a>
    42f6:	e005      	b.n	4304 <__gesf2+0x44>
    42f8:	2800      	cmp	r0, #0
    42fa:	d101      	bne.n	4300 <__gesf2+0x40>
    42fc:	2c00      	cmp	r4, #0
    42fe:	d001      	beq.n	4304 <__gesf2+0x44>
    4300:	428b      	cmp	r3, r1
    4302:	d011      	beq.n	4328 <__gesf2+0x68>
    4304:	2101      	movs	r1, #1
    4306:	4258      	negs	r0, r3
    4308:	4308      	orrs	r0, r1
    430a:	bdf0      	pop	{r4, r5, r6, r7, pc}
    430c:	2e00      	cmp	r6, #0
    430e:	d0f7      	beq.n	4300 <__gesf2+0x40>
    4310:	2001      	movs	r0, #1
    4312:	3901      	subs	r1, #1
    4314:	4308      	orrs	r0, r1
    4316:	e7f8      	b.n	430a <__gesf2+0x4a>
    4318:	2d00      	cmp	r5, #0
    431a:	d0de      	beq.n	42da <__gesf2+0x1a>
    431c:	2002      	movs	r0, #2
    431e:	4240      	negs	r0, r0
    4320:	e7f3      	b.n	430a <__gesf2+0x4a>
    4322:	2c00      	cmp	r4, #0
    4324:	d0db      	beq.n	42de <__gesf2+0x1e>
    4326:	e7f9      	b.n	431c <__gesf2+0x5c>
    4328:	4282      	cmp	r2, r0
    432a:	dceb      	bgt.n	4304 <__gesf2+0x44>
    432c:	db04      	blt.n	4338 <__gesf2+0x78>
    432e:	42a5      	cmp	r5, r4
    4330:	d8e8      	bhi.n	4304 <__gesf2+0x44>
    4332:	2000      	movs	r0, #0
    4334:	42a5      	cmp	r5, r4
    4336:	d2e8      	bcs.n	430a <__gesf2+0x4a>
    4338:	2101      	movs	r1, #1
    433a:	1e58      	subs	r0, r3, #1
    433c:	4308      	orrs	r0, r1
    433e:	e7e4      	b.n	430a <__gesf2+0x4a>

00004340 <__lesf2>:
    4340:	b5f0      	push	{r4, r5, r6, r7, lr}
    4342:	0042      	lsls	r2, r0, #1
    4344:	024d      	lsls	r5, r1, #9
    4346:	004c      	lsls	r4, r1, #1
    4348:	0246      	lsls	r6, r0, #9
    434a:	0a76      	lsrs	r6, r6, #9
    434c:	0e12      	lsrs	r2, r2, #24
    434e:	0fc3      	lsrs	r3, r0, #31
    4350:	0a6d      	lsrs	r5, r5, #9
    4352:	0e24      	lsrs	r4, r4, #24
    4354:	0fc9      	lsrs	r1, r1, #31
    4356:	2aff      	cmp	r2, #255	; 0xff
    4358:	d016      	beq.n	4388 <__lesf2+0x48>
    435a:	2cff      	cmp	r4, #255	; 0xff
    435c:	d018      	beq.n	4390 <__lesf2+0x50>
    435e:	2a00      	cmp	r2, #0
    4360:	d10a      	bne.n	4378 <__lesf2+0x38>
    4362:	4270      	negs	r0, r6
    4364:	4170      	adcs	r0, r6
    4366:	b2c0      	uxtb	r0, r0
    4368:	2c00      	cmp	r4, #0
    436a:	d015      	beq.n	4398 <__lesf2+0x58>
    436c:	2800      	cmp	r0, #0
    436e:	d005      	beq.n	437c <__lesf2+0x3c>
    4370:	2001      	movs	r0, #1
    4372:	3901      	subs	r1, #1
    4374:	4308      	orrs	r0, r1
    4376:	bdf0      	pop	{r4, r5, r6, r7, pc}
    4378:	2c00      	cmp	r4, #0
    437a:	d013      	beq.n	43a4 <__lesf2+0x64>
    437c:	4299      	cmp	r1, r3
    437e:	d014      	beq.n	43aa <__lesf2+0x6a>
    4380:	2001      	movs	r0, #1
    4382:	425b      	negs	r3, r3
    4384:	4318      	orrs	r0, r3
    4386:	e7f6      	b.n	4376 <__lesf2+0x36>
    4388:	2002      	movs	r0, #2
    438a:	2e00      	cmp	r6, #0
    438c:	d1f3      	bne.n	4376 <__lesf2+0x36>
    438e:	e7e4      	b.n	435a <__lesf2+0x1a>
    4390:	2002      	movs	r0, #2
    4392:	2d00      	cmp	r5, #0
    4394:	d1ef      	bne.n	4376 <__lesf2+0x36>
    4396:	e7e2      	b.n	435e <__lesf2+0x1e>
    4398:	2d00      	cmp	r5, #0
    439a:	d1e7      	bne.n	436c <__lesf2+0x2c>
    439c:	2000      	movs	r0, #0
    439e:	2e00      	cmp	r6, #0
    43a0:	d0e9      	beq.n	4376 <__lesf2+0x36>
    43a2:	e7ed      	b.n	4380 <__lesf2+0x40>
    43a4:	2d00      	cmp	r5, #0
    43a6:	d1e9      	bne.n	437c <__lesf2+0x3c>
    43a8:	e7ea      	b.n	4380 <__lesf2+0x40>
    43aa:	42a2      	cmp	r2, r4
    43ac:	dc06      	bgt.n	43bc <__lesf2+0x7c>
    43ae:	dbdf      	blt.n	4370 <__lesf2+0x30>
    43b0:	42ae      	cmp	r6, r5
    43b2:	d803      	bhi.n	43bc <__lesf2+0x7c>
    43b4:	2000      	movs	r0, #0
    43b6:	42ae      	cmp	r6, r5
    43b8:	d3da      	bcc.n	4370 <__lesf2+0x30>
    43ba:	e7dc      	b.n	4376 <__lesf2+0x36>
    43bc:	2001      	movs	r0, #1
    43be:	4249      	negs	r1, r1
    43c0:	4308      	orrs	r0, r1
    43c2:	e7d8      	b.n	4376 <__lesf2+0x36>

000043c4 <__aeabi_fmul>:
    43c4:	b5f8      	push	{r3, r4, r5, r6, r7, lr}
    43c6:	4657      	mov	r7, sl
    43c8:	464e      	mov	r6, r9
    43ca:	4645      	mov	r5, r8
    43cc:	46de      	mov	lr, fp
    43ce:	b5e0      	push	{r5, r6, r7, lr}
    43d0:	0247      	lsls	r7, r0, #9
    43d2:	0046      	lsls	r6, r0, #1
    43d4:	4688      	mov	r8, r1
    43d6:	0a7f      	lsrs	r7, r7, #9
    43d8:	0e36      	lsrs	r6, r6, #24
    43da:	0fc4      	lsrs	r4, r0, #31
    43dc:	2e00      	cmp	r6, #0
    43de:	d047      	beq.n	4470 <__aeabi_fmul+0xac>
    43e0:	2eff      	cmp	r6, #255	; 0xff
    43e2:	d024      	beq.n	442e <__aeabi_fmul+0x6a>
    43e4:	00fb      	lsls	r3, r7, #3
    43e6:	2780      	movs	r7, #128	; 0x80
    43e8:	04ff      	lsls	r7, r7, #19
    43ea:	431f      	orrs	r7, r3
    43ec:	2300      	movs	r3, #0
    43ee:	4699      	mov	r9, r3
    43f0:	469a      	mov	sl, r3
    43f2:	3e7f      	subs	r6, #127	; 0x7f
    43f4:	4643      	mov	r3, r8
    43f6:	025d      	lsls	r5, r3, #9
    43f8:	0058      	lsls	r0, r3, #1
    43fa:	0fdb      	lsrs	r3, r3, #31
    43fc:	0a6d      	lsrs	r5, r5, #9
    43fe:	0e00      	lsrs	r0, r0, #24
    4400:	4698      	mov	r8, r3
    4402:	d043      	beq.n	448c <__aeabi_fmul+0xc8>
    4404:	28ff      	cmp	r0, #255	; 0xff
    4406:	d03b      	beq.n	4480 <__aeabi_fmul+0xbc>
    4408:	00eb      	lsls	r3, r5, #3
    440a:	2580      	movs	r5, #128	; 0x80
    440c:	2200      	movs	r2, #0
    440e:	04ed      	lsls	r5, r5, #19
    4410:	431d      	orrs	r5, r3
    4412:	387f      	subs	r0, #127	; 0x7f
    4414:	1836      	adds	r6, r6, r0
    4416:	1c73      	adds	r3, r6, #1
    4418:	4641      	mov	r1, r8
    441a:	469b      	mov	fp, r3
    441c:	464b      	mov	r3, r9
    441e:	4061      	eors	r1, r4
    4420:	4313      	orrs	r3, r2
    4422:	2b0f      	cmp	r3, #15
    4424:	d864      	bhi.n	44f0 <__aeabi_fmul+0x12c>
    4426:	4875      	ldr	r0, [pc, #468]	; (45fc <__aeabi_fmul+0x238>)
    4428:	009b      	lsls	r3, r3, #2
    442a:	58c3      	ldr	r3, [r0, r3]
    442c:	469f      	mov	pc, r3
    442e:	2f00      	cmp	r7, #0
    4430:	d142      	bne.n	44b8 <__aeabi_fmul+0xf4>
    4432:	2308      	movs	r3, #8
    4434:	4699      	mov	r9, r3
    4436:	3b06      	subs	r3, #6
    4438:	26ff      	movs	r6, #255	; 0xff
    443a:	469a      	mov	sl, r3
    443c:	e7da      	b.n	43f4 <__aeabi_fmul+0x30>
    443e:	4641      	mov	r1, r8
    4440:	2a02      	cmp	r2, #2
    4442:	d028      	beq.n	4496 <__aeabi_fmul+0xd2>
    4444:	2a03      	cmp	r2, #3
    4446:	d100      	bne.n	444a <__aeabi_fmul+0x86>
    4448:	e0ce      	b.n	45e8 <__aeabi_fmul+0x224>
    444a:	2a01      	cmp	r2, #1
    444c:	d000      	beq.n	4450 <__aeabi_fmul+0x8c>
    444e:	e0ac      	b.n	45aa <__aeabi_fmul+0x1e6>
    4450:	4011      	ands	r1, r2
    4452:	2000      	movs	r0, #0
    4454:	2200      	movs	r2, #0
    4456:	b2cc      	uxtb	r4, r1
    4458:	0240      	lsls	r0, r0, #9
    445a:	05d2      	lsls	r2, r2, #23
    445c:	0a40      	lsrs	r0, r0, #9
    445e:	07e4      	lsls	r4, r4, #31
    4460:	4310      	orrs	r0, r2
    4462:	4320      	orrs	r0, r4
    4464:	bc3c      	pop	{r2, r3, r4, r5}
    4466:	4690      	mov	r8, r2
    4468:	4699      	mov	r9, r3
    446a:	46a2      	mov	sl, r4
    446c:	46ab      	mov	fp, r5
    446e:	bdf8      	pop	{r3, r4, r5, r6, r7, pc}
    4470:	2f00      	cmp	r7, #0
    4472:	d115      	bne.n	44a0 <__aeabi_fmul+0xdc>
    4474:	2304      	movs	r3, #4
    4476:	4699      	mov	r9, r3
    4478:	3b03      	subs	r3, #3
    447a:	2600      	movs	r6, #0
    447c:	469a      	mov	sl, r3
    447e:	e7b9      	b.n	43f4 <__aeabi_fmul+0x30>
    4480:	20ff      	movs	r0, #255	; 0xff
    4482:	2202      	movs	r2, #2
    4484:	2d00      	cmp	r5, #0
    4486:	d0c5      	beq.n	4414 <__aeabi_fmul+0x50>
    4488:	2203      	movs	r2, #3
    448a:	e7c3      	b.n	4414 <__aeabi_fmul+0x50>
    448c:	2d00      	cmp	r5, #0
    448e:	d119      	bne.n	44c4 <__aeabi_fmul+0x100>
    4490:	2000      	movs	r0, #0
    4492:	2201      	movs	r2, #1
    4494:	e7be      	b.n	4414 <__aeabi_fmul+0x50>
    4496:	2401      	movs	r4, #1
    4498:	22ff      	movs	r2, #255	; 0xff
    449a:	400c      	ands	r4, r1
    449c:	2000      	movs	r0, #0
    449e:	e7db      	b.n	4458 <__aeabi_fmul+0x94>
    44a0:	0038      	movs	r0, r7
    44a2:	f001 fcfd 	bl	5ea0 <__clzsi2>
    44a6:	2676      	movs	r6, #118	; 0x76
    44a8:	1f43      	subs	r3, r0, #5
    44aa:	409f      	lsls	r7, r3
    44ac:	2300      	movs	r3, #0
    44ae:	4276      	negs	r6, r6
    44b0:	1a36      	subs	r6, r6, r0
    44b2:	4699      	mov	r9, r3
    44b4:	469a      	mov	sl, r3
    44b6:	e79d      	b.n	43f4 <__aeabi_fmul+0x30>
    44b8:	230c      	movs	r3, #12
    44ba:	4699      	mov	r9, r3
    44bc:	3b09      	subs	r3, #9
    44be:	26ff      	movs	r6, #255	; 0xff
    44c0:	469a      	mov	sl, r3
    44c2:	e797      	b.n	43f4 <__aeabi_fmul+0x30>
    44c4:	0028      	movs	r0, r5
    44c6:	f001 fceb 	bl	5ea0 <__clzsi2>
    44ca:	1f43      	subs	r3, r0, #5
    44cc:	409d      	lsls	r5, r3
    44ce:	2376      	movs	r3, #118	; 0x76
    44d0:	425b      	negs	r3, r3
    44d2:	1a18      	subs	r0, r3, r0
    44d4:	2200      	movs	r2, #0
    44d6:	e79d      	b.n	4414 <__aeabi_fmul+0x50>
    44d8:	2080      	movs	r0, #128	; 0x80
    44da:	2400      	movs	r4, #0
    44dc:	03c0      	lsls	r0, r0, #15
    44de:	22ff      	movs	r2, #255	; 0xff
    44e0:	e7ba      	b.n	4458 <__aeabi_fmul+0x94>
    44e2:	003d      	movs	r5, r7
    44e4:	4652      	mov	r2, sl
    44e6:	e7ab      	b.n	4440 <__aeabi_fmul+0x7c>
    44e8:	003d      	movs	r5, r7
    44ea:	0021      	movs	r1, r4
    44ec:	4652      	mov	r2, sl
    44ee:	e7a7      	b.n	4440 <__aeabi_fmul+0x7c>
    44f0:	0c3b      	lsrs	r3, r7, #16
    44f2:	469c      	mov	ip, r3
    44f4:	042a      	lsls	r2, r5, #16
    44f6:	0c12      	lsrs	r2, r2, #16
    44f8:	0c2b      	lsrs	r3, r5, #16
    44fa:	0014      	movs	r4, r2
    44fc:	4660      	mov	r0, ip
    44fe:	4665      	mov	r5, ip
    4500:	043f      	lsls	r7, r7, #16
    4502:	0c3f      	lsrs	r7, r7, #16
    4504:	437c      	muls	r4, r7
    4506:	4342      	muls	r2, r0
    4508:	435d      	muls	r5, r3
    450a:	437b      	muls	r3, r7
    450c:	0c27      	lsrs	r7, r4, #16
    450e:	189b      	adds	r3, r3, r2
    4510:	18ff      	adds	r7, r7, r3
    4512:	42ba      	cmp	r2, r7
    4514:	d903      	bls.n	451e <__aeabi_fmul+0x15a>
    4516:	2380      	movs	r3, #128	; 0x80
    4518:	025b      	lsls	r3, r3, #9
    451a:	469c      	mov	ip, r3
    451c:	4465      	add	r5, ip
    451e:	0424      	lsls	r4, r4, #16
    4520:	043a      	lsls	r2, r7, #16
    4522:	0c24      	lsrs	r4, r4, #16
    4524:	1912      	adds	r2, r2, r4
    4526:	0193      	lsls	r3, r2, #6
    4528:	1e5c      	subs	r4, r3, #1
    452a:	41a3      	sbcs	r3, r4
    452c:	0c3f      	lsrs	r7, r7, #16
    452e:	0e92      	lsrs	r2, r2, #26
    4530:	197d      	adds	r5, r7, r5
    4532:	431a      	orrs	r2, r3
    4534:	01ad      	lsls	r5, r5, #6
    4536:	4315      	orrs	r5, r2
    4538:	012b      	lsls	r3, r5, #4
    453a:	d504      	bpl.n	4546 <__aeabi_fmul+0x182>
    453c:	2301      	movs	r3, #1
    453e:	465e      	mov	r6, fp
    4540:	086a      	lsrs	r2, r5, #1
    4542:	401d      	ands	r5, r3
    4544:	4315      	orrs	r5, r2
    4546:	0032      	movs	r2, r6
    4548:	327f      	adds	r2, #127	; 0x7f
    454a:	2a00      	cmp	r2, #0
    454c:	dd25      	ble.n	459a <__aeabi_fmul+0x1d6>
    454e:	076b      	lsls	r3, r5, #29
    4550:	d004      	beq.n	455c <__aeabi_fmul+0x198>
    4552:	230f      	movs	r3, #15
    4554:	402b      	ands	r3, r5
    4556:	2b04      	cmp	r3, #4
    4558:	d000      	beq.n	455c <__aeabi_fmul+0x198>
    455a:	3504      	adds	r5, #4
    455c:	012b      	lsls	r3, r5, #4
    455e:	d503      	bpl.n	4568 <__aeabi_fmul+0x1a4>
    4560:	0032      	movs	r2, r6
    4562:	4b27      	ldr	r3, [pc, #156]	; (4600 <__aeabi_fmul+0x23c>)
    4564:	3280      	adds	r2, #128	; 0x80
    4566:	401d      	ands	r5, r3
    4568:	2afe      	cmp	r2, #254	; 0xfe
    456a:	dc94      	bgt.n	4496 <__aeabi_fmul+0xd2>
    456c:	2401      	movs	r4, #1
    456e:	01a8      	lsls	r0, r5, #6
    4570:	0a40      	lsrs	r0, r0, #9
    4572:	b2d2      	uxtb	r2, r2
    4574:	400c      	ands	r4, r1
    4576:	e76f      	b.n	4458 <__aeabi_fmul+0x94>
    4578:	2080      	movs	r0, #128	; 0x80
    457a:	03c0      	lsls	r0, r0, #15
    457c:	4207      	tst	r7, r0
    457e:	d007      	beq.n	4590 <__aeabi_fmul+0x1cc>
    4580:	4205      	tst	r5, r0
    4582:	d105      	bne.n	4590 <__aeabi_fmul+0x1cc>
    4584:	4328      	orrs	r0, r5
    4586:	0240      	lsls	r0, r0, #9
    4588:	0a40      	lsrs	r0, r0, #9
    458a:	4644      	mov	r4, r8
    458c:	22ff      	movs	r2, #255	; 0xff
    458e:	e763      	b.n	4458 <__aeabi_fmul+0x94>
    4590:	4338      	orrs	r0, r7
    4592:	0240      	lsls	r0, r0, #9
    4594:	0a40      	lsrs	r0, r0, #9
    4596:	22ff      	movs	r2, #255	; 0xff
    4598:	e75e      	b.n	4458 <__aeabi_fmul+0x94>
    459a:	2401      	movs	r4, #1
    459c:	1aa3      	subs	r3, r4, r2
    459e:	2b1b      	cmp	r3, #27
    45a0:	dd05      	ble.n	45ae <__aeabi_fmul+0x1ea>
    45a2:	400c      	ands	r4, r1
    45a4:	2200      	movs	r2, #0
    45a6:	2000      	movs	r0, #0
    45a8:	e756      	b.n	4458 <__aeabi_fmul+0x94>
    45aa:	465e      	mov	r6, fp
    45ac:	e7cb      	b.n	4546 <__aeabi_fmul+0x182>
    45ae:	002a      	movs	r2, r5
    45b0:	2020      	movs	r0, #32
    45b2:	40da      	lsrs	r2, r3
    45b4:	1ac3      	subs	r3, r0, r3
    45b6:	409d      	lsls	r5, r3
    45b8:	002b      	movs	r3, r5
    45ba:	1e5d      	subs	r5, r3, #1
    45bc:	41ab      	sbcs	r3, r5
    45be:	4313      	orrs	r3, r2
    45c0:	075a      	lsls	r2, r3, #29
    45c2:	d004      	beq.n	45ce <__aeabi_fmul+0x20a>
    45c4:	220f      	movs	r2, #15
    45c6:	401a      	ands	r2, r3
    45c8:	2a04      	cmp	r2, #4
    45ca:	d000      	beq.n	45ce <__aeabi_fmul+0x20a>
    45cc:	3304      	adds	r3, #4
    45ce:	015a      	lsls	r2, r3, #5
    45d0:	d504      	bpl.n	45dc <__aeabi_fmul+0x218>
    45d2:	2401      	movs	r4, #1
    45d4:	2201      	movs	r2, #1
    45d6:	400c      	ands	r4, r1
    45d8:	2000      	movs	r0, #0
    45da:	e73d      	b.n	4458 <__aeabi_fmul+0x94>
    45dc:	2401      	movs	r4, #1
    45de:	019b      	lsls	r3, r3, #6
    45e0:	0a58      	lsrs	r0, r3, #9
    45e2:	400c      	ands	r4, r1
    45e4:	2200      	movs	r2, #0
    45e6:	e737      	b.n	4458 <__aeabi_fmul+0x94>
    45e8:	2080      	movs	r0, #128	; 0x80
    45ea:	2401      	movs	r4, #1
    45ec:	03c0      	lsls	r0, r0, #15
    45ee:	4328      	orrs	r0, r5
    45f0:	0240      	lsls	r0, r0, #9
    45f2:	0a40      	lsrs	r0, r0, #9
    45f4:	400c      	ands	r4, r1
    45f6:	22ff      	movs	r2, #255	; 0xff
    45f8:	e72e      	b.n	4458 <__aeabi_fmul+0x94>
    45fa:	46c0      	nop			; (mov r8, r8)
    45fc:	0000b1c0 	.word	0x0000b1c0
    4600:	f7ffffff 	.word	0xf7ffffff

00004604 <__aeabi_fsub>:
    4604:	b5f0      	push	{r4, r5, r6, r7, lr}
    4606:	464f      	mov	r7, r9
    4608:	46d6      	mov	lr, sl
    460a:	4646      	mov	r6, r8
    460c:	0044      	lsls	r4, r0, #1
    460e:	b5c0      	push	{r6, r7, lr}
    4610:	0fc2      	lsrs	r2, r0, #31
    4612:	0247      	lsls	r7, r0, #9
    4614:	0248      	lsls	r0, r1, #9
    4616:	0a40      	lsrs	r0, r0, #9
    4618:	4684      	mov	ip, r0
    461a:	4666      	mov	r6, ip
    461c:	0a7b      	lsrs	r3, r7, #9
    461e:	0048      	lsls	r0, r1, #1
    4620:	0fc9      	lsrs	r1, r1, #31
    4622:	469a      	mov	sl, r3
    4624:	0e24      	lsrs	r4, r4, #24
    4626:	0015      	movs	r5, r2
    4628:	00db      	lsls	r3, r3, #3
    462a:	0e00      	lsrs	r0, r0, #24
    462c:	4689      	mov	r9, r1
    462e:	00f6      	lsls	r6, r6, #3
    4630:	28ff      	cmp	r0, #255	; 0xff
    4632:	d100      	bne.n	4636 <__aeabi_fsub+0x32>
    4634:	e08f      	b.n	4756 <__aeabi_fsub+0x152>
    4636:	2101      	movs	r1, #1
    4638:	464f      	mov	r7, r9
    463a:	404f      	eors	r7, r1
    463c:	0039      	movs	r1, r7
    463e:	4291      	cmp	r1, r2
    4640:	d066      	beq.n	4710 <__aeabi_fsub+0x10c>
    4642:	1a22      	subs	r2, r4, r0
    4644:	2a00      	cmp	r2, #0
    4646:	dc00      	bgt.n	464a <__aeabi_fsub+0x46>
    4648:	e09d      	b.n	4786 <__aeabi_fsub+0x182>
    464a:	2800      	cmp	r0, #0
    464c:	d13d      	bne.n	46ca <__aeabi_fsub+0xc6>
    464e:	2e00      	cmp	r6, #0
    4650:	d100      	bne.n	4654 <__aeabi_fsub+0x50>
    4652:	e08b      	b.n	476c <__aeabi_fsub+0x168>
    4654:	1e51      	subs	r1, r2, #1
    4656:	2900      	cmp	r1, #0
    4658:	d000      	beq.n	465c <__aeabi_fsub+0x58>
    465a:	e0b5      	b.n	47c8 <__aeabi_fsub+0x1c4>
    465c:	2401      	movs	r4, #1
    465e:	1b9b      	subs	r3, r3, r6
    4660:	015a      	lsls	r2, r3, #5
    4662:	d544      	bpl.n	46ee <__aeabi_fsub+0xea>
    4664:	019b      	lsls	r3, r3, #6
    4666:	099f      	lsrs	r7, r3, #6
    4668:	0038      	movs	r0, r7
    466a:	f001 fc19 	bl	5ea0 <__clzsi2>
    466e:	3805      	subs	r0, #5
    4670:	4087      	lsls	r7, r0
    4672:	4284      	cmp	r4, r0
    4674:	dd00      	ble.n	4678 <__aeabi_fsub+0x74>
    4676:	e096      	b.n	47a6 <__aeabi_fsub+0x1a2>
    4678:	1b04      	subs	r4, r0, r4
    467a:	003a      	movs	r2, r7
    467c:	2020      	movs	r0, #32
    467e:	3401      	adds	r4, #1
    4680:	40e2      	lsrs	r2, r4
    4682:	1b04      	subs	r4, r0, r4
    4684:	40a7      	lsls	r7, r4
    4686:	003b      	movs	r3, r7
    4688:	1e5f      	subs	r7, r3, #1
    468a:	41bb      	sbcs	r3, r7
    468c:	2400      	movs	r4, #0
    468e:	4313      	orrs	r3, r2
    4690:	075a      	lsls	r2, r3, #29
    4692:	d004      	beq.n	469e <__aeabi_fsub+0x9a>
    4694:	220f      	movs	r2, #15
    4696:	401a      	ands	r2, r3
    4698:	2a04      	cmp	r2, #4
    469a:	d000      	beq.n	469e <__aeabi_fsub+0x9a>
    469c:	3304      	adds	r3, #4
    469e:	015a      	lsls	r2, r3, #5
    46a0:	d527      	bpl.n	46f2 <__aeabi_fsub+0xee>
    46a2:	3401      	adds	r4, #1
    46a4:	2cff      	cmp	r4, #255	; 0xff
    46a6:	d100      	bne.n	46aa <__aeabi_fsub+0xa6>
    46a8:	e079      	b.n	479e <__aeabi_fsub+0x19a>
    46aa:	2201      	movs	r2, #1
    46ac:	019b      	lsls	r3, r3, #6
    46ae:	0a5b      	lsrs	r3, r3, #9
    46b0:	b2e4      	uxtb	r4, r4
    46b2:	402a      	ands	r2, r5
    46b4:	025b      	lsls	r3, r3, #9
    46b6:	05e4      	lsls	r4, r4, #23
    46b8:	0a58      	lsrs	r0, r3, #9
    46ba:	07d2      	lsls	r2, r2, #31
    46bc:	4320      	orrs	r0, r4
    46be:	4310      	orrs	r0, r2
    46c0:	bc1c      	pop	{r2, r3, r4}
    46c2:	4690      	mov	r8, r2
    46c4:	4699      	mov	r9, r3
    46c6:	46a2      	mov	sl, r4
    46c8:	bdf0      	pop	{r4, r5, r6, r7, pc}
    46ca:	2cff      	cmp	r4, #255	; 0xff
    46cc:	d0e0      	beq.n	4690 <__aeabi_fsub+0x8c>
    46ce:	2180      	movs	r1, #128	; 0x80
    46d0:	04c9      	lsls	r1, r1, #19
    46d2:	430e      	orrs	r6, r1
    46d4:	2a1b      	cmp	r2, #27
    46d6:	dc7b      	bgt.n	47d0 <__aeabi_fsub+0x1cc>
    46d8:	0031      	movs	r1, r6
    46da:	2020      	movs	r0, #32
    46dc:	40d1      	lsrs	r1, r2
    46de:	1a82      	subs	r2, r0, r2
    46e0:	4096      	lsls	r6, r2
    46e2:	1e72      	subs	r2, r6, #1
    46e4:	4196      	sbcs	r6, r2
    46e6:	430e      	orrs	r6, r1
    46e8:	1b9b      	subs	r3, r3, r6
    46ea:	015a      	lsls	r2, r3, #5
    46ec:	d4ba      	bmi.n	4664 <__aeabi_fsub+0x60>
    46ee:	075a      	lsls	r2, r3, #29
    46f0:	d1d0      	bne.n	4694 <__aeabi_fsub+0x90>
    46f2:	2201      	movs	r2, #1
    46f4:	08df      	lsrs	r7, r3, #3
    46f6:	402a      	ands	r2, r5
    46f8:	2cff      	cmp	r4, #255	; 0xff
    46fa:	d133      	bne.n	4764 <__aeabi_fsub+0x160>
    46fc:	2f00      	cmp	r7, #0
    46fe:	d100      	bne.n	4702 <__aeabi_fsub+0xfe>
    4700:	e0a8      	b.n	4854 <__aeabi_fsub+0x250>
    4702:	2380      	movs	r3, #128	; 0x80
    4704:	03db      	lsls	r3, r3, #15
    4706:	433b      	orrs	r3, r7
    4708:	025b      	lsls	r3, r3, #9
    470a:	0a5b      	lsrs	r3, r3, #9
    470c:	24ff      	movs	r4, #255	; 0xff
    470e:	e7d1      	b.n	46b4 <__aeabi_fsub+0xb0>
    4710:	1a21      	subs	r1, r4, r0
    4712:	2900      	cmp	r1, #0
    4714:	dd4c      	ble.n	47b0 <__aeabi_fsub+0x1ac>
    4716:	2800      	cmp	r0, #0
    4718:	d02a      	beq.n	4770 <__aeabi_fsub+0x16c>
    471a:	2cff      	cmp	r4, #255	; 0xff
    471c:	d0b8      	beq.n	4690 <__aeabi_fsub+0x8c>
    471e:	2080      	movs	r0, #128	; 0x80
    4720:	04c0      	lsls	r0, r0, #19
    4722:	4306      	orrs	r6, r0
    4724:	291b      	cmp	r1, #27
    4726:	dd00      	ble.n	472a <__aeabi_fsub+0x126>
    4728:	e0af      	b.n	488a <__aeabi_fsub+0x286>
    472a:	0030      	movs	r0, r6
    472c:	2720      	movs	r7, #32
    472e:	40c8      	lsrs	r0, r1
    4730:	1a79      	subs	r1, r7, r1
    4732:	408e      	lsls	r6, r1
    4734:	1e71      	subs	r1, r6, #1
    4736:	418e      	sbcs	r6, r1
    4738:	4306      	orrs	r6, r0
    473a:	199b      	adds	r3, r3, r6
    473c:	0159      	lsls	r1, r3, #5
    473e:	d5d6      	bpl.n	46ee <__aeabi_fsub+0xea>
    4740:	3401      	adds	r4, #1
    4742:	2cff      	cmp	r4, #255	; 0xff
    4744:	d100      	bne.n	4748 <__aeabi_fsub+0x144>
    4746:	e085      	b.n	4854 <__aeabi_fsub+0x250>
    4748:	2201      	movs	r2, #1
    474a:	497a      	ldr	r1, [pc, #488]	; (4934 <__aeabi_fsub+0x330>)
    474c:	401a      	ands	r2, r3
    474e:	085b      	lsrs	r3, r3, #1
    4750:	400b      	ands	r3, r1
    4752:	4313      	orrs	r3, r2
    4754:	e79c      	b.n	4690 <__aeabi_fsub+0x8c>
    4756:	2e00      	cmp	r6, #0
    4758:	d000      	beq.n	475c <__aeabi_fsub+0x158>
    475a:	e770      	b.n	463e <__aeabi_fsub+0x3a>
    475c:	e76b      	b.n	4636 <__aeabi_fsub+0x32>
    475e:	1e3b      	subs	r3, r7, #0
    4760:	d1c5      	bne.n	46ee <__aeabi_fsub+0xea>
    4762:	2200      	movs	r2, #0
    4764:	027b      	lsls	r3, r7, #9
    4766:	0a5b      	lsrs	r3, r3, #9
    4768:	b2e4      	uxtb	r4, r4
    476a:	e7a3      	b.n	46b4 <__aeabi_fsub+0xb0>
    476c:	0014      	movs	r4, r2
    476e:	e78f      	b.n	4690 <__aeabi_fsub+0x8c>
    4770:	2e00      	cmp	r6, #0
    4772:	d04d      	beq.n	4810 <__aeabi_fsub+0x20c>
    4774:	1e48      	subs	r0, r1, #1
    4776:	2800      	cmp	r0, #0
    4778:	d157      	bne.n	482a <__aeabi_fsub+0x226>
    477a:	199b      	adds	r3, r3, r6
    477c:	2401      	movs	r4, #1
    477e:	015a      	lsls	r2, r3, #5
    4780:	d5b5      	bpl.n	46ee <__aeabi_fsub+0xea>
    4782:	2402      	movs	r4, #2
    4784:	e7e0      	b.n	4748 <__aeabi_fsub+0x144>
    4786:	2a00      	cmp	r2, #0
    4788:	d125      	bne.n	47d6 <__aeabi_fsub+0x1d2>
    478a:	1c62      	adds	r2, r4, #1
    478c:	b2d2      	uxtb	r2, r2
    478e:	2a01      	cmp	r2, #1
    4790:	dd72      	ble.n	4878 <__aeabi_fsub+0x274>
    4792:	1b9f      	subs	r7, r3, r6
    4794:	017a      	lsls	r2, r7, #5
    4796:	d535      	bpl.n	4804 <__aeabi_fsub+0x200>
    4798:	1af7      	subs	r7, r6, r3
    479a:	000d      	movs	r5, r1
    479c:	e764      	b.n	4668 <__aeabi_fsub+0x64>
    479e:	2201      	movs	r2, #1
    47a0:	2300      	movs	r3, #0
    47a2:	402a      	ands	r2, r5
    47a4:	e786      	b.n	46b4 <__aeabi_fsub+0xb0>
    47a6:	003b      	movs	r3, r7
    47a8:	4a63      	ldr	r2, [pc, #396]	; (4938 <__aeabi_fsub+0x334>)
    47aa:	1a24      	subs	r4, r4, r0
    47ac:	4013      	ands	r3, r2
    47ae:	e76f      	b.n	4690 <__aeabi_fsub+0x8c>
    47b0:	2900      	cmp	r1, #0
    47b2:	d16c      	bne.n	488e <__aeabi_fsub+0x28a>
    47b4:	1c61      	adds	r1, r4, #1
    47b6:	b2c8      	uxtb	r0, r1
    47b8:	2801      	cmp	r0, #1
    47ba:	dd4e      	ble.n	485a <__aeabi_fsub+0x256>
    47bc:	29ff      	cmp	r1, #255	; 0xff
    47be:	d049      	beq.n	4854 <__aeabi_fsub+0x250>
    47c0:	199b      	adds	r3, r3, r6
    47c2:	085b      	lsrs	r3, r3, #1
    47c4:	000c      	movs	r4, r1
    47c6:	e763      	b.n	4690 <__aeabi_fsub+0x8c>
    47c8:	2aff      	cmp	r2, #255	; 0xff
    47ca:	d041      	beq.n	4850 <__aeabi_fsub+0x24c>
    47cc:	000a      	movs	r2, r1
    47ce:	e781      	b.n	46d4 <__aeabi_fsub+0xd0>
    47d0:	2601      	movs	r6, #1
    47d2:	1b9b      	subs	r3, r3, r6
    47d4:	e789      	b.n	46ea <__aeabi_fsub+0xe6>
    47d6:	2c00      	cmp	r4, #0
    47d8:	d01c      	beq.n	4814 <__aeabi_fsub+0x210>
    47da:	28ff      	cmp	r0, #255	; 0xff
    47dc:	d021      	beq.n	4822 <__aeabi_fsub+0x21e>
    47de:	2480      	movs	r4, #128	; 0x80
    47e0:	04e4      	lsls	r4, r4, #19
    47e2:	4252      	negs	r2, r2
    47e4:	4323      	orrs	r3, r4
    47e6:	2a1b      	cmp	r2, #27
    47e8:	dd00      	ble.n	47ec <__aeabi_fsub+0x1e8>
    47ea:	e096      	b.n	491a <__aeabi_fsub+0x316>
    47ec:	001c      	movs	r4, r3
    47ee:	2520      	movs	r5, #32
    47f0:	40d4      	lsrs	r4, r2
    47f2:	1aaa      	subs	r2, r5, r2
    47f4:	4093      	lsls	r3, r2
    47f6:	1e5a      	subs	r2, r3, #1
    47f8:	4193      	sbcs	r3, r2
    47fa:	4323      	orrs	r3, r4
    47fc:	1af3      	subs	r3, r6, r3
    47fe:	0004      	movs	r4, r0
    4800:	000d      	movs	r5, r1
    4802:	e72d      	b.n	4660 <__aeabi_fsub+0x5c>
    4804:	2f00      	cmp	r7, #0
    4806:	d000      	beq.n	480a <__aeabi_fsub+0x206>
    4808:	e72e      	b.n	4668 <__aeabi_fsub+0x64>
    480a:	2200      	movs	r2, #0
    480c:	2400      	movs	r4, #0
    480e:	e7a9      	b.n	4764 <__aeabi_fsub+0x160>
    4810:	000c      	movs	r4, r1
    4812:	e73d      	b.n	4690 <__aeabi_fsub+0x8c>
    4814:	2b00      	cmp	r3, #0
    4816:	d058      	beq.n	48ca <__aeabi_fsub+0x2c6>
    4818:	43d2      	mvns	r2, r2
    481a:	2a00      	cmp	r2, #0
    481c:	d0ee      	beq.n	47fc <__aeabi_fsub+0x1f8>
    481e:	28ff      	cmp	r0, #255	; 0xff
    4820:	d1e1      	bne.n	47e6 <__aeabi_fsub+0x1e2>
    4822:	0033      	movs	r3, r6
    4824:	24ff      	movs	r4, #255	; 0xff
    4826:	000d      	movs	r5, r1
    4828:	e732      	b.n	4690 <__aeabi_fsub+0x8c>
    482a:	29ff      	cmp	r1, #255	; 0xff
    482c:	d010      	beq.n	4850 <__aeabi_fsub+0x24c>
    482e:	0001      	movs	r1, r0
    4830:	e778      	b.n	4724 <__aeabi_fsub+0x120>
    4832:	2b00      	cmp	r3, #0
    4834:	d06e      	beq.n	4914 <__aeabi_fsub+0x310>
    4836:	24ff      	movs	r4, #255	; 0xff
    4838:	2e00      	cmp	r6, #0
    483a:	d100      	bne.n	483e <__aeabi_fsub+0x23a>
    483c:	e728      	b.n	4690 <__aeabi_fsub+0x8c>
    483e:	2280      	movs	r2, #128	; 0x80
    4840:	4651      	mov	r1, sl
    4842:	03d2      	lsls	r2, r2, #15
    4844:	4211      	tst	r1, r2
    4846:	d003      	beq.n	4850 <__aeabi_fsub+0x24c>
    4848:	4661      	mov	r1, ip
    484a:	4211      	tst	r1, r2
    484c:	d100      	bne.n	4850 <__aeabi_fsub+0x24c>
    484e:	0033      	movs	r3, r6
    4850:	24ff      	movs	r4, #255	; 0xff
    4852:	e71d      	b.n	4690 <__aeabi_fsub+0x8c>
    4854:	24ff      	movs	r4, #255	; 0xff
    4856:	2300      	movs	r3, #0
    4858:	e72c      	b.n	46b4 <__aeabi_fsub+0xb0>
    485a:	2c00      	cmp	r4, #0
    485c:	d1e9      	bne.n	4832 <__aeabi_fsub+0x22e>
    485e:	2b00      	cmp	r3, #0
    4860:	d063      	beq.n	492a <__aeabi_fsub+0x326>
    4862:	2e00      	cmp	r6, #0
    4864:	d100      	bne.n	4868 <__aeabi_fsub+0x264>
    4866:	e713      	b.n	4690 <__aeabi_fsub+0x8c>
    4868:	199b      	adds	r3, r3, r6
    486a:	015a      	lsls	r2, r3, #5
    486c:	d400      	bmi.n	4870 <__aeabi_fsub+0x26c>
    486e:	e73e      	b.n	46ee <__aeabi_fsub+0xea>
    4870:	4a31      	ldr	r2, [pc, #196]	; (4938 <__aeabi_fsub+0x334>)
    4872:	000c      	movs	r4, r1
    4874:	4013      	ands	r3, r2
    4876:	e70b      	b.n	4690 <__aeabi_fsub+0x8c>
    4878:	2c00      	cmp	r4, #0
    487a:	d11e      	bne.n	48ba <__aeabi_fsub+0x2b6>
    487c:	2b00      	cmp	r3, #0
    487e:	d12f      	bne.n	48e0 <__aeabi_fsub+0x2dc>
    4880:	2e00      	cmp	r6, #0
    4882:	d04f      	beq.n	4924 <__aeabi_fsub+0x320>
    4884:	0033      	movs	r3, r6
    4886:	000d      	movs	r5, r1
    4888:	e702      	b.n	4690 <__aeabi_fsub+0x8c>
    488a:	2601      	movs	r6, #1
    488c:	e755      	b.n	473a <__aeabi_fsub+0x136>
    488e:	2c00      	cmp	r4, #0
    4890:	d11f      	bne.n	48d2 <__aeabi_fsub+0x2ce>
    4892:	2b00      	cmp	r3, #0
    4894:	d043      	beq.n	491e <__aeabi_fsub+0x31a>
    4896:	43c9      	mvns	r1, r1
    4898:	2900      	cmp	r1, #0
    489a:	d00b      	beq.n	48b4 <__aeabi_fsub+0x2b0>
    489c:	28ff      	cmp	r0, #255	; 0xff
    489e:	d039      	beq.n	4914 <__aeabi_fsub+0x310>
    48a0:	291b      	cmp	r1, #27
    48a2:	dc44      	bgt.n	492e <__aeabi_fsub+0x32a>
    48a4:	001c      	movs	r4, r3
    48a6:	2720      	movs	r7, #32
    48a8:	40cc      	lsrs	r4, r1
    48aa:	1a79      	subs	r1, r7, r1
    48ac:	408b      	lsls	r3, r1
    48ae:	1e59      	subs	r1, r3, #1
    48b0:	418b      	sbcs	r3, r1
    48b2:	4323      	orrs	r3, r4
    48b4:	199b      	adds	r3, r3, r6
    48b6:	0004      	movs	r4, r0
    48b8:	e740      	b.n	473c <__aeabi_fsub+0x138>
    48ba:	2b00      	cmp	r3, #0
    48bc:	d11a      	bne.n	48f4 <__aeabi_fsub+0x2f0>
    48be:	2e00      	cmp	r6, #0
    48c0:	d124      	bne.n	490c <__aeabi_fsub+0x308>
    48c2:	2780      	movs	r7, #128	; 0x80
    48c4:	2200      	movs	r2, #0
    48c6:	03ff      	lsls	r7, r7, #15
    48c8:	e71b      	b.n	4702 <__aeabi_fsub+0xfe>
    48ca:	0033      	movs	r3, r6
    48cc:	0004      	movs	r4, r0
    48ce:	000d      	movs	r5, r1
    48d0:	e6de      	b.n	4690 <__aeabi_fsub+0x8c>
    48d2:	28ff      	cmp	r0, #255	; 0xff
    48d4:	d01e      	beq.n	4914 <__aeabi_fsub+0x310>
    48d6:	2480      	movs	r4, #128	; 0x80
    48d8:	04e4      	lsls	r4, r4, #19
    48da:	4249      	negs	r1, r1
    48dc:	4323      	orrs	r3, r4
    48de:	e7df      	b.n	48a0 <__aeabi_fsub+0x29c>
    48e0:	2e00      	cmp	r6, #0
    48e2:	d100      	bne.n	48e6 <__aeabi_fsub+0x2e2>
    48e4:	e6d4      	b.n	4690 <__aeabi_fsub+0x8c>
    48e6:	1b9f      	subs	r7, r3, r6
    48e8:	017a      	lsls	r2, r7, #5
    48ea:	d400      	bmi.n	48ee <__aeabi_fsub+0x2ea>
    48ec:	e737      	b.n	475e <__aeabi_fsub+0x15a>
    48ee:	1af3      	subs	r3, r6, r3
    48f0:	000d      	movs	r5, r1
    48f2:	e6cd      	b.n	4690 <__aeabi_fsub+0x8c>
    48f4:	24ff      	movs	r4, #255	; 0xff
    48f6:	2e00      	cmp	r6, #0
    48f8:	d100      	bne.n	48fc <__aeabi_fsub+0x2f8>
    48fa:	e6c9      	b.n	4690 <__aeabi_fsub+0x8c>
    48fc:	2280      	movs	r2, #128	; 0x80
    48fe:	4650      	mov	r0, sl
    4900:	03d2      	lsls	r2, r2, #15
    4902:	4210      	tst	r0, r2
    4904:	d0a4      	beq.n	4850 <__aeabi_fsub+0x24c>
    4906:	4660      	mov	r0, ip
    4908:	4210      	tst	r0, r2
    490a:	d1a1      	bne.n	4850 <__aeabi_fsub+0x24c>
    490c:	0033      	movs	r3, r6
    490e:	000d      	movs	r5, r1
    4910:	24ff      	movs	r4, #255	; 0xff
    4912:	e6bd      	b.n	4690 <__aeabi_fsub+0x8c>
    4914:	0033      	movs	r3, r6
    4916:	24ff      	movs	r4, #255	; 0xff
    4918:	e6ba      	b.n	4690 <__aeabi_fsub+0x8c>
    491a:	2301      	movs	r3, #1
    491c:	e76e      	b.n	47fc <__aeabi_fsub+0x1f8>
    491e:	0033      	movs	r3, r6
    4920:	0004      	movs	r4, r0
    4922:	e6b5      	b.n	4690 <__aeabi_fsub+0x8c>
    4924:	2700      	movs	r7, #0
    4926:	2200      	movs	r2, #0
    4928:	e71c      	b.n	4764 <__aeabi_fsub+0x160>
    492a:	0033      	movs	r3, r6
    492c:	e6b0      	b.n	4690 <__aeabi_fsub+0x8c>
    492e:	2301      	movs	r3, #1
    4930:	e7c0      	b.n	48b4 <__aeabi_fsub+0x2b0>
    4932:	46c0      	nop			; (mov r8, r8)
    4934:	7dffffff 	.word	0x7dffffff
    4938:	fbffffff 	.word	0xfbffffff

0000493c <__aeabi_f2iz>:
    493c:	0241      	lsls	r1, r0, #9
    493e:	0043      	lsls	r3, r0, #1
    4940:	0fc2      	lsrs	r2, r0, #31
    4942:	0a49      	lsrs	r1, r1, #9
    4944:	0e1b      	lsrs	r3, r3, #24
    4946:	2000      	movs	r0, #0
    4948:	2b7e      	cmp	r3, #126	; 0x7e
    494a:	dd0d      	ble.n	4968 <__aeabi_f2iz+0x2c>
    494c:	2b9d      	cmp	r3, #157	; 0x9d
    494e:	dc0c      	bgt.n	496a <__aeabi_f2iz+0x2e>
    4950:	2080      	movs	r0, #128	; 0x80
    4952:	0400      	lsls	r0, r0, #16
    4954:	4301      	orrs	r1, r0
    4956:	2b95      	cmp	r3, #149	; 0x95
    4958:	dc0a      	bgt.n	4970 <__aeabi_f2iz+0x34>
    495a:	2096      	movs	r0, #150	; 0x96
    495c:	1ac3      	subs	r3, r0, r3
    495e:	40d9      	lsrs	r1, r3
    4960:	4248      	negs	r0, r1
    4962:	2a00      	cmp	r2, #0
    4964:	d100      	bne.n	4968 <__aeabi_f2iz+0x2c>
    4966:	0008      	movs	r0, r1
    4968:	4770      	bx	lr
    496a:	4b03      	ldr	r3, [pc, #12]	; (4978 <__aeabi_f2iz+0x3c>)
    496c:	18d0      	adds	r0, r2, r3
    496e:	e7fb      	b.n	4968 <__aeabi_f2iz+0x2c>
    4970:	3b96      	subs	r3, #150	; 0x96
    4972:	4099      	lsls	r1, r3
    4974:	e7f4      	b.n	4960 <__aeabi_f2iz+0x24>
    4976:	46c0      	nop			; (mov r8, r8)
    4978:	7fffffff 	.word	0x7fffffff

0000497c <__aeabi_ddiv>:
    497c:	b5f0      	push	{r4, r5, r6, r7, lr}
    497e:	4657      	mov	r7, sl
    4980:	4645      	mov	r5, r8
    4982:	46de      	mov	lr, fp
    4984:	464e      	mov	r6, r9
    4986:	b5e0      	push	{r5, r6, r7, lr}
    4988:	004c      	lsls	r4, r1, #1
    498a:	030e      	lsls	r6, r1, #12
    498c:	b087      	sub	sp, #28
    498e:	4683      	mov	fp, r0
    4990:	4692      	mov	sl, r2
    4992:	001d      	movs	r5, r3
    4994:	4680      	mov	r8, r0
    4996:	0b36      	lsrs	r6, r6, #12
    4998:	0d64      	lsrs	r4, r4, #21
    499a:	0fcf      	lsrs	r7, r1, #31
    499c:	2c00      	cmp	r4, #0
    499e:	d04f      	beq.n	4a40 <__aeabi_ddiv+0xc4>
    49a0:	4b6f      	ldr	r3, [pc, #444]	; (4b60 <__aeabi_ddiv+0x1e4>)
    49a2:	429c      	cmp	r4, r3
    49a4:	d035      	beq.n	4a12 <__aeabi_ddiv+0x96>
    49a6:	2380      	movs	r3, #128	; 0x80
    49a8:	0f42      	lsrs	r2, r0, #29
    49aa:	041b      	lsls	r3, r3, #16
    49ac:	00f6      	lsls	r6, r6, #3
    49ae:	4313      	orrs	r3, r2
    49b0:	4333      	orrs	r3, r6
    49b2:	4699      	mov	r9, r3
    49b4:	00c3      	lsls	r3, r0, #3
    49b6:	4698      	mov	r8, r3
    49b8:	4b6a      	ldr	r3, [pc, #424]	; (4b64 <__aeabi_ddiv+0x1e8>)
    49ba:	2600      	movs	r6, #0
    49bc:	469c      	mov	ip, r3
    49be:	2300      	movs	r3, #0
    49c0:	4464      	add	r4, ip
    49c2:	9303      	str	r3, [sp, #12]
    49c4:	032b      	lsls	r3, r5, #12
    49c6:	0b1b      	lsrs	r3, r3, #12
    49c8:	469b      	mov	fp, r3
    49ca:	006b      	lsls	r3, r5, #1
    49cc:	0fed      	lsrs	r5, r5, #31
    49ce:	4650      	mov	r0, sl
    49d0:	0d5b      	lsrs	r3, r3, #21
    49d2:	9501      	str	r5, [sp, #4]
    49d4:	d05e      	beq.n	4a94 <__aeabi_ddiv+0x118>
    49d6:	4a62      	ldr	r2, [pc, #392]	; (4b60 <__aeabi_ddiv+0x1e4>)
    49d8:	4293      	cmp	r3, r2
    49da:	d053      	beq.n	4a84 <__aeabi_ddiv+0x108>
    49dc:	465a      	mov	r2, fp
    49de:	00d1      	lsls	r1, r2, #3
    49e0:	2280      	movs	r2, #128	; 0x80
    49e2:	0f40      	lsrs	r0, r0, #29
    49e4:	0412      	lsls	r2, r2, #16
    49e6:	4302      	orrs	r2, r0
    49e8:	430a      	orrs	r2, r1
    49ea:	4693      	mov	fp, r2
    49ec:	4652      	mov	r2, sl
    49ee:	00d1      	lsls	r1, r2, #3
    49f0:	4a5c      	ldr	r2, [pc, #368]	; (4b64 <__aeabi_ddiv+0x1e8>)
    49f2:	4694      	mov	ip, r2
    49f4:	2200      	movs	r2, #0
    49f6:	4463      	add	r3, ip
    49f8:	0038      	movs	r0, r7
    49fa:	4068      	eors	r0, r5
    49fc:	4684      	mov	ip, r0
    49fe:	9002      	str	r0, [sp, #8]
    4a00:	1ae4      	subs	r4, r4, r3
    4a02:	4316      	orrs	r6, r2
    4a04:	2e0f      	cmp	r6, #15
    4a06:	d900      	bls.n	4a0a <__aeabi_ddiv+0x8e>
    4a08:	e0b4      	b.n	4b74 <__aeabi_ddiv+0x1f8>
    4a0a:	4b57      	ldr	r3, [pc, #348]	; (4b68 <__aeabi_ddiv+0x1ec>)
    4a0c:	00b6      	lsls	r6, r6, #2
    4a0e:	599b      	ldr	r3, [r3, r6]
    4a10:	469f      	mov	pc, r3
    4a12:	0003      	movs	r3, r0
    4a14:	4333      	orrs	r3, r6
    4a16:	4699      	mov	r9, r3
    4a18:	d16c      	bne.n	4af4 <__aeabi_ddiv+0x178>
    4a1a:	2300      	movs	r3, #0
    4a1c:	4698      	mov	r8, r3
    4a1e:	3302      	adds	r3, #2
    4a20:	2608      	movs	r6, #8
    4a22:	9303      	str	r3, [sp, #12]
    4a24:	e7ce      	b.n	49c4 <__aeabi_ddiv+0x48>
    4a26:	46cb      	mov	fp, r9
    4a28:	4641      	mov	r1, r8
    4a2a:	9a03      	ldr	r2, [sp, #12]
    4a2c:	9701      	str	r7, [sp, #4]
    4a2e:	2a02      	cmp	r2, #2
    4a30:	d165      	bne.n	4afe <__aeabi_ddiv+0x182>
    4a32:	9b01      	ldr	r3, [sp, #4]
    4a34:	4c4a      	ldr	r4, [pc, #296]	; (4b60 <__aeabi_ddiv+0x1e4>)
    4a36:	469c      	mov	ip, r3
    4a38:	2300      	movs	r3, #0
    4a3a:	2200      	movs	r2, #0
    4a3c:	4698      	mov	r8, r3
    4a3e:	e06b      	b.n	4b18 <__aeabi_ddiv+0x19c>
    4a40:	0003      	movs	r3, r0
    4a42:	4333      	orrs	r3, r6
    4a44:	4699      	mov	r9, r3
    4a46:	d04e      	beq.n	4ae6 <__aeabi_ddiv+0x16a>
    4a48:	2e00      	cmp	r6, #0
    4a4a:	d100      	bne.n	4a4e <__aeabi_ddiv+0xd2>
    4a4c:	e1bc      	b.n	4dc8 <__aeabi_ddiv+0x44c>
    4a4e:	0030      	movs	r0, r6
    4a50:	f001 fa26 	bl	5ea0 <__clzsi2>
    4a54:	0003      	movs	r3, r0
    4a56:	3b0b      	subs	r3, #11
    4a58:	2b1c      	cmp	r3, #28
    4a5a:	dd00      	ble.n	4a5e <__aeabi_ddiv+0xe2>
    4a5c:	e1ac      	b.n	4db8 <__aeabi_ddiv+0x43c>
    4a5e:	221d      	movs	r2, #29
    4a60:	1ad3      	subs	r3, r2, r3
    4a62:	465a      	mov	r2, fp
    4a64:	0001      	movs	r1, r0
    4a66:	40da      	lsrs	r2, r3
    4a68:	3908      	subs	r1, #8
    4a6a:	408e      	lsls	r6, r1
    4a6c:	0013      	movs	r3, r2
    4a6e:	4333      	orrs	r3, r6
    4a70:	4699      	mov	r9, r3
    4a72:	465b      	mov	r3, fp
    4a74:	408b      	lsls	r3, r1
    4a76:	4698      	mov	r8, r3
    4a78:	2300      	movs	r3, #0
    4a7a:	4c3c      	ldr	r4, [pc, #240]	; (4b6c <__aeabi_ddiv+0x1f0>)
    4a7c:	2600      	movs	r6, #0
    4a7e:	1a24      	subs	r4, r4, r0
    4a80:	9303      	str	r3, [sp, #12]
    4a82:	e79f      	b.n	49c4 <__aeabi_ddiv+0x48>
    4a84:	4651      	mov	r1, sl
    4a86:	465a      	mov	r2, fp
    4a88:	4311      	orrs	r1, r2
    4a8a:	d129      	bne.n	4ae0 <__aeabi_ddiv+0x164>
    4a8c:	2200      	movs	r2, #0
    4a8e:	4693      	mov	fp, r2
    4a90:	3202      	adds	r2, #2
    4a92:	e7b1      	b.n	49f8 <__aeabi_ddiv+0x7c>
    4a94:	4659      	mov	r1, fp
    4a96:	4301      	orrs	r1, r0
    4a98:	d01e      	beq.n	4ad8 <__aeabi_ddiv+0x15c>
    4a9a:	465b      	mov	r3, fp
    4a9c:	2b00      	cmp	r3, #0
    4a9e:	d100      	bne.n	4aa2 <__aeabi_ddiv+0x126>
    4aa0:	e19e      	b.n	4de0 <__aeabi_ddiv+0x464>
    4aa2:	4658      	mov	r0, fp
    4aa4:	f001 f9fc 	bl	5ea0 <__clzsi2>
    4aa8:	0003      	movs	r3, r0
    4aaa:	3b0b      	subs	r3, #11
    4aac:	2b1c      	cmp	r3, #28
    4aae:	dd00      	ble.n	4ab2 <__aeabi_ddiv+0x136>
    4ab0:	e18f      	b.n	4dd2 <__aeabi_ddiv+0x456>
    4ab2:	0002      	movs	r2, r0
    4ab4:	4659      	mov	r1, fp
    4ab6:	3a08      	subs	r2, #8
    4ab8:	4091      	lsls	r1, r2
    4aba:	468b      	mov	fp, r1
    4abc:	211d      	movs	r1, #29
    4abe:	1acb      	subs	r3, r1, r3
    4ac0:	4651      	mov	r1, sl
    4ac2:	40d9      	lsrs	r1, r3
    4ac4:	000b      	movs	r3, r1
    4ac6:	4659      	mov	r1, fp
    4ac8:	430b      	orrs	r3, r1
    4aca:	4651      	mov	r1, sl
    4acc:	469b      	mov	fp, r3
    4ace:	4091      	lsls	r1, r2
    4ad0:	4b26      	ldr	r3, [pc, #152]	; (4b6c <__aeabi_ddiv+0x1f0>)
    4ad2:	2200      	movs	r2, #0
    4ad4:	1a1b      	subs	r3, r3, r0
    4ad6:	e78f      	b.n	49f8 <__aeabi_ddiv+0x7c>
    4ad8:	2300      	movs	r3, #0
    4ada:	2201      	movs	r2, #1
    4adc:	469b      	mov	fp, r3
    4ade:	e78b      	b.n	49f8 <__aeabi_ddiv+0x7c>
    4ae0:	4651      	mov	r1, sl
    4ae2:	2203      	movs	r2, #3
    4ae4:	e788      	b.n	49f8 <__aeabi_ddiv+0x7c>
    4ae6:	2300      	movs	r3, #0
    4ae8:	4698      	mov	r8, r3
    4aea:	3301      	adds	r3, #1
    4aec:	2604      	movs	r6, #4
    4aee:	2400      	movs	r4, #0
    4af0:	9303      	str	r3, [sp, #12]
    4af2:	e767      	b.n	49c4 <__aeabi_ddiv+0x48>
    4af4:	2303      	movs	r3, #3
    4af6:	46b1      	mov	r9, r6
    4af8:	9303      	str	r3, [sp, #12]
    4afa:	260c      	movs	r6, #12
    4afc:	e762      	b.n	49c4 <__aeabi_ddiv+0x48>
    4afe:	2a03      	cmp	r2, #3
    4b00:	d100      	bne.n	4b04 <__aeabi_ddiv+0x188>
    4b02:	e25c      	b.n	4fbe <__aeabi_ddiv+0x642>
    4b04:	9b01      	ldr	r3, [sp, #4]
    4b06:	2a01      	cmp	r2, #1
    4b08:	d000      	beq.n	4b0c <__aeabi_ddiv+0x190>
    4b0a:	e1e4      	b.n	4ed6 <__aeabi_ddiv+0x55a>
    4b0c:	4013      	ands	r3, r2
    4b0e:	469c      	mov	ip, r3
    4b10:	2300      	movs	r3, #0
    4b12:	2400      	movs	r4, #0
    4b14:	2200      	movs	r2, #0
    4b16:	4698      	mov	r8, r3
    4b18:	2100      	movs	r1, #0
    4b1a:	0312      	lsls	r2, r2, #12
    4b1c:	0b13      	lsrs	r3, r2, #12
    4b1e:	0d0a      	lsrs	r2, r1, #20
    4b20:	0512      	lsls	r2, r2, #20
    4b22:	431a      	orrs	r2, r3
    4b24:	0523      	lsls	r3, r4, #20
    4b26:	4c12      	ldr	r4, [pc, #72]	; (4b70 <__aeabi_ddiv+0x1f4>)
    4b28:	4640      	mov	r0, r8
    4b2a:	4022      	ands	r2, r4
    4b2c:	4313      	orrs	r3, r2
    4b2e:	4662      	mov	r2, ip
    4b30:	005b      	lsls	r3, r3, #1
    4b32:	07d2      	lsls	r2, r2, #31
    4b34:	085b      	lsrs	r3, r3, #1
    4b36:	4313      	orrs	r3, r2
    4b38:	0019      	movs	r1, r3
    4b3a:	b007      	add	sp, #28
    4b3c:	bc3c      	pop	{r2, r3, r4, r5}
    4b3e:	4690      	mov	r8, r2
    4b40:	4699      	mov	r9, r3
    4b42:	46a2      	mov	sl, r4
    4b44:	46ab      	mov	fp, r5
    4b46:	bdf0      	pop	{r4, r5, r6, r7, pc}
    4b48:	2300      	movs	r3, #0
    4b4a:	2280      	movs	r2, #128	; 0x80
    4b4c:	469c      	mov	ip, r3
    4b4e:	0312      	lsls	r2, r2, #12
    4b50:	4698      	mov	r8, r3
    4b52:	4c03      	ldr	r4, [pc, #12]	; (4b60 <__aeabi_ddiv+0x1e4>)
    4b54:	e7e0      	b.n	4b18 <__aeabi_ddiv+0x19c>
    4b56:	2300      	movs	r3, #0
    4b58:	4c01      	ldr	r4, [pc, #4]	; (4b60 <__aeabi_ddiv+0x1e4>)
    4b5a:	2200      	movs	r2, #0
    4b5c:	4698      	mov	r8, r3
    4b5e:	e7db      	b.n	4b18 <__aeabi_ddiv+0x19c>
    4b60:	000007ff 	.word	0x000007ff
    4b64:	fffffc01 	.word	0xfffffc01
    4b68:	0000b200 	.word	0x0000b200
    4b6c:	fffffc0d 	.word	0xfffffc0d
    4b70:	800fffff 	.word	0x800fffff
    4b74:	45d9      	cmp	r9, fp
    4b76:	d900      	bls.n	4b7a <__aeabi_ddiv+0x1fe>
    4b78:	e139      	b.n	4dee <__aeabi_ddiv+0x472>
    4b7a:	d100      	bne.n	4b7e <__aeabi_ddiv+0x202>
    4b7c:	e134      	b.n	4de8 <__aeabi_ddiv+0x46c>
    4b7e:	2300      	movs	r3, #0
    4b80:	4646      	mov	r6, r8
    4b82:	464d      	mov	r5, r9
    4b84:	469a      	mov	sl, r3
    4b86:	3c01      	subs	r4, #1
    4b88:	465b      	mov	r3, fp
    4b8a:	0e0a      	lsrs	r2, r1, #24
    4b8c:	021b      	lsls	r3, r3, #8
    4b8e:	431a      	orrs	r2, r3
    4b90:	020b      	lsls	r3, r1, #8
    4b92:	0c17      	lsrs	r7, r2, #16
    4b94:	9303      	str	r3, [sp, #12]
    4b96:	0413      	lsls	r3, r2, #16
    4b98:	0c1b      	lsrs	r3, r3, #16
    4b9a:	0039      	movs	r1, r7
    4b9c:	0028      	movs	r0, r5
    4b9e:	4690      	mov	r8, r2
    4ba0:	9301      	str	r3, [sp, #4]
    4ba2:	f7fe ff23 	bl	39ec <__udivsi3>
    4ba6:	0002      	movs	r2, r0
    4ba8:	9b01      	ldr	r3, [sp, #4]
    4baa:	4683      	mov	fp, r0
    4bac:	435a      	muls	r2, r3
    4bae:	0028      	movs	r0, r5
    4bb0:	0039      	movs	r1, r7
    4bb2:	4691      	mov	r9, r2
    4bb4:	f7fe ffa0 	bl	3af8 <__aeabi_uidivmod>
    4bb8:	0c35      	lsrs	r5, r6, #16
    4bba:	0409      	lsls	r1, r1, #16
    4bbc:	430d      	orrs	r5, r1
    4bbe:	45a9      	cmp	r9, r5
    4bc0:	d90d      	bls.n	4bde <__aeabi_ddiv+0x262>
    4bc2:	465b      	mov	r3, fp
    4bc4:	4445      	add	r5, r8
    4bc6:	3b01      	subs	r3, #1
    4bc8:	45a8      	cmp	r8, r5
    4bca:	d900      	bls.n	4bce <__aeabi_ddiv+0x252>
    4bcc:	e13a      	b.n	4e44 <__aeabi_ddiv+0x4c8>
    4bce:	45a9      	cmp	r9, r5
    4bd0:	d800      	bhi.n	4bd4 <__aeabi_ddiv+0x258>
    4bd2:	e137      	b.n	4e44 <__aeabi_ddiv+0x4c8>
    4bd4:	2302      	movs	r3, #2
    4bd6:	425b      	negs	r3, r3
    4bd8:	469c      	mov	ip, r3
    4bda:	4445      	add	r5, r8
    4bdc:	44e3      	add	fp, ip
    4bde:	464b      	mov	r3, r9
    4be0:	1aeb      	subs	r3, r5, r3
    4be2:	0039      	movs	r1, r7
    4be4:	0018      	movs	r0, r3
    4be6:	9304      	str	r3, [sp, #16]
    4be8:	f7fe ff00 	bl	39ec <__udivsi3>
    4bec:	9b01      	ldr	r3, [sp, #4]
    4bee:	0005      	movs	r5, r0
    4bf0:	4343      	muls	r3, r0
    4bf2:	0039      	movs	r1, r7
    4bf4:	9804      	ldr	r0, [sp, #16]
    4bf6:	4699      	mov	r9, r3
    4bf8:	f7fe ff7e 	bl	3af8 <__aeabi_uidivmod>
    4bfc:	0433      	lsls	r3, r6, #16
    4bfe:	0409      	lsls	r1, r1, #16
    4c00:	0c1b      	lsrs	r3, r3, #16
    4c02:	430b      	orrs	r3, r1
    4c04:	4599      	cmp	r9, r3
    4c06:	d909      	bls.n	4c1c <__aeabi_ddiv+0x2a0>
    4c08:	4443      	add	r3, r8
    4c0a:	1e6a      	subs	r2, r5, #1
    4c0c:	4598      	cmp	r8, r3
    4c0e:	d900      	bls.n	4c12 <__aeabi_ddiv+0x296>
    4c10:	e11a      	b.n	4e48 <__aeabi_ddiv+0x4cc>
    4c12:	4599      	cmp	r9, r3
    4c14:	d800      	bhi.n	4c18 <__aeabi_ddiv+0x29c>
    4c16:	e117      	b.n	4e48 <__aeabi_ddiv+0x4cc>
    4c18:	3d02      	subs	r5, #2
    4c1a:	4443      	add	r3, r8
    4c1c:	464a      	mov	r2, r9
    4c1e:	1a9b      	subs	r3, r3, r2
    4c20:	465a      	mov	r2, fp
    4c22:	0412      	lsls	r2, r2, #16
    4c24:	432a      	orrs	r2, r5
    4c26:	9903      	ldr	r1, [sp, #12]
    4c28:	4693      	mov	fp, r2
    4c2a:	0c10      	lsrs	r0, r2, #16
    4c2c:	0c0a      	lsrs	r2, r1, #16
    4c2e:	4691      	mov	r9, r2
    4c30:	0409      	lsls	r1, r1, #16
    4c32:	465a      	mov	r2, fp
    4c34:	0c09      	lsrs	r1, r1, #16
    4c36:	464e      	mov	r6, r9
    4c38:	000d      	movs	r5, r1
    4c3a:	0412      	lsls	r2, r2, #16
    4c3c:	0c12      	lsrs	r2, r2, #16
    4c3e:	4345      	muls	r5, r0
    4c40:	9105      	str	r1, [sp, #20]
    4c42:	4351      	muls	r1, r2
    4c44:	4372      	muls	r2, r6
    4c46:	4370      	muls	r0, r6
    4c48:	1952      	adds	r2, r2, r5
    4c4a:	0c0e      	lsrs	r6, r1, #16
    4c4c:	18b2      	adds	r2, r6, r2
    4c4e:	4295      	cmp	r5, r2
    4c50:	d903      	bls.n	4c5a <__aeabi_ddiv+0x2de>
    4c52:	2580      	movs	r5, #128	; 0x80
    4c54:	026d      	lsls	r5, r5, #9
    4c56:	46ac      	mov	ip, r5
    4c58:	4460      	add	r0, ip
    4c5a:	0c15      	lsrs	r5, r2, #16
    4c5c:	0409      	lsls	r1, r1, #16
    4c5e:	0412      	lsls	r2, r2, #16
    4c60:	0c09      	lsrs	r1, r1, #16
    4c62:	1828      	adds	r0, r5, r0
    4c64:	1852      	adds	r2, r2, r1
    4c66:	4283      	cmp	r3, r0
    4c68:	d200      	bcs.n	4c6c <__aeabi_ddiv+0x2f0>
    4c6a:	e0ce      	b.n	4e0a <__aeabi_ddiv+0x48e>
    4c6c:	d100      	bne.n	4c70 <__aeabi_ddiv+0x2f4>
    4c6e:	e0c8      	b.n	4e02 <__aeabi_ddiv+0x486>
    4c70:	1a1d      	subs	r5, r3, r0
    4c72:	4653      	mov	r3, sl
    4c74:	1a9e      	subs	r6, r3, r2
    4c76:	45b2      	cmp	sl, r6
    4c78:	4192      	sbcs	r2, r2
    4c7a:	4252      	negs	r2, r2
    4c7c:	1aab      	subs	r3, r5, r2
    4c7e:	469a      	mov	sl, r3
    4c80:	4598      	cmp	r8, r3
    4c82:	d100      	bne.n	4c86 <__aeabi_ddiv+0x30a>
    4c84:	e117      	b.n	4eb6 <__aeabi_ddiv+0x53a>
    4c86:	0039      	movs	r1, r7
    4c88:	0018      	movs	r0, r3
    4c8a:	f7fe feaf 	bl	39ec <__udivsi3>
    4c8e:	9b01      	ldr	r3, [sp, #4]
    4c90:	0005      	movs	r5, r0
    4c92:	4343      	muls	r3, r0
    4c94:	0039      	movs	r1, r7
    4c96:	4650      	mov	r0, sl
    4c98:	9304      	str	r3, [sp, #16]
    4c9a:	f7fe ff2d 	bl	3af8 <__aeabi_uidivmod>
    4c9e:	9804      	ldr	r0, [sp, #16]
    4ca0:	040b      	lsls	r3, r1, #16
    4ca2:	0c31      	lsrs	r1, r6, #16
    4ca4:	4319      	orrs	r1, r3
    4ca6:	4288      	cmp	r0, r1
    4ca8:	d909      	bls.n	4cbe <__aeabi_ddiv+0x342>
    4caa:	4441      	add	r1, r8
    4cac:	1e6b      	subs	r3, r5, #1
    4cae:	4588      	cmp	r8, r1
    4cb0:	d900      	bls.n	4cb4 <__aeabi_ddiv+0x338>
    4cb2:	e107      	b.n	4ec4 <__aeabi_ddiv+0x548>
    4cb4:	4288      	cmp	r0, r1
    4cb6:	d800      	bhi.n	4cba <__aeabi_ddiv+0x33e>
    4cb8:	e104      	b.n	4ec4 <__aeabi_ddiv+0x548>
    4cba:	3d02      	subs	r5, #2
    4cbc:	4441      	add	r1, r8
    4cbe:	9b04      	ldr	r3, [sp, #16]
    4cc0:	1acb      	subs	r3, r1, r3
    4cc2:	0018      	movs	r0, r3
    4cc4:	0039      	movs	r1, r7
    4cc6:	9304      	str	r3, [sp, #16]
    4cc8:	f7fe fe90 	bl	39ec <__udivsi3>
    4ccc:	9b01      	ldr	r3, [sp, #4]
    4cce:	4682      	mov	sl, r0
    4cd0:	4343      	muls	r3, r0
    4cd2:	0039      	movs	r1, r7
    4cd4:	9804      	ldr	r0, [sp, #16]
    4cd6:	9301      	str	r3, [sp, #4]
    4cd8:	f7fe ff0e 	bl	3af8 <__aeabi_uidivmod>
    4cdc:	9801      	ldr	r0, [sp, #4]
    4cde:	040b      	lsls	r3, r1, #16
    4ce0:	0431      	lsls	r1, r6, #16
    4ce2:	0c09      	lsrs	r1, r1, #16
    4ce4:	4319      	orrs	r1, r3
    4ce6:	4288      	cmp	r0, r1
    4ce8:	d90d      	bls.n	4d06 <__aeabi_ddiv+0x38a>
    4cea:	4653      	mov	r3, sl
    4cec:	4441      	add	r1, r8
    4cee:	3b01      	subs	r3, #1
    4cf0:	4588      	cmp	r8, r1
    4cf2:	d900      	bls.n	4cf6 <__aeabi_ddiv+0x37a>
    4cf4:	e0e8      	b.n	4ec8 <__aeabi_ddiv+0x54c>
    4cf6:	4288      	cmp	r0, r1
    4cf8:	d800      	bhi.n	4cfc <__aeabi_ddiv+0x380>
    4cfa:	e0e5      	b.n	4ec8 <__aeabi_ddiv+0x54c>
    4cfc:	2302      	movs	r3, #2
    4cfe:	425b      	negs	r3, r3
    4d00:	469c      	mov	ip, r3
    4d02:	4441      	add	r1, r8
    4d04:	44e2      	add	sl, ip
    4d06:	9b01      	ldr	r3, [sp, #4]
    4d08:	042d      	lsls	r5, r5, #16
    4d0a:	1ace      	subs	r6, r1, r3
    4d0c:	4651      	mov	r1, sl
    4d0e:	4329      	orrs	r1, r5
    4d10:	9d05      	ldr	r5, [sp, #20]
    4d12:	464f      	mov	r7, r9
    4d14:	002a      	movs	r2, r5
    4d16:	040b      	lsls	r3, r1, #16
    4d18:	0c08      	lsrs	r0, r1, #16
    4d1a:	0c1b      	lsrs	r3, r3, #16
    4d1c:	435a      	muls	r2, r3
    4d1e:	4345      	muls	r5, r0
    4d20:	437b      	muls	r3, r7
    4d22:	4378      	muls	r0, r7
    4d24:	195b      	adds	r3, r3, r5
    4d26:	0c17      	lsrs	r7, r2, #16
    4d28:	18fb      	adds	r3, r7, r3
    4d2a:	429d      	cmp	r5, r3
    4d2c:	d903      	bls.n	4d36 <__aeabi_ddiv+0x3ba>
    4d2e:	2580      	movs	r5, #128	; 0x80
    4d30:	026d      	lsls	r5, r5, #9
    4d32:	46ac      	mov	ip, r5
    4d34:	4460      	add	r0, ip
    4d36:	0c1d      	lsrs	r5, r3, #16
    4d38:	0412      	lsls	r2, r2, #16
    4d3a:	041b      	lsls	r3, r3, #16
    4d3c:	0c12      	lsrs	r2, r2, #16
    4d3e:	1828      	adds	r0, r5, r0
    4d40:	189b      	adds	r3, r3, r2
    4d42:	4286      	cmp	r6, r0
    4d44:	d200      	bcs.n	4d48 <__aeabi_ddiv+0x3cc>
    4d46:	e093      	b.n	4e70 <__aeabi_ddiv+0x4f4>
    4d48:	d100      	bne.n	4d4c <__aeabi_ddiv+0x3d0>
    4d4a:	e08e      	b.n	4e6a <__aeabi_ddiv+0x4ee>
    4d4c:	2301      	movs	r3, #1
    4d4e:	4319      	orrs	r1, r3
    4d50:	4ba0      	ldr	r3, [pc, #640]	; (4fd4 <__aeabi_ddiv+0x658>)
    4d52:	18e3      	adds	r3, r4, r3
    4d54:	2b00      	cmp	r3, #0
    4d56:	dc00      	bgt.n	4d5a <__aeabi_ddiv+0x3de>
    4d58:	e099      	b.n	4e8e <__aeabi_ddiv+0x512>
    4d5a:	074a      	lsls	r2, r1, #29
    4d5c:	d000      	beq.n	4d60 <__aeabi_ddiv+0x3e4>
    4d5e:	e09e      	b.n	4e9e <__aeabi_ddiv+0x522>
    4d60:	465a      	mov	r2, fp
    4d62:	01d2      	lsls	r2, r2, #7
    4d64:	d506      	bpl.n	4d74 <__aeabi_ddiv+0x3f8>
    4d66:	465a      	mov	r2, fp
    4d68:	4b9b      	ldr	r3, [pc, #620]	; (4fd8 <__aeabi_ddiv+0x65c>)
    4d6a:	401a      	ands	r2, r3
    4d6c:	2380      	movs	r3, #128	; 0x80
    4d6e:	4693      	mov	fp, r2
    4d70:	00db      	lsls	r3, r3, #3
    4d72:	18e3      	adds	r3, r4, r3
    4d74:	4a99      	ldr	r2, [pc, #612]	; (4fdc <__aeabi_ddiv+0x660>)
    4d76:	4293      	cmp	r3, r2
    4d78:	dd68      	ble.n	4e4c <__aeabi_ddiv+0x4d0>
    4d7a:	2301      	movs	r3, #1
    4d7c:	9a02      	ldr	r2, [sp, #8]
    4d7e:	4c98      	ldr	r4, [pc, #608]	; (4fe0 <__aeabi_ddiv+0x664>)
    4d80:	401a      	ands	r2, r3
    4d82:	2300      	movs	r3, #0
    4d84:	4694      	mov	ip, r2
    4d86:	4698      	mov	r8, r3
    4d88:	2200      	movs	r2, #0
    4d8a:	e6c5      	b.n	4b18 <__aeabi_ddiv+0x19c>
    4d8c:	2280      	movs	r2, #128	; 0x80
    4d8e:	464b      	mov	r3, r9
    4d90:	0312      	lsls	r2, r2, #12
    4d92:	4213      	tst	r3, r2
    4d94:	d00a      	beq.n	4dac <__aeabi_ddiv+0x430>
    4d96:	465b      	mov	r3, fp
    4d98:	4213      	tst	r3, r2
    4d9a:	d106      	bne.n	4daa <__aeabi_ddiv+0x42e>
    4d9c:	431a      	orrs	r2, r3
    4d9e:	0312      	lsls	r2, r2, #12
    4da0:	0b12      	lsrs	r2, r2, #12
    4da2:	46ac      	mov	ip, r5
    4da4:	4688      	mov	r8, r1
    4da6:	4c8e      	ldr	r4, [pc, #568]	; (4fe0 <__aeabi_ddiv+0x664>)
    4da8:	e6b6      	b.n	4b18 <__aeabi_ddiv+0x19c>
    4daa:	464b      	mov	r3, r9
    4dac:	431a      	orrs	r2, r3
    4dae:	0312      	lsls	r2, r2, #12
    4db0:	0b12      	lsrs	r2, r2, #12
    4db2:	46bc      	mov	ip, r7
    4db4:	4c8a      	ldr	r4, [pc, #552]	; (4fe0 <__aeabi_ddiv+0x664>)
    4db6:	e6af      	b.n	4b18 <__aeabi_ddiv+0x19c>
    4db8:	0003      	movs	r3, r0
    4dba:	465a      	mov	r2, fp
    4dbc:	3b28      	subs	r3, #40	; 0x28
    4dbe:	409a      	lsls	r2, r3
    4dc0:	2300      	movs	r3, #0
    4dc2:	4691      	mov	r9, r2
    4dc4:	4698      	mov	r8, r3
    4dc6:	e657      	b.n	4a78 <__aeabi_ddiv+0xfc>
    4dc8:	4658      	mov	r0, fp
    4dca:	f001 f869 	bl	5ea0 <__clzsi2>
    4dce:	3020      	adds	r0, #32
    4dd0:	e640      	b.n	4a54 <__aeabi_ddiv+0xd8>
    4dd2:	0003      	movs	r3, r0
    4dd4:	4652      	mov	r2, sl
    4dd6:	3b28      	subs	r3, #40	; 0x28
    4dd8:	409a      	lsls	r2, r3
    4dda:	2100      	movs	r1, #0
    4ddc:	4693      	mov	fp, r2
    4dde:	e677      	b.n	4ad0 <__aeabi_ddiv+0x154>
    4de0:	f001 f85e 	bl	5ea0 <__clzsi2>
    4de4:	3020      	adds	r0, #32
    4de6:	e65f      	b.n	4aa8 <__aeabi_ddiv+0x12c>
    4de8:	4588      	cmp	r8, r1
    4dea:	d200      	bcs.n	4dee <__aeabi_ddiv+0x472>
    4dec:	e6c7      	b.n	4b7e <__aeabi_ddiv+0x202>
    4dee:	464b      	mov	r3, r9
    4df0:	07de      	lsls	r6, r3, #31
    4df2:	085d      	lsrs	r5, r3, #1
    4df4:	4643      	mov	r3, r8
    4df6:	085b      	lsrs	r3, r3, #1
    4df8:	431e      	orrs	r6, r3
    4dfa:	4643      	mov	r3, r8
    4dfc:	07db      	lsls	r3, r3, #31
    4dfe:	469a      	mov	sl, r3
    4e00:	e6c2      	b.n	4b88 <__aeabi_ddiv+0x20c>
    4e02:	2500      	movs	r5, #0
    4e04:	4592      	cmp	sl, r2
    4e06:	d300      	bcc.n	4e0a <__aeabi_ddiv+0x48e>
    4e08:	e733      	b.n	4c72 <__aeabi_ddiv+0x2f6>
    4e0a:	9e03      	ldr	r6, [sp, #12]
    4e0c:	4659      	mov	r1, fp
    4e0e:	46b4      	mov	ip, r6
    4e10:	44e2      	add	sl, ip
    4e12:	45b2      	cmp	sl, r6
    4e14:	41ad      	sbcs	r5, r5
    4e16:	426d      	negs	r5, r5
    4e18:	4445      	add	r5, r8
    4e1a:	18eb      	adds	r3, r5, r3
    4e1c:	3901      	subs	r1, #1
    4e1e:	4598      	cmp	r8, r3
    4e20:	d207      	bcs.n	4e32 <__aeabi_ddiv+0x4b6>
    4e22:	4298      	cmp	r0, r3
    4e24:	d900      	bls.n	4e28 <__aeabi_ddiv+0x4ac>
    4e26:	e07f      	b.n	4f28 <__aeabi_ddiv+0x5ac>
    4e28:	d100      	bne.n	4e2c <__aeabi_ddiv+0x4b0>
    4e2a:	e0bc      	b.n	4fa6 <__aeabi_ddiv+0x62a>
    4e2c:	1a1d      	subs	r5, r3, r0
    4e2e:	468b      	mov	fp, r1
    4e30:	e71f      	b.n	4c72 <__aeabi_ddiv+0x2f6>
    4e32:	4598      	cmp	r8, r3
    4e34:	d1fa      	bne.n	4e2c <__aeabi_ddiv+0x4b0>
    4e36:	9d03      	ldr	r5, [sp, #12]
    4e38:	4555      	cmp	r5, sl
    4e3a:	d9f2      	bls.n	4e22 <__aeabi_ddiv+0x4a6>
    4e3c:	4643      	mov	r3, r8
    4e3e:	468b      	mov	fp, r1
    4e40:	1a1d      	subs	r5, r3, r0
    4e42:	e716      	b.n	4c72 <__aeabi_ddiv+0x2f6>
    4e44:	469b      	mov	fp, r3
    4e46:	e6ca      	b.n	4bde <__aeabi_ddiv+0x262>
    4e48:	0015      	movs	r5, r2
    4e4a:	e6e7      	b.n	4c1c <__aeabi_ddiv+0x2a0>
    4e4c:	465a      	mov	r2, fp
    4e4e:	08c9      	lsrs	r1, r1, #3
    4e50:	0752      	lsls	r2, r2, #29
    4e52:	430a      	orrs	r2, r1
    4e54:	055b      	lsls	r3, r3, #21
    4e56:	4690      	mov	r8, r2
    4e58:	0d5c      	lsrs	r4, r3, #21
    4e5a:	465a      	mov	r2, fp
    4e5c:	2301      	movs	r3, #1
    4e5e:	9902      	ldr	r1, [sp, #8]
    4e60:	0252      	lsls	r2, r2, #9
    4e62:	4019      	ands	r1, r3
    4e64:	0b12      	lsrs	r2, r2, #12
    4e66:	468c      	mov	ip, r1
    4e68:	e656      	b.n	4b18 <__aeabi_ddiv+0x19c>
    4e6a:	2b00      	cmp	r3, #0
    4e6c:	d100      	bne.n	4e70 <__aeabi_ddiv+0x4f4>
    4e6e:	e76f      	b.n	4d50 <__aeabi_ddiv+0x3d4>
    4e70:	4446      	add	r6, r8
    4e72:	1e4a      	subs	r2, r1, #1
    4e74:	45b0      	cmp	r8, r6
    4e76:	d929      	bls.n	4ecc <__aeabi_ddiv+0x550>
    4e78:	0011      	movs	r1, r2
    4e7a:	4286      	cmp	r6, r0
    4e7c:	d000      	beq.n	4e80 <__aeabi_ddiv+0x504>
    4e7e:	e765      	b.n	4d4c <__aeabi_ddiv+0x3d0>
    4e80:	9a03      	ldr	r2, [sp, #12]
    4e82:	4293      	cmp	r3, r2
    4e84:	d000      	beq.n	4e88 <__aeabi_ddiv+0x50c>
    4e86:	e761      	b.n	4d4c <__aeabi_ddiv+0x3d0>
    4e88:	e762      	b.n	4d50 <__aeabi_ddiv+0x3d4>
    4e8a:	2101      	movs	r1, #1
    4e8c:	4249      	negs	r1, r1
    4e8e:	2001      	movs	r0, #1
    4e90:	1ac2      	subs	r2, r0, r3
    4e92:	2a38      	cmp	r2, #56	; 0x38
    4e94:	dd21      	ble.n	4eda <__aeabi_ddiv+0x55e>
    4e96:	9b02      	ldr	r3, [sp, #8]
    4e98:	4003      	ands	r3, r0
    4e9a:	469c      	mov	ip, r3
    4e9c:	e638      	b.n	4b10 <__aeabi_ddiv+0x194>
    4e9e:	220f      	movs	r2, #15
    4ea0:	400a      	ands	r2, r1
    4ea2:	2a04      	cmp	r2, #4
    4ea4:	d100      	bne.n	4ea8 <__aeabi_ddiv+0x52c>
    4ea6:	e75b      	b.n	4d60 <__aeabi_ddiv+0x3e4>
    4ea8:	000a      	movs	r2, r1
    4eaa:	1d11      	adds	r1, r2, #4
    4eac:	4291      	cmp	r1, r2
    4eae:	4192      	sbcs	r2, r2
    4eb0:	4252      	negs	r2, r2
    4eb2:	4493      	add	fp, r2
    4eb4:	e754      	b.n	4d60 <__aeabi_ddiv+0x3e4>
    4eb6:	4b47      	ldr	r3, [pc, #284]	; (4fd4 <__aeabi_ddiv+0x658>)
    4eb8:	18e3      	adds	r3, r4, r3
    4eba:	2b00      	cmp	r3, #0
    4ebc:	dde5      	ble.n	4e8a <__aeabi_ddiv+0x50e>
    4ebe:	2201      	movs	r2, #1
    4ec0:	4252      	negs	r2, r2
    4ec2:	e7f2      	b.n	4eaa <__aeabi_ddiv+0x52e>
    4ec4:	001d      	movs	r5, r3
    4ec6:	e6fa      	b.n	4cbe <__aeabi_ddiv+0x342>
    4ec8:	469a      	mov	sl, r3
    4eca:	e71c      	b.n	4d06 <__aeabi_ddiv+0x38a>
    4ecc:	42b0      	cmp	r0, r6
    4ece:	d839      	bhi.n	4f44 <__aeabi_ddiv+0x5c8>
    4ed0:	d06e      	beq.n	4fb0 <__aeabi_ddiv+0x634>
    4ed2:	0011      	movs	r1, r2
    4ed4:	e73a      	b.n	4d4c <__aeabi_ddiv+0x3d0>
    4ed6:	9302      	str	r3, [sp, #8]
    4ed8:	e73a      	b.n	4d50 <__aeabi_ddiv+0x3d4>
    4eda:	2a1f      	cmp	r2, #31
    4edc:	dc3c      	bgt.n	4f58 <__aeabi_ddiv+0x5dc>
    4ede:	2320      	movs	r3, #32
    4ee0:	1a9b      	subs	r3, r3, r2
    4ee2:	000c      	movs	r4, r1
    4ee4:	4658      	mov	r0, fp
    4ee6:	4099      	lsls	r1, r3
    4ee8:	4098      	lsls	r0, r3
    4eea:	1e4b      	subs	r3, r1, #1
    4eec:	4199      	sbcs	r1, r3
    4eee:	465b      	mov	r3, fp
    4ef0:	40d4      	lsrs	r4, r2
    4ef2:	40d3      	lsrs	r3, r2
    4ef4:	4320      	orrs	r0, r4
    4ef6:	4308      	orrs	r0, r1
    4ef8:	001a      	movs	r2, r3
    4efa:	0743      	lsls	r3, r0, #29
    4efc:	d009      	beq.n	4f12 <__aeabi_ddiv+0x596>
    4efe:	230f      	movs	r3, #15
    4f00:	4003      	ands	r3, r0
    4f02:	2b04      	cmp	r3, #4
    4f04:	d005      	beq.n	4f12 <__aeabi_ddiv+0x596>
    4f06:	0001      	movs	r1, r0
    4f08:	1d08      	adds	r0, r1, #4
    4f0a:	4288      	cmp	r0, r1
    4f0c:	419b      	sbcs	r3, r3
    4f0e:	425b      	negs	r3, r3
    4f10:	18d2      	adds	r2, r2, r3
    4f12:	0213      	lsls	r3, r2, #8
    4f14:	d53a      	bpl.n	4f8c <__aeabi_ddiv+0x610>
    4f16:	2301      	movs	r3, #1
    4f18:	9a02      	ldr	r2, [sp, #8]
    4f1a:	2401      	movs	r4, #1
    4f1c:	401a      	ands	r2, r3
    4f1e:	2300      	movs	r3, #0
    4f20:	4694      	mov	ip, r2
    4f22:	4698      	mov	r8, r3
    4f24:	2200      	movs	r2, #0
    4f26:	e5f7      	b.n	4b18 <__aeabi_ddiv+0x19c>
    4f28:	2102      	movs	r1, #2
    4f2a:	4249      	negs	r1, r1
    4f2c:	468c      	mov	ip, r1
    4f2e:	9d03      	ldr	r5, [sp, #12]
    4f30:	44e3      	add	fp, ip
    4f32:	46ac      	mov	ip, r5
    4f34:	44e2      	add	sl, ip
    4f36:	45aa      	cmp	sl, r5
    4f38:	41ad      	sbcs	r5, r5
    4f3a:	426d      	negs	r5, r5
    4f3c:	4445      	add	r5, r8
    4f3e:	18ed      	adds	r5, r5, r3
    4f40:	1a2d      	subs	r5, r5, r0
    4f42:	e696      	b.n	4c72 <__aeabi_ddiv+0x2f6>
    4f44:	1e8a      	subs	r2, r1, #2
    4f46:	9903      	ldr	r1, [sp, #12]
    4f48:	004d      	lsls	r5, r1, #1
    4f4a:	428d      	cmp	r5, r1
    4f4c:	4189      	sbcs	r1, r1
    4f4e:	4249      	negs	r1, r1
    4f50:	4441      	add	r1, r8
    4f52:	1876      	adds	r6, r6, r1
    4f54:	9503      	str	r5, [sp, #12]
    4f56:	e78f      	b.n	4e78 <__aeabi_ddiv+0x4fc>
    4f58:	201f      	movs	r0, #31
    4f5a:	4240      	negs	r0, r0
    4f5c:	1ac3      	subs	r3, r0, r3
    4f5e:	4658      	mov	r0, fp
    4f60:	40d8      	lsrs	r0, r3
    4f62:	0003      	movs	r3, r0
    4f64:	2a20      	cmp	r2, #32
    4f66:	d028      	beq.n	4fba <__aeabi_ddiv+0x63e>
    4f68:	2040      	movs	r0, #64	; 0x40
    4f6a:	465d      	mov	r5, fp
    4f6c:	1a82      	subs	r2, r0, r2
    4f6e:	4095      	lsls	r5, r2
    4f70:	4329      	orrs	r1, r5
    4f72:	1e4a      	subs	r2, r1, #1
    4f74:	4191      	sbcs	r1, r2
    4f76:	4319      	orrs	r1, r3
    4f78:	2307      	movs	r3, #7
    4f7a:	2200      	movs	r2, #0
    4f7c:	400b      	ands	r3, r1
    4f7e:	d009      	beq.n	4f94 <__aeabi_ddiv+0x618>
    4f80:	230f      	movs	r3, #15
    4f82:	2200      	movs	r2, #0
    4f84:	400b      	ands	r3, r1
    4f86:	0008      	movs	r0, r1
    4f88:	2b04      	cmp	r3, #4
    4f8a:	d1bd      	bne.n	4f08 <__aeabi_ddiv+0x58c>
    4f8c:	0001      	movs	r1, r0
    4f8e:	0753      	lsls	r3, r2, #29
    4f90:	0252      	lsls	r2, r2, #9
    4f92:	0b12      	lsrs	r2, r2, #12
    4f94:	08c9      	lsrs	r1, r1, #3
    4f96:	4319      	orrs	r1, r3
    4f98:	2301      	movs	r3, #1
    4f9a:	4688      	mov	r8, r1
    4f9c:	9902      	ldr	r1, [sp, #8]
    4f9e:	2400      	movs	r4, #0
    4fa0:	4019      	ands	r1, r3
    4fa2:	468c      	mov	ip, r1
    4fa4:	e5b8      	b.n	4b18 <__aeabi_ddiv+0x19c>
    4fa6:	4552      	cmp	r2, sl
    4fa8:	d8be      	bhi.n	4f28 <__aeabi_ddiv+0x5ac>
    4faa:	468b      	mov	fp, r1
    4fac:	2500      	movs	r5, #0
    4fae:	e660      	b.n	4c72 <__aeabi_ddiv+0x2f6>
    4fb0:	9d03      	ldr	r5, [sp, #12]
    4fb2:	429d      	cmp	r5, r3
    4fb4:	d3c6      	bcc.n	4f44 <__aeabi_ddiv+0x5c8>
    4fb6:	0011      	movs	r1, r2
    4fb8:	e762      	b.n	4e80 <__aeabi_ddiv+0x504>
    4fba:	2500      	movs	r5, #0
    4fbc:	e7d8      	b.n	4f70 <__aeabi_ddiv+0x5f4>
    4fbe:	2280      	movs	r2, #128	; 0x80
    4fc0:	465b      	mov	r3, fp
    4fc2:	0312      	lsls	r2, r2, #12
    4fc4:	431a      	orrs	r2, r3
    4fc6:	9b01      	ldr	r3, [sp, #4]
    4fc8:	0312      	lsls	r2, r2, #12
    4fca:	0b12      	lsrs	r2, r2, #12
    4fcc:	469c      	mov	ip, r3
    4fce:	4688      	mov	r8, r1
    4fd0:	4c03      	ldr	r4, [pc, #12]	; (4fe0 <__aeabi_ddiv+0x664>)
    4fd2:	e5a1      	b.n	4b18 <__aeabi_ddiv+0x19c>
    4fd4:	000003ff 	.word	0x000003ff
    4fd8:	feffffff 	.word	0xfeffffff
    4fdc:	000007fe 	.word	0x000007fe
    4fe0:	000007ff 	.word	0x000007ff

00004fe4 <__aeabi_dmul>:
    4fe4:	b5f0      	push	{r4, r5, r6, r7, lr}
    4fe6:	4657      	mov	r7, sl
    4fe8:	4645      	mov	r5, r8
    4fea:	46de      	mov	lr, fp
    4fec:	464e      	mov	r6, r9
    4fee:	b5e0      	push	{r5, r6, r7, lr}
    4ff0:	030c      	lsls	r4, r1, #12
    4ff2:	4698      	mov	r8, r3
    4ff4:	004e      	lsls	r6, r1, #1
    4ff6:	0b23      	lsrs	r3, r4, #12
    4ff8:	b087      	sub	sp, #28
    4ffa:	0007      	movs	r7, r0
    4ffc:	4692      	mov	sl, r2
    4ffe:	469b      	mov	fp, r3
    5000:	0d76      	lsrs	r6, r6, #21
    5002:	0fcd      	lsrs	r5, r1, #31
    5004:	2e00      	cmp	r6, #0
    5006:	d06b      	beq.n	50e0 <__aeabi_dmul+0xfc>
    5008:	4b6d      	ldr	r3, [pc, #436]	; (51c0 <__aeabi_dmul+0x1dc>)
    500a:	429e      	cmp	r6, r3
    500c:	d035      	beq.n	507a <__aeabi_dmul+0x96>
    500e:	2480      	movs	r4, #128	; 0x80
    5010:	465b      	mov	r3, fp
    5012:	0f42      	lsrs	r2, r0, #29
    5014:	0424      	lsls	r4, r4, #16
    5016:	00db      	lsls	r3, r3, #3
    5018:	4314      	orrs	r4, r2
    501a:	431c      	orrs	r4, r3
    501c:	00c3      	lsls	r3, r0, #3
    501e:	4699      	mov	r9, r3
    5020:	4b68      	ldr	r3, [pc, #416]	; (51c4 <__aeabi_dmul+0x1e0>)
    5022:	46a3      	mov	fp, r4
    5024:	469c      	mov	ip, r3
    5026:	2300      	movs	r3, #0
    5028:	2700      	movs	r7, #0
    502a:	4466      	add	r6, ip
    502c:	9302      	str	r3, [sp, #8]
    502e:	4643      	mov	r3, r8
    5030:	031c      	lsls	r4, r3, #12
    5032:	005a      	lsls	r2, r3, #1
    5034:	0fdb      	lsrs	r3, r3, #31
    5036:	4650      	mov	r0, sl
    5038:	0b24      	lsrs	r4, r4, #12
    503a:	0d52      	lsrs	r2, r2, #21
    503c:	4698      	mov	r8, r3
    503e:	d100      	bne.n	5042 <__aeabi_dmul+0x5e>
    5040:	e076      	b.n	5130 <__aeabi_dmul+0x14c>
    5042:	4b5f      	ldr	r3, [pc, #380]	; (51c0 <__aeabi_dmul+0x1dc>)
    5044:	429a      	cmp	r2, r3
    5046:	d06d      	beq.n	5124 <__aeabi_dmul+0x140>
    5048:	2380      	movs	r3, #128	; 0x80
    504a:	0f41      	lsrs	r1, r0, #29
    504c:	041b      	lsls	r3, r3, #16
    504e:	430b      	orrs	r3, r1
    5050:	495c      	ldr	r1, [pc, #368]	; (51c4 <__aeabi_dmul+0x1e0>)
    5052:	00e4      	lsls	r4, r4, #3
    5054:	468c      	mov	ip, r1
    5056:	431c      	orrs	r4, r3
    5058:	00c3      	lsls	r3, r0, #3
    505a:	2000      	movs	r0, #0
    505c:	4462      	add	r2, ip
    505e:	4641      	mov	r1, r8
    5060:	18b6      	adds	r6, r6, r2
    5062:	4069      	eors	r1, r5
    5064:	1c72      	adds	r2, r6, #1
    5066:	9101      	str	r1, [sp, #4]
    5068:	4694      	mov	ip, r2
    506a:	4307      	orrs	r7, r0
    506c:	2f0f      	cmp	r7, #15
    506e:	d900      	bls.n	5072 <__aeabi_dmul+0x8e>
    5070:	e0b0      	b.n	51d4 <__aeabi_dmul+0x1f0>
    5072:	4a55      	ldr	r2, [pc, #340]	; (51c8 <__aeabi_dmul+0x1e4>)
    5074:	00bf      	lsls	r7, r7, #2
    5076:	59d2      	ldr	r2, [r2, r7]
    5078:	4697      	mov	pc, r2
    507a:	465b      	mov	r3, fp
    507c:	4303      	orrs	r3, r0
    507e:	4699      	mov	r9, r3
    5080:	d000      	beq.n	5084 <__aeabi_dmul+0xa0>
    5082:	e087      	b.n	5194 <__aeabi_dmul+0x1b0>
    5084:	2300      	movs	r3, #0
    5086:	469b      	mov	fp, r3
    5088:	3302      	adds	r3, #2
    508a:	2708      	movs	r7, #8
    508c:	9302      	str	r3, [sp, #8]
    508e:	e7ce      	b.n	502e <__aeabi_dmul+0x4a>
    5090:	4642      	mov	r2, r8
    5092:	9201      	str	r2, [sp, #4]
    5094:	2802      	cmp	r0, #2
    5096:	d067      	beq.n	5168 <__aeabi_dmul+0x184>
    5098:	2803      	cmp	r0, #3
    509a:	d100      	bne.n	509e <__aeabi_dmul+0xba>
    509c:	e20e      	b.n	54bc <__aeabi_dmul+0x4d8>
    509e:	2801      	cmp	r0, #1
    50a0:	d000      	beq.n	50a4 <__aeabi_dmul+0xc0>
    50a2:	e162      	b.n	536a <__aeabi_dmul+0x386>
    50a4:	2300      	movs	r3, #0
    50a6:	2400      	movs	r4, #0
    50a8:	2200      	movs	r2, #0
    50aa:	4699      	mov	r9, r3
    50ac:	9901      	ldr	r1, [sp, #4]
    50ae:	4001      	ands	r1, r0
    50b0:	b2cd      	uxtb	r5, r1
    50b2:	2100      	movs	r1, #0
    50b4:	0312      	lsls	r2, r2, #12
    50b6:	0d0b      	lsrs	r3, r1, #20
    50b8:	0b12      	lsrs	r2, r2, #12
    50ba:	051b      	lsls	r3, r3, #20
    50bc:	4313      	orrs	r3, r2
    50be:	4a43      	ldr	r2, [pc, #268]	; (51cc <__aeabi_dmul+0x1e8>)
    50c0:	0524      	lsls	r4, r4, #20
    50c2:	4013      	ands	r3, r2
    50c4:	431c      	orrs	r4, r3
    50c6:	0064      	lsls	r4, r4, #1
    50c8:	07ed      	lsls	r5, r5, #31
    50ca:	0864      	lsrs	r4, r4, #1
    50cc:	432c      	orrs	r4, r5
    50ce:	4648      	mov	r0, r9
    50d0:	0021      	movs	r1, r4
    50d2:	b007      	add	sp, #28
    50d4:	bc3c      	pop	{r2, r3, r4, r5}
    50d6:	4690      	mov	r8, r2
    50d8:	4699      	mov	r9, r3
    50da:	46a2      	mov	sl, r4
    50dc:	46ab      	mov	fp, r5
    50de:	bdf0      	pop	{r4, r5, r6, r7, pc}
    50e0:	4303      	orrs	r3, r0
    50e2:	4699      	mov	r9, r3
    50e4:	d04f      	beq.n	5186 <__aeabi_dmul+0x1a2>
    50e6:	465b      	mov	r3, fp
    50e8:	2b00      	cmp	r3, #0
    50ea:	d100      	bne.n	50ee <__aeabi_dmul+0x10a>
    50ec:	e189      	b.n	5402 <__aeabi_dmul+0x41e>
    50ee:	4658      	mov	r0, fp
    50f0:	f000 fed6 	bl	5ea0 <__clzsi2>
    50f4:	0003      	movs	r3, r0
    50f6:	3b0b      	subs	r3, #11
    50f8:	2b1c      	cmp	r3, #28
    50fa:	dd00      	ble.n	50fe <__aeabi_dmul+0x11a>
    50fc:	e17a      	b.n	53f4 <__aeabi_dmul+0x410>
    50fe:	221d      	movs	r2, #29
    5100:	1ad3      	subs	r3, r2, r3
    5102:	003a      	movs	r2, r7
    5104:	0001      	movs	r1, r0
    5106:	465c      	mov	r4, fp
    5108:	40da      	lsrs	r2, r3
    510a:	3908      	subs	r1, #8
    510c:	408c      	lsls	r4, r1
    510e:	0013      	movs	r3, r2
    5110:	408f      	lsls	r7, r1
    5112:	4323      	orrs	r3, r4
    5114:	469b      	mov	fp, r3
    5116:	46b9      	mov	r9, r7
    5118:	2300      	movs	r3, #0
    511a:	4e2d      	ldr	r6, [pc, #180]	; (51d0 <__aeabi_dmul+0x1ec>)
    511c:	2700      	movs	r7, #0
    511e:	1a36      	subs	r6, r6, r0
    5120:	9302      	str	r3, [sp, #8]
    5122:	e784      	b.n	502e <__aeabi_dmul+0x4a>
    5124:	4653      	mov	r3, sl
    5126:	4323      	orrs	r3, r4
    5128:	d12a      	bne.n	5180 <__aeabi_dmul+0x19c>
    512a:	2400      	movs	r4, #0
    512c:	2002      	movs	r0, #2
    512e:	e796      	b.n	505e <__aeabi_dmul+0x7a>
    5130:	4653      	mov	r3, sl
    5132:	4323      	orrs	r3, r4
    5134:	d020      	beq.n	5178 <__aeabi_dmul+0x194>
    5136:	2c00      	cmp	r4, #0
    5138:	d100      	bne.n	513c <__aeabi_dmul+0x158>
    513a:	e157      	b.n	53ec <__aeabi_dmul+0x408>
    513c:	0020      	movs	r0, r4
    513e:	f000 feaf 	bl	5ea0 <__clzsi2>
    5142:	0003      	movs	r3, r0
    5144:	3b0b      	subs	r3, #11
    5146:	2b1c      	cmp	r3, #28
    5148:	dd00      	ble.n	514c <__aeabi_dmul+0x168>
    514a:	e149      	b.n	53e0 <__aeabi_dmul+0x3fc>
    514c:	211d      	movs	r1, #29
    514e:	1acb      	subs	r3, r1, r3
    5150:	4651      	mov	r1, sl
    5152:	0002      	movs	r2, r0
    5154:	40d9      	lsrs	r1, r3
    5156:	4653      	mov	r3, sl
    5158:	3a08      	subs	r2, #8
    515a:	4094      	lsls	r4, r2
    515c:	4093      	lsls	r3, r2
    515e:	430c      	orrs	r4, r1
    5160:	4a1b      	ldr	r2, [pc, #108]	; (51d0 <__aeabi_dmul+0x1ec>)
    5162:	1a12      	subs	r2, r2, r0
    5164:	2000      	movs	r0, #0
    5166:	e77a      	b.n	505e <__aeabi_dmul+0x7a>
    5168:	2501      	movs	r5, #1
    516a:	9b01      	ldr	r3, [sp, #4]
    516c:	4c14      	ldr	r4, [pc, #80]	; (51c0 <__aeabi_dmul+0x1dc>)
    516e:	401d      	ands	r5, r3
    5170:	2300      	movs	r3, #0
    5172:	2200      	movs	r2, #0
    5174:	4699      	mov	r9, r3
    5176:	e79c      	b.n	50b2 <__aeabi_dmul+0xce>
    5178:	2400      	movs	r4, #0
    517a:	2200      	movs	r2, #0
    517c:	2001      	movs	r0, #1
    517e:	e76e      	b.n	505e <__aeabi_dmul+0x7a>
    5180:	4653      	mov	r3, sl
    5182:	2003      	movs	r0, #3
    5184:	e76b      	b.n	505e <__aeabi_dmul+0x7a>
    5186:	2300      	movs	r3, #0
    5188:	469b      	mov	fp, r3
    518a:	3301      	adds	r3, #1
    518c:	2704      	movs	r7, #4
    518e:	2600      	movs	r6, #0
    5190:	9302      	str	r3, [sp, #8]
    5192:	e74c      	b.n	502e <__aeabi_dmul+0x4a>
    5194:	2303      	movs	r3, #3
    5196:	4681      	mov	r9, r0
    5198:	270c      	movs	r7, #12
    519a:	9302      	str	r3, [sp, #8]
    519c:	e747      	b.n	502e <__aeabi_dmul+0x4a>
    519e:	2280      	movs	r2, #128	; 0x80
    51a0:	2300      	movs	r3, #0
    51a2:	2500      	movs	r5, #0
    51a4:	0312      	lsls	r2, r2, #12
    51a6:	4699      	mov	r9, r3
    51a8:	4c05      	ldr	r4, [pc, #20]	; (51c0 <__aeabi_dmul+0x1dc>)
    51aa:	e782      	b.n	50b2 <__aeabi_dmul+0xce>
    51ac:	465c      	mov	r4, fp
    51ae:	464b      	mov	r3, r9
    51b0:	9802      	ldr	r0, [sp, #8]
    51b2:	e76f      	b.n	5094 <__aeabi_dmul+0xb0>
    51b4:	465c      	mov	r4, fp
    51b6:	464b      	mov	r3, r9
    51b8:	9501      	str	r5, [sp, #4]
    51ba:	9802      	ldr	r0, [sp, #8]
    51bc:	e76a      	b.n	5094 <__aeabi_dmul+0xb0>
    51be:	46c0      	nop			; (mov r8, r8)
    51c0:	000007ff 	.word	0x000007ff
    51c4:	fffffc01 	.word	0xfffffc01
    51c8:	0000b240 	.word	0x0000b240
    51cc:	800fffff 	.word	0x800fffff
    51d0:	fffffc0d 	.word	0xfffffc0d
    51d4:	464a      	mov	r2, r9
    51d6:	4649      	mov	r1, r9
    51d8:	0c17      	lsrs	r7, r2, #16
    51da:	0c1a      	lsrs	r2, r3, #16
    51dc:	041b      	lsls	r3, r3, #16
    51de:	0c1b      	lsrs	r3, r3, #16
    51e0:	0408      	lsls	r0, r1, #16
    51e2:	0019      	movs	r1, r3
    51e4:	0c00      	lsrs	r0, r0, #16
    51e6:	4341      	muls	r1, r0
    51e8:	0015      	movs	r5, r2
    51ea:	4688      	mov	r8, r1
    51ec:	0019      	movs	r1, r3
    51ee:	437d      	muls	r5, r7
    51f0:	4379      	muls	r1, r7
    51f2:	9503      	str	r5, [sp, #12]
    51f4:	4689      	mov	r9, r1
    51f6:	0029      	movs	r1, r5
    51f8:	0015      	movs	r5, r2
    51fa:	4345      	muls	r5, r0
    51fc:	444d      	add	r5, r9
    51fe:	9502      	str	r5, [sp, #8]
    5200:	4645      	mov	r5, r8
    5202:	0c2d      	lsrs	r5, r5, #16
    5204:	46aa      	mov	sl, r5
    5206:	9d02      	ldr	r5, [sp, #8]
    5208:	4455      	add	r5, sl
    520a:	45a9      	cmp	r9, r5
    520c:	d906      	bls.n	521c <__aeabi_dmul+0x238>
    520e:	468a      	mov	sl, r1
    5210:	2180      	movs	r1, #128	; 0x80
    5212:	0249      	lsls	r1, r1, #9
    5214:	4689      	mov	r9, r1
    5216:	44ca      	add	sl, r9
    5218:	4651      	mov	r1, sl
    521a:	9103      	str	r1, [sp, #12]
    521c:	0c29      	lsrs	r1, r5, #16
    521e:	9104      	str	r1, [sp, #16]
    5220:	4641      	mov	r1, r8
    5222:	0409      	lsls	r1, r1, #16
    5224:	042d      	lsls	r5, r5, #16
    5226:	0c09      	lsrs	r1, r1, #16
    5228:	4688      	mov	r8, r1
    522a:	0029      	movs	r1, r5
    522c:	0c25      	lsrs	r5, r4, #16
    522e:	0424      	lsls	r4, r4, #16
    5230:	4441      	add	r1, r8
    5232:	0c24      	lsrs	r4, r4, #16
    5234:	9105      	str	r1, [sp, #20]
    5236:	0021      	movs	r1, r4
    5238:	4341      	muls	r1, r0
    523a:	4688      	mov	r8, r1
    523c:	0021      	movs	r1, r4
    523e:	4379      	muls	r1, r7
    5240:	468a      	mov	sl, r1
    5242:	4368      	muls	r0, r5
    5244:	4641      	mov	r1, r8
    5246:	4450      	add	r0, sl
    5248:	4681      	mov	r9, r0
    524a:	0c08      	lsrs	r0, r1, #16
    524c:	4448      	add	r0, r9
    524e:	436f      	muls	r7, r5
    5250:	4582      	cmp	sl, r0
    5252:	d903      	bls.n	525c <__aeabi_dmul+0x278>
    5254:	2180      	movs	r1, #128	; 0x80
    5256:	0249      	lsls	r1, r1, #9
    5258:	4689      	mov	r9, r1
    525a:	444f      	add	r7, r9
    525c:	0c01      	lsrs	r1, r0, #16
    525e:	4689      	mov	r9, r1
    5260:	0039      	movs	r1, r7
    5262:	4449      	add	r1, r9
    5264:	9102      	str	r1, [sp, #8]
    5266:	4641      	mov	r1, r8
    5268:	040f      	lsls	r7, r1, #16
    526a:	9904      	ldr	r1, [sp, #16]
    526c:	0c3f      	lsrs	r7, r7, #16
    526e:	4688      	mov	r8, r1
    5270:	0400      	lsls	r0, r0, #16
    5272:	19c0      	adds	r0, r0, r7
    5274:	4480      	add	r8, r0
    5276:	4641      	mov	r1, r8
    5278:	9104      	str	r1, [sp, #16]
    527a:	4659      	mov	r1, fp
    527c:	0c0f      	lsrs	r7, r1, #16
    527e:	0409      	lsls	r1, r1, #16
    5280:	0c09      	lsrs	r1, r1, #16
    5282:	4688      	mov	r8, r1
    5284:	4359      	muls	r1, r3
    5286:	468a      	mov	sl, r1
    5288:	0039      	movs	r1, r7
    528a:	4351      	muls	r1, r2
    528c:	4689      	mov	r9, r1
    528e:	4641      	mov	r1, r8
    5290:	434a      	muls	r2, r1
    5292:	4651      	mov	r1, sl
    5294:	0c09      	lsrs	r1, r1, #16
    5296:	468b      	mov	fp, r1
    5298:	437b      	muls	r3, r7
    529a:	18d2      	adds	r2, r2, r3
    529c:	445a      	add	r2, fp
    529e:	4293      	cmp	r3, r2
    52a0:	d903      	bls.n	52aa <__aeabi_dmul+0x2c6>
    52a2:	2380      	movs	r3, #128	; 0x80
    52a4:	025b      	lsls	r3, r3, #9
    52a6:	469b      	mov	fp, r3
    52a8:	44d9      	add	r9, fp
    52aa:	4651      	mov	r1, sl
    52ac:	0409      	lsls	r1, r1, #16
    52ae:	0c09      	lsrs	r1, r1, #16
    52b0:	468a      	mov	sl, r1
    52b2:	4641      	mov	r1, r8
    52b4:	4361      	muls	r1, r4
    52b6:	437c      	muls	r4, r7
    52b8:	0c13      	lsrs	r3, r2, #16
    52ba:	0412      	lsls	r2, r2, #16
    52bc:	444b      	add	r3, r9
    52be:	4452      	add	r2, sl
    52c0:	46a1      	mov	r9, r4
    52c2:	468a      	mov	sl, r1
    52c4:	003c      	movs	r4, r7
    52c6:	4641      	mov	r1, r8
    52c8:	436c      	muls	r4, r5
    52ca:	434d      	muls	r5, r1
    52cc:	4651      	mov	r1, sl
    52ce:	444d      	add	r5, r9
    52d0:	0c0f      	lsrs	r7, r1, #16
    52d2:	197d      	adds	r5, r7, r5
    52d4:	45a9      	cmp	r9, r5
    52d6:	d903      	bls.n	52e0 <__aeabi_dmul+0x2fc>
    52d8:	2180      	movs	r1, #128	; 0x80
    52da:	0249      	lsls	r1, r1, #9
    52dc:	4688      	mov	r8, r1
    52de:	4444      	add	r4, r8
    52e0:	9f04      	ldr	r7, [sp, #16]
    52e2:	9903      	ldr	r1, [sp, #12]
    52e4:	46b8      	mov	r8, r7
    52e6:	4441      	add	r1, r8
    52e8:	468b      	mov	fp, r1
    52ea:	4583      	cmp	fp, r0
    52ec:	4180      	sbcs	r0, r0
    52ee:	4241      	negs	r1, r0
    52f0:	4688      	mov	r8, r1
    52f2:	4651      	mov	r1, sl
    52f4:	0408      	lsls	r0, r1, #16
    52f6:	042f      	lsls	r7, r5, #16
    52f8:	0c00      	lsrs	r0, r0, #16
    52fa:	183f      	adds	r7, r7, r0
    52fc:	4658      	mov	r0, fp
    52fe:	9902      	ldr	r1, [sp, #8]
    5300:	1810      	adds	r0, r2, r0
    5302:	4689      	mov	r9, r1
    5304:	4290      	cmp	r0, r2
    5306:	4192      	sbcs	r2, r2
    5308:	444f      	add	r7, r9
    530a:	46ba      	mov	sl, r7
    530c:	4252      	negs	r2, r2
    530e:	4699      	mov	r9, r3
    5310:	4693      	mov	fp, r2
    5312:	44c2      	add	sl, r8
    5314:	44d1      	add	r9, sl
    5316:	44cb      	add	fp, r9
    5318:	428f      	cmp	r7, r1
    531a:	41bf      	sbcs	r7, r7
    531c:	45c2      	cmp	sl, r8
    531e:	4189      	sbcs	r1, r1
    5320:	4599      	cmp	r9, r3
    5322:	419b      	sbcs	r3, r3
    5324:	4593      	cmp	fp, r2
    5326:	4192      	sbcs	r2, r2
    5328:	427f      	negs	r7, r7
    532a:	4249      	negs	r1, r1
    532c:	0c2d      	lsrs	r5, r5, #16
    532e:	4252      	negs	r2, r2
    5330:	430f      	orrs	r7, r1
    5332:	425b      	negs	r3, r3
    5334:	4313      	orrs	r3, r2
    5336:	197f      	adds	r7, r7, r5
    5338:	18ff      	adds	r7, r7, r3
    533a:	465b      	mov	r3, fp
    533c:	193c      	adds	r4, r7, r4
    533e:	0ddb      	lsrs	r3, r3, #23
    5340:	9a05      	ldr	r2, [sp, #20]
    5342:	0264      	lsls	r4, r4, #9
    5344:	431c      	orrs	r4, r3
    5346:	0243      	lsls	r3, r0, #9
    5348:	4313      	orrs	r3, r2
    534a:	1e5d      	subs	r5, r3, #1
    534c:	41ab      	sbcs	r3, r5
    534e:	465a      	mov	r2, fp
    5350:	0dc0      	lsrs	r0, r0, #23
    5352:	4303      	orrs	r3, r0
    5354:	0252      	lsls	r2, r2, #9
    5356:	4313      	orrs	r3, r2
    5358:	01e2      	lsls	r2, r4, #7
    535a:	d556      	bpl.n	540a <__aeabi_dmul+0x426>
    535c:	2001      	movs	r0, #1
    535e:	085a      	lsrs	r2, r3, #1
    5360:	4003      	ands	r3, r0
    5362:	4313      	orrs	r3, r2
    5364:	07e2      	lsls	r2, r4, #31
    5366:	4313      	orrs	r3, r2
    5368:	0864      	lsrs	r4, r4, #1
    536a:	485a      	ldr	r0, [pc, #360]	; (54d4 <__aeabi_dmul+0x4f0>)
    536c:	4460      	add	r0, ip
    536e:	2800      	cmp	r0, #0
    5370:	dd4d      	ble.n	540e <__aeabi_dmul+0x42a>
    5372:	075a      	lsls	r2, r3, #29
    5374:	d009      	beq.n	538a <__aeabi_dmul+0x3a6>
    5376:	220f      	movs	r2, #15
    5378:	401a      	ands	r2, r3
    537a:	2a04      	cmp	r2, #4
    537c:	d005      	beq.n	538a <__aeabi_dmul+0x3a6>
    537e:	1d1a      	adds	r2, r3, #4
    5380:	429a      	cmp	r2, r3
    5382:	419b      	sbcs	r3, r3
    5384:	425b      	negs	r3, r3
    5386:	18e4      	adds	r4, r4, r3
    5388:	0013      	movs	r3, r2
    538a:	01e2      	lsls	r2, r4, #7
    538c:	d504      	bpl.n	5398 <__aeabi_dmul+0x3b4>
    538e:	2080      	movs	r0, #128	; 0x80
    5390:	4a51      	ldr	r2, [pc, #324]	; (54d8 <__aeabi_dmul+0x4f4>)
    5392:	00c0      	lsls	r0, r0, #3
    5394:	4014      	ands	r4, r2
    5396:	4460      	add	r0, ip
    5398:	4a50      	ldr	r2, [pc, #320]	; (54dc <__aeabi_dmul+0x4f8>)
    539a:	4290      	cmp	r0, r2
    539c:	dd00      	ble.n	53a0 <__aeabi_dmul+0x3bc>
    539e:	e6e3      	b.n	5168 <__aeabi_dmul+0x184>
    53a0:	2501      	movs	r5, #1
    53a2:	08db      	lsrs	r3, r3, #3
    53a4:	0762      	lsls	r2, r4, #29
    53a6:	431a      	orrs	r2, r3
    53a8:	0264      	lsls	r4, r4, #9
    53aa:	9b01      	ldr	r3, [sp, #4]
    53ac:	4691      	mov	r9, r2
    53ae:	0b22      	lsrs	r2, r4, #12
    53b0:	0544      	lsls	r4, r0, #21
    53b2:	0d64      	lsrs	r4, r4, #21
    53b4:	401d      	ands	r5, r3
    53b6:	e67c      	b.n	50b2 <__aeabi_dmul+0xce>
    53b8:	2280      	movs	r2, #128	; 0x80
    53ba:	4659      	mov	r1, fp
    53bc:	0312      	lsls	r2, r2, #12
    53be:	4211      	tst	r1, r2
    53c0:	d008      	beq.n	53d4 <__aeabi_dmul+0x3f0>
    53c2:	4214      	tst	r4, r2
    53c4:	d106      	bne.n	53d4 <__aeabi_dmul+0x3f0>
    53c6:	4322      	orrs	r2, r4
    53c8:	0312      	lsls	r2, r2, #12
    53ca:	0b12      	lsrs	r2, r2, #12
    53cc:	4645      	mov	r5, r8
    53ce:	4699      	mov	r9, r3
    53d0:	4c43      	ldr	r4, [pc, #268]	; (54e0 <__aeabi_dmul+0x4fc>)
    53d2:	e66e      	b.n	50b2 <__aeabi_dmul+0xce>
    53d4:	465b      	mov	r3, fp
    53d6:	431a      	orrs	r2, r3
    53d8:	0312      	lsls	r2, r2, #12
    53da:	0b12      	lsrs	r2, r2, #12
    53dc:	4c40      	ldr	r4, [pc, #256]	; (54e0 <__aeabi_dmul+0x4fc>)
    53de:	e668      	b.n	50b2 <__aeabi_dmul+0xce>
    53e0:	0003      	movs	r3, r0
    53e2:	4654      	mov	r4, sl
    53e4:	3b28      	subs	r3, #40	; 0x28
    53e6:	409c      	lsls	r4, r3
    53e8:	2300      	movs	r3, #0
    53ea:	e6b9      	b.n	5160 <__aeabi_dmul+0x17c>
    53ec:	f000 fd58 	bl	5ea0 <__clzsi2>
    53f0:	3020      	adds	r0, #32
    53f2:	e6a6      	b.n	5142 <__aeabi_dmul+0x15e>
    53f4:	0003      	movs	r3, r0
    53f6:	3b28      	subs	r3, #40	; 0x28
    53f8:	409f      	lsls	r7, r3
    53fa:	2300      	movs	r3, #0
    53fc:	46bb      	mov	fp, r7
    53fe:	4699      	mov	r9, r3
    5400:	e68a      	b.n	5118 <__aeabi_dmul+0x134>
    5402:	f000 fd4d 	bl	5ea0 <__clzsi2>
    5406:	3020      	adds	r0, #32
    5408:	e674      	b.n	50f4 <__aeabi_dmul+0x110>
    540a:	46b4      	mov	ip, r6
    540c:	e7ad      	b.n	536a <__aeabi_dmul+0x386>
    540e:	2501      	movs	r5, #1
    5410:	1a2a      	subs	r2, r5, r0
    5412:	2a38      	cmp	r2, #56	; 0x38
    5414:	dd06      	ble.n	5424 <__aeabi_dmul+0x440>
    5416:	9b01      	ldr	r3, [sp, #4]
    5418:	2400      	movs	r4, #0
    541a:	401d      	ands	r5, r3
    541c:	2300      	movs	r3, #0
    541e:	2200      	movs	r2, #0
    5420:	4699      	mov	r9, r3
    5422:	e646      	b.n	50b2 <__aeabi_dmul+0xce>
    5424:	2a1f      	cmp	r2, #31
    5426:	dc21      	bgt.n	546c <__aeabi_dmul+0x488>
    5428:	2520      	movs	r5, #32
    542a:	0020      	movs	r0, r4
    542c:	1aad      	subs	r5, r5, r2
    542e:	001e      	movs	r6, r3
    5430:	40ab      	lsls	r3, r5
    5432:	40a8      	lsls	r0, r5
    5434:	40d6      	lsrs	r6, r2
    5436:	1e5d      	subs	r5, r3, #1
    5438:	41ab      	sbcs	r3, r5
    543a:	4330      	orrs	r0, r6
    543c:	4318      	orrs	r0, r3
    543e:	40d4      	lsrs	r4, r2
    5440:	0743      	lsls	r3, r0, #29
    5442:	d009      	beq.n	5458 <__aeabi_dmul+0x474>
    5444:	230f      	movs	r3, #15
    5446:	4003      	ands	r3, r0
    5448:	2b04      	cmp	r3, #4
    544a:	d005      	beq.n	5458 <__aeabi_dmul+0x474>
    544c:	0003      	movs	r3, r0
    544e:	1d18      	adds	r0, r3, #4
    5450:	4298      	cmp	r0, r3
    5452:	419b      	sbcs	r3, r3
    5454:	425b      	negs	r3, r3
    5456:	18e4      	adds	r4, r4, r3
    5458:	0223      	lsls	r3, r4, #8
    545a:	d521      	bpl.n	54a0 <__aeabi_dmul+0x4bc>
    545c:	2501      	movs	r5, #1
    545e:	9b01      	ldr	r3, [sp, #4]
    5460:	2401      	movs	r4, #1
    5462:	401d      	ands	r5, r3
    5464:	2300      	movs	r3, #0
    5466:	2200      	movs	r2, #0
    5468:	4699      	mov	r9, r3
    546a:	e622      	b.n	50b2 <__aeabi_dmul+0xce>
    546c:	251f      	movs	r5, #31
    546e:	0021      	movs	r1, r4
    5470:	426d      	negs	r5, r5
    5472:	1a28      	subs	r0, r5, r0
    5474:	40c1      	lsrs	r1, r0
    5476:	0008      	movs	r0, r1
    5478:	2a20      	cmp	r2, #32
    547a:	d01d      	beq.n	54b8 <__aeabi_dmul+0x4d4>
    547c:	355f      	adds	r5, #95	; 0x5f
    547e:	1aaa      	subs	r2, r5, r2
    5480:	4094      	lsls	r4, r2
    5482:	4323      	orrs	r3, r4
    5484:	1e5c      	subs	r4, r3, #1
    5486:	41a3      	sbcs	r3, r4
    5488:	2507      	movs	r5, #7
    548a:	4303      	orrs	r3, r0
    548c:	401d      	ands	r5, r3
    548e:	2200      	movs	r2, #0
    5490:	2d00      	cmp	r5, #0
    5492:	d009      	beq.n	54a8 <__aeabi_dmul+0x4c4>
    5494:	220f      	movs	r2, #15
    5496:	2400      	movs	r4, #0
    5498:	401a      	ands	r2, r3
    549a:	0018      	movs	r0, r3
    549c:	2a04      	cmp	r2, #4
    549e:	d1d6      	bne.n	544e <__aeabi_dmul+0x46a>
    54a0:	0003      	movs	r3, r0
    54a2:	0765      	lsls	r5, r4, #29
    54a4:	0264      	lsls	r4, r4, #9
    54a6:	0b22      	lsrs	r2, r4, #12
    54a8:	08db      	lsrs	r3, r3, #3
    54aa:	432b      	orrs	r3, r5
    54ac:	2501      	movs	r5, #1
    54ae:	4699      	mov	r9, r3
    54b0:	9b01      	ldr	r3, [sp, #4]
    54b2:	2400      	movs	r4, #0
    54b4:	401d      	ands	r5, r3
    54b6:	e5fc      	b.n	50b2 <__aeabi_dmul+0xce>
    54b8:	2400      	movs	r4, #0
    54ba:	e7e2      	b.n	5482 <__aeabi_dmul+0x49e>
    54bc:	2280      	movs	r2, #128	; 0x80
    54be:	2501      	movs	r5, #1
    54c0:	0312      	lsls	r2, r2, #12
    54c2:	4322      	orrs	r2, r4
    54c4:	9901      	ldr	r1, [sp, #4]
    54c6:	0312      	lsls	r2, r2, #12
    54c8:	0b12      	lsrs	r2, r2, #12
    54ca:	400d      	ands	r5, r1
    54cc:	4699      	mov	r9, r3
    54ce:	4c04      	ldr	r4, [pc, #16]	; (54e0 <__aeabi_dmul+0x4fc>)
    54d0:	e5ef      	b.n	50b2 <__aeabi_dmul+0xce>
    54d2:	46c0      	nop			; (mov r8, r8)
    54d4:	000003ff 	.word	0x000003ff
    54d8:	feffffff 	.word	0xfeffffff
    54dc:	000007fe 	.word	0x000007fe
    54e0:	000007ff 	.word	0x000007ff

000054e4 <__aeabi_dsub>:
    54e4:	b5f0      	push	{r4, r5, r6, r7, lr}
    54e6:	4646      	mov	r6, r8
    54e8:	46d6      	mov	lr, sl
    54ea:	464f      	mov	r7, r9
    54ec:	030c      	lsls	r4, r1, #12
    54ee:	b5c0      	push	{r6, r7, lr}
    54f0:	0fcd      	lsrs	r5, r1, #31
    54f2:	004e      	lsls	r6, r1, #1
    54f4:	0a61      	lsrs	r1, r4, #9
    54f6:	0f44      	lsrs	r4, r0, #29
    54f8:	430c      	orrs	r4, r1
    54fa:	00c1      	lsls	r1, r0, #3
    54fc:	0058      	lsls	r0, r3, #1
    54fe:	0d40      	lsrs	r0, r0, #21
    5500:	4684      	mov	ip, r0
    5502:	468a      	mov	sl, r1
    5504:	000f      	movs	r7, r1
    5506:	0319      	lsls	r1, r3, #12
    5508:	0f50      	lsrs	r0, r2, #29
    550a:	0a49      	lsrs	r1, r1, #9
    550c:	4301      	orrs	r1, r0
    550e:	48c6      	ldr	r0, [pc, #792]	; (5828 <__aeabi_dsub+0x344>)
    5510:	0d76      	lsrs	r6, r6, #21
    5512:	46a8      	mov	r8, r5
    5514:	0fdb      	lsrs	r3, r3, #31
    5516:	00d2      	lsls	r2, r2, #3
    5518:	4584      	cmp	ip, r0
    551a:	d100      	bne.n	551e <__aeabi_dsub+0x3a>
    551c:	e0d8      	b.n	56d0 <__aeabi_dsub+0x1ec>
    551e:	2001      	movs	r0, #1
    5520:	4043      	eors	r3, r0
    5522:	42ab      	cmp	r3, r5
    5524:	d100      	bne.n	5528 <__aeabi_dsub+0x44>
    5526:	e0a6      	b.n	5676 <__aeabi_dsub+0x192>
    5528:	4660      	mov	r0, ip
    552a:	1a35      	subs	r5, r6, r0
    552c:	2d00      	cmp	r5, #0
    552e:	dc00      	bgt.n	5532 <__aeabi_dsub+0x4e>
    5530:	e105      	b.n	573e <__aeabi_dsub+0x25a>
    5532:	2800      	cmp	r0, #0
    5534:	d110      	bne.n	5558 <__aeabi_dsub+0x74>
    5536:	000b      	movs	r3, r1
    5538:	4313      	orrs	r3, r2
    553a:	d100      	bne.n	553e <__aeabi_dsub+0x5a>
    553c:	e0d7      	b.n	56ee <__aeabi_dsub+0x20a>
    553e:	1e6b      	subs	r3, r5, #1
    5540:	2b00      	cmp	r3, #0
    5542:	d000      	beq.n	5546 <__aeabi_dsub+0x62>
    5544:	e14b      	b.n	57de <__aeabi_dsub+0x2fa>
    5546:	4653      	mov	r3, sl
    5548:	1a9f      	subs	r7, r3, r2
    554a:	45ba      	cmp	sl, r7
    554c:	4180      	sbcs	r0, r0
    554e:	1a64      	subs	r4, r4, r1
    5550:	4240      	negs	r0, r0
    5552:	1a24      	subs	r4, r4, r0
    5554:	2601      	movs	r6, #1
    5556:	e01e      	b.n	5596 <__aeabi_dsub+0xb2>
    5558:	4bb3      	ldr	r3, [pc, #716]	; (5828 <__aeabi_dsub+0x344>)
    555a:	429e      	cmp	r6, r3
    555c:	d048      	beq.n	55f0 <__aeabi_dsub+0x10c>
    555e:	2380      	movs	r3, #128	; 0x80
    5560:	041b      	lsls	r3, r3, #16
    5562:	4319      	orrs	r1, r3
    5564:	2d38      	cmp	r5, #56	; 0x38
    5566:	dd00      	ble.n	556a <__aeabi_dsub+0x86>
    5568:	e119      	b.n	579e <__aeabi_dsub+0x2ba>
    556a:	2d1f      	cmp	r5, #31
    556c:	dd00      	ble.n	5570 <__aeabi_dsub+0x8c>
    556e:	e14c      	b.n	580a <__aeabi_dsub+0x326>
    5570:	2320      	movs	r3, #32
    5572:	000f      	movs	r7, r1
    5574:	1b5b      	subs	r3, r3, r5
    5576:	0010      	movs	r0, r2
    5578:	409a      	lsls	r2, r3
    557a:	409f      	lsls	r7, r3
    557c:	40e8      	lsrs	r0, r5
    557e:	1e53      	subs	r3, r2, #1
    5580:	419a      	sbcs	r2, r3
    5582:	40e9      	lsrs	r1, r5
    5584:	4307      	orrs	r7, r0
    5586:	4317      	orrs	r7, r2
    5588:	4653      	mov	r3, sl
    558a:	1bdf      	subs	r7, r3, r7
    558c:	1a61      	subs	r1, r4, r1
    558e:	45ba      	cmp	sl, r7
    5590:	41a4      	sbcs	r4, r4
    5592:	4264      	negs	r4, r4
    5594:	1b0c      	subs	r4, r1, r4
    5596:	0223      	lsls	r3, r4, #8
    5598:	d400      	bmi.n	559c <__aeabi_dsub+0xb8>
    559a:	e0c5      	b.n	5728 <__aeabi_dsub+0x244>
    559c:	0264      	lsls	r4, r4, #9
    559e:	0a65      	lsrs	r5, r4, #9
    55a0:	2d00      	cmp	r5, #0
    55a2:	d100      	bne.n	55a6 <__aeabi_dsub+0xc2>
    55a4:	e0f6      	b.n	5794 <__aeabi_dsub+0x2b0>
    55a6:	0028      	movs	r0, r5
    55a8:	f000 fc7a 	bl	5ea0 <__clzsi2>
    55ac:	0003      	movs	r3, r0
    55ae:	3b08      	subs	r3, #8
    55b0:	2b1f      	cmp	r3, #31
    55b2:	dd00      	ble.n	55b6 <__aeabi_dsub+0xd2>
    55b4:	e0e9      	b.n	578a <__aeabi_dsub+0x2a6>
    55b6:	2220      	movs	r2, #32
    55b8:	003c      	movs	r4, r7
    55ba:	1ad2      	subs	r2, r2, r3
    55bc:	409d      	lsls	r5, r3
    55be:	40d4      	lsrs	r4, r2
    55c0:	409f      	lsls	r7, r3
    55c2:	4325      	orrs	r5, r4
    55c4:	429e      	cmp	r6, r3
    55c6:	dd00      	ble.n	55ca <__aeabi_dsub+0xe6>
    55c8:	e0db      	b.n	5782 <__aeabi_dsub+0x29e>
    55ca:	1b9e      	subs	r6, r3, r6
    55cc:	1c73      	adds	r3, r6, #1
    55ce:	2b1f      	cmp	r3, #31
    55d0:	dd00      	ble.n	55d4 <__aeabi_dsub+0xf0>
    55d2:	e10a      	b.n	57ea <__aeabi_dsub+0x306>
    55d4:	2220      	movs	r2, #32
    55d6:	0038      	movs	r0, r7
    55d8:	1ad2      	subs	r2, r2, r3
    55da:	0029      	movs	r1, r5
    55dc:	4097      	lsls	r7, r2
    55de:	002c      	movs	r4, r5
    55e0:	4091      	lsls	r1, r2
    55e2:	40d8      	lsrs	r0, r3
    55e4:	1e7a      	subs	r2, r7, #1
    55e6:	4197      	sbcs	r7, r2
    55e8:	40dc      	lsrs	r4, r3
    55ea:	2600      	movs	r6, #0
    55ec:	4301      	orrs	r1, r0
    55ee:	430f      	orrs	r7, r1
    55f0:	077b      	lsls	r3, r7, #29
    55f2:	d009      	beq.n	5608 <__aeabi_dsub+0x124>
    55f4:	230f      	movs	r3, #15
    55f6:	403b      	ands	r3, r7
    55f8:	2b04      	cmp	r3, #4
    55fa:	d005      	beq.n	5608 <__aeabi_dsub+0x124>
    55fc:	1d3b      	adds	r3, r7, #4
    55fe:	42bb      	cmp	r3, r7
    5600:	41bf      	sbcs	r7, r7
    5602:	427f      	negs	r7, r7
    5604:	19e4      	adds	r4, r4, r7
    5606:	001f      	movs	r7, r3
    5608:	0223      	lsls	r3, r4, #8
    560a:	d525      	bpl.n	5658 <__aeabi_dsub+0x174>
    560c:	4b86      	ldr	r3, [pc, #536]	; (5828 <__aeabi_dsub+0x344>)
    560e:	3601      	adds	r6, #1
    5610:	429e      	cmp	r6, r3
    5612:	d100      	bne.n	5616 <__aeabi_dsub+0x132>
    5614:	e0af      	b.n	5776 <__aeabi_dsub+0x292>
    5616:	4b85      	ldr	r3, [pc, #532]	; (582c <__aeabi_dsub+0x348>)
    5618:	2501      	movs	r5, #1
    561a:	401c      	ands	r4, r3
    561c:	4643      	mov	r3, r8
    561e:	0762      	lsls	r2, r4, #29
    5620:	08ff      	lsrs	r7, r7, #3
    5622:	0264      	lsls	r4, r4, #9
    5624:	0576      	lsls	r6, r6, #21
    5626:	4317      	orrs	r7, r2
    5628:	0b24      	lsrs	r4, r4, #12
    562a:	0d76      	lsrs	r6, r6, #21
    562c:	401d      	ands	r5, r3
    562e:	2100      	movs	r1, #0
    5630:	0324      	lsls	r4, r4, #12
    5632:	0b23      	lsrs	r3, r4, #12
    5634:	0d0c      	lsrs	r4, r1, #20
    5636:	4a7e      	ldr	r2, [pc, #504]	; (5830 <__aeabi_dsub+0x34c>)
    5638:	0524      	lsls	r4, r4, #20
    563a:	431c      	orrs	r4, r3
    563c:	4014      	ands	r4, r2
    563e:	0533      	lsls	r3, r6, #20
    5640:	4323      	orrs	r3, r4
    5642:	005b      	lsls	r3, r3, #1
    5644:	07ed      	lsls	r5, r5, #31
    5646:	085b      	lsrs	r3, r3, #1
    5648:	432b      	orrs	r3, r5
    564a:	0038      	movs	r0, r7
    564c:	0019      	movs	r1, r3
    564e:	bc1c      	pop	{r2, r3, r4}
    5650:	4690      	mov	r8, r2
    5652:	4699      	mov	r9, r3
    5654:	46a2      	mov	sl, r4
    5656:	bdf0      	pop	{r4, r5, r6, r7, pc}
    5658:	2501      	movs	r5, #1
    565a:	4643      	mov	r3, r8
    565c:	0762      	lsls	r2, r4, #29
    565e:	08ff      	lsrs	r7, r7, #3
    5660:	4317      	orrs	r7, r2
    5662:	08e4      	lsrs	r4, r4, #3
    5664:	401d      	ands	r5, r3
    5666:	4b70      	ldr	r3, [pc, #448]	; (5828 <__aeabi_dsub+0x344>)
    5668:	429e      	cmp	r6, r3
    566a:	d036      	beq.n	56da <__aeabi_dsub+0x1f6>
    566c:	0324      	lsls	r4, r4, #12
    566e:	0576      	lsls	r6, r6, #21
    5670:	0b24      	lsrs	r4, r4, #12
    5672:	0d76      	lsrs	r6, r6, #21
    5674:	e7db      	b.n	562e <__aeabi_dsub+0x14a>
    5676:	4663      	mov	r3, ip
    5678:	1af3      	subs	r3, r6, r3
    567a:	2b00      	cmp	r3, #0
    567c:	dc00      	bgt.n	5680 <__aeabi_dsub+0x19c>
    567e:	e094      	b.n	57aa <__aeabi_dsub+0x2c6>
    5680:	4660      	mov	r0, ip
    5682:	2800      	cmp	r0, #0
    5684:	d035      	beq.n	56f2 <__aeabi_dsub+0x20e>
    5686:	4868      	ldr	r0, [pc, #416]	; (5828 <__aeabi_dsub+0x344>)
    5688:	4286      	cmp	r6, r0
    568a:	d0b1      	beq.n	55f0 <__aeabi_dsub+0x10c>
    568c:	2780      	movs	r7, #128	; 0x80
    568e:	043f      	lsls	r7, r7, #16
    5690:	4339      	orrs	r1, r7
    5692:	2b38      	cmp	r3, #56	; 0x38
    5694:	dc00      	bgt.n	5698 <__aeabi_dsub+0x1b4>
    5696:	e0fd      	b.n	5894 <__aeabi_dsub+0x3b0>
    5698:	430a      	orrs	r2, r1
    569a:	0017      	movs	r7, r2
    569c:	2100      	movs	r1, #0
    569e:	1e7a      	subs	r2, r7, #1
    56a0:	4197      	sbcs	r7, r2
    56a2:	4457      	add	r7, sl
    56a4:	4557      	cmp	r7, sl
    56a6:	4180      	sbcs	r0, r0
    56a8:	1909      	adds	r1, r1, r4
    56aa:	4244      	negs	r4, r0
    56ac:	190c      	adds	r4, r1, r4
    56ae:	0223      	lsls	r3, r4, #8
    56b0:	d53a      	bpl.n	5728 <__aeabi_dsub+0x244>
    56b2:	4b5d      	ldr	r3, [pc, #372]	; (5828 <__aeabi_dsub+0x344>)
    56b4:	3601      	adds	r6, #1
    56b6:	429e      	cmp	r6, r3
    56b8:	d100      	bne.n	56bc <__aeabi_dsub+0x1d8>
    56ba:	e14b      	b.n	5954 <__aeabi_dsub+0x470>
    56bc:	2201      	movs	r2, #1
    56be:	4b5b      	ldr	r3, [pc, #364]	; (582c <__aeabi_dsub+0x348>)
    56c0:	401c      	ands	r4, r3
    56c2:	087b      	lsrs	r3, r7, #1
    56c4:	4017      	ands	r7, r2
    56c6:	431f      	orrs	r7, r3
    56c8:	07e2      	lsls	r2, r4, #31
    56ca:	4317      	orrs	r7, r2
    56cc:	0864      	lsrs	r4, r4, #1
    56ce:	e78f      	b.n	55f0 <__aeabi_dsub+0x10c>
    56d0:	0008      	movs	r0, r1
    56d2:	4310      	orrs	r0, r2
    56d4:	d000      	beq.n	56d8 <__aeabi_dsub+0x1f4>
    56d6:	e724      	b.n	5522 <__aeabi_dsub+0x3e>
    56d8:	e721      	b.n	551e <__aeabi_dsub+0x3a>
    56da:	0023      	movs	r3, r4
    56dc:	433b      	orrs	r3, r7
    56de:	d100      	bne.n	56e2 <__aeabi_dsub+0x1fe>
    56e0:	e1b9      	b.n	5a56 <__aeabi_dsub+0x572>
    56e2:	2280      	movs	r2, #128	; 0x80
    56e4:	0312      	lsls	r2, r2, #12
    56e6:	4314      	orrs	r4, r2
    56e8:	0324      	lsls	r4, r4, #12
    56ea:	0b24      	lsrs	r4, r4, #12
    56ec:	e79f      	b.n	562e <__aeabi_dsub+0x14a>
    56ee:	002e      	movs	r6, r5
    56f0:	e77e      	b.n	55f0 <__aeabi_dsub+0x10c>
    56f2:	0008      	movs	r0, r1
    56f4:	4310      	orrs	r0, r2
    56f6:	d100      	bne.n	56fa <__aeabi_dsub+0x216>
    56f8:	e0ca      	b.n	5890 <__aeabi_dsub+0x3ac>
    56fa:	1e58      	subs	r0, r3, #1
    56fc:	4684      	mov	ip, r0
    56fe:	2800      	cmp	r0, #0
    5700:	d000      	beq.n	5704 <__aeabi_dsub+0x220>
    5702:	e0e7      	b.n	58d4 <__aeabi_dsub+0x3f0>
    5704:	4452      	add	r2, sl
    5706:	4552      	cmp	r2, sl
    5708:	4180      	sbcs	r0, r0
    570a:	1864      	adds	r4, r4, r1
    570c:	4240      	negs	r0, r0
    570e:	1824      	adds	r4, r4, r0
    5710:	0017      	movs	r7, r2
    5712:	2601      	movs	r6, #1
    5714:	0223      	lsls	r3, r4, #8
    5716:	d507      	bpl.n	5728 <__aeabi_dsub+0x244>
    5718:	2602      	movs	r6, #2
    571a:	e7cf      	b.n	56bc <__aeabi_dsub+0x1d8>
    571c:	4664      	mov	r4, ip
    571e:	432c      	orrs	r4, r5
    5720:	d100      	bne.n	5724 <__aeabi_dsub+0x240>
    5722:	e1b3      	b.n	5a8c <__aeabi_dsub+0x5a8>
    5724:	002c      	movs	r4, r5
    5726:	4667      	mov	r7, ip
    5728:	077b      	lsls	r3, r7, #29
    572a:	d000      	beq.n	572e <__aeabi_dsub+0x24a>
    572c:	e762      	b.n	55f4 <__aeabi_dsub+0x110>
    572e:	0763      	lsls	r3, r4, #29
    5730:	08ff      	lsrs	r7, r7, #3
    5732:	431f      	orrs	r7, r3
    5734:	2501      	movs	r5, #1
    5736:	4643      	mov	r3, r8
    5738:	08e4      	lsrs	r4, r4, #3
    573a:	401d      	ands	r5, r3
    573c:	e793      	b.n	5666 <__aeabi_dsub+0x182>
    573e:	2d00      	cmp	r5, #0
    5740:	d178      	bne.n	5834 <__aeabi_dsub+0x350>
    5742:	1c75      	adds	r5, r6, #1
    5744:	056d      	lsls	r5, r5, #21
    5746:	0d6d      	lsrs	r5, r5, #21
    5748:	2d01      	cmp	r5, #1
    574a:	dc00      	bgt.n	574e <__aeabi_dsub+0x26a>
    574c:	e0f2      	b.n	5934 <__aeabi_dsub+0x450>
    574e:	4650      	mov	r0, sl
    5750:	1a80      	subs	r0, r0, r2
    5752:	4582      	cmp	sl, r0
    5754:	41bf      	sbcs	r7, r7
    5756:	1a65      	subs	r5, r4, r1
    5758:	427f      	negs	r7, r7
    575a:	1bed      	subs	r5, r5, r7
    575c:	4684      	mov	ip, r0
    575e:	0228      	lsls	r0, r5, #8
    5760:	d400      	bmi.n	5764 <__aeabi_dsub+0x280>
    5762:	e08c      	b.n	587e <__aeabi_dsub+0x39a>
    5764:	4650      	mov	r0, sl
    5766:	1a17      	subs	r7, r2, r0
    5768:	42ba      	cmp	r2, r7
    576a:	4192      	sbcs	r2, r2
    576c:	1b0c      	subs	r4, r1, r4
    576e:	4255      	negs	r5, r2
    5770:	1b65      	subs	r5, r4, r5
    5772:	4698      	mov	r8, r3
    5774:	e714      	b.n	55a0 <__aeabi_dsub+0xbc>
    5776:	2501      	movs	r5, #1
    5778:	4643      	mov	r3, r8
    577a:	2400      	movs	r4, #0
    577c:	401d      	ands	r5, r3
    577e:	2700      	movs	r7, #0
    5780:	e755      	b.n	562e <__aeabi_dsub+0x14a>
    5782:	4c2a      	ldr	r4, [pc, #168]	; (582c <__aeabi_dsub+0x348>)
    5784:	1af6      	subs	r6, r6, r3
    5786:	402c      	ands	r4, r5
    5788:	e732      	b.n	55f0 <__aeabi_dsub+0x10c>
    578a:	003d      	movs	r5, r7
    578c:	3828      	subs	r0, #40	; 0x28
    578e:	4085      	lsls	r5, r0
    5790:	2700      	movs	r7, #0
    5792:	e717      	b.n	55c4 <__aeabi_dsub+0xe0>
    5794:	0038      	movs	r0, r7
    5796:	f000 fb83 	bl	5ea0 <__clzsi2>
    579a:	3020      	adds	r0, #32
    579c:	e706      	b.n	55ac <__aeabi_dsub+0xc8>
    579e:	430a      	orrs	r2, r1
    57a0:	0017      	movs	r7, r2
    57a2:	2100      	movs	r1, #0
    57a4:	1e7a      	subs	r2, r7, #1
    57a6:	4197      	sbcs	r7, r2
    57a8:	e6ee      	b.n	5588 <__aeabi_dsub+0xa4>
    57aa:	2b00      	cmp	r3, #0
    57ac:	d000      	beq.n	57b0 <__aeabi_dsub+0x2cc>
    57ae:	e0e5      	b.n	597c <__aeabi_dsub+0x498>
    57b0:	1c73      	adds	r3, r6, #1
    57b2:	469c      	mov	ip, r3
    57b4:	055b      	lsls	r3, r3, #21
    57b6:	0d5b      	lsrs	r3, r3, #21
    57b8:	2b01      	cmp	r3, #1
    57ba:	dc00      	bgt.n	57be <__aeabi_dsub+0x2da>
    57bc:	e09f      	b.n	58fe <__aeabi_dsub+0x41a>
    57be:	4b1a      	ldr	r3, [pc, #104]	; (5828 <__aeabi_dsub+0x344>)
    57c0:	459c      	cmp	ip, r3
    57c2:	d100      	bne.n	57c6 <__aeabi_dsub+0x2e2>
    57c4:	e0c5      	b.n	5952 <__aeabi_dsub+0x46e>
    57c6:	4452      	add	r2, sl
    57c8:	4552      	cmp	r2, sl
    57ca:	4180      	sbcs	r0, r0
    57cc:	1864      	adds	r4, r4, r1
    57ce:	4240      	negs	r0, r0
    57d0:	1824      	adds	r4, r4, r0
    57d2:	07e7      	lsls	r7, r4, #31
    57d4:	0852      	lsrs	r2, r2, #1
    57d6:	4317      	orrs	r7, r2
    57d8:	0864      	lsrs	r4, r4, #1
    57da:	4666      	mov	r6, ip
    57dc:	e708      	b.n	55f0 <__aeabi_dsub+0x10c>
    57de:	4812      	ldr	r0, [pc, #72]	; (5828 <__aeabi_dsub+0x344>)
    57e0:	4285      	cmp	r5, r0
    57e2:	d100      	bne.n	57e6 <__aeabi_dsub+0x302>
    57e4:	e085      	b.n	58f2 <__aeabi_dsub+0x40e>
    57e6:	001d      	movs	r5, r3
    57e8:	e6bc      	b.n	5564 <__aeabi_dsub+0x80>
    57ea:	0029      	movs	r1, r5
    57ec:	3e1f      	subs	r6, #31
    57ee:	40f1      	lsrs	r1, r6
    57f0:	2b20      	cmp	r3, #32
    57f2:	d100      	bne.n	57f6 <__aeabi_dsub+0x312>
    57f4:	e07f      	b.n	58f6 <__aeabi_dsub+0x412>
    57f6:	2240      	movs	r2, #64	; 0x40
    57f8:	1ad3      	subs	r3, r2, r3
    57fa:	409d      	lsls	r5, r3
    57fc:	432f      	orrs	r7, r5
    57fe:	1e7d      	subs	r5, r7, #1
    5800:	41af      	sbcs	r7, r5
    5802:	2400      	movs	r4, #0
    5804:	430f      	orrs	r7, r1
    5806:	2600      	movs	r6, #0
    5808:	e78e      	b.n	5728 <__aeabi_dsub+0x244>
    580a:	002b      	movs	r3, r5
    580c:	000f      	movs	r7, r1
    580e:	3b20      	subs	r3, #32
    5810:	40df      	lsrs	r7, r3
    5812:	2d20      	cmp	r5, #32
    5814:	d071      	beq.n	58fa <__aeabi_dsub+0x416>
    5816:	2340      	movs	r3, #64	; 0x40
    5818:	1b5d      	subs	r5, r3, r5
    581a:	40a9      	lsls	r1, r5
    581c:	430a      	orrs	r2, r1
    581e:	1e51      	subs	r1, r2, #1
    5820:	418a      	sbcs	r2, r1
    5822:	2100      	movs	r1, #0
    5824:	4317      	orrs	r7, r2
    5826:	e6af      	b.n	5588 <__aeabi_dsub+0xa4>
    5828:	000007ff 	.word	0x000007ff
    582c:	ff7fffff 	.word	0xff7fffff
    5830:	800fffff 	.word	0x800fffff
    5834:	2e00      	cmp	r6, #0
    5836:	d03e      	beq.n	58b6 <__aeabi_dsub+0x3d2>
    5838:	4eb3      	ldr	r6, [pc, #716]	; (5b08 <__aeabi_dsub+0x624>)
    583a:	45b4      	cmp	ip, r6
    583c:	d045      	beq.n	58ca <__aeabi_dsub+0x3e6>
    583e:	2680      	movs	r6, #128	; 0x80
    5840:	0436      	lsls	r6, r6, #16
    5842:	426d      	negs	r5, r5
    5844:	4334      	orrs	r4, r6
    5846:	2d38      	cmp	r5, #56	; 0x38
    5848:	dd00      	ble.n	584c <__aeabi_dsub+0x368>
    584a:	e0a8      	b.n	599e <__aeabi_dsub+0x4ba>
    584c:	2d1f      	cmp	r5, #31
    584e:	dd00      	ble.n	5852 <__aeabi_dsub+0x36e>
    5850:	e11f      	b.n	5a92 <__aeabi_dsub+0x5ae>
    5852:	2620      	movs	r6, #32
    5854:	0027      	movs	r7, r4
    5856:	4650      	mov	r0, sl
    5858:	1b76      	subs	r6, r6, r5
    585a:	40b7      	lsls	r7, r6
    585c:	40e8      	lsrs	r0, r5
    585e:	4307      	orrs	r7, r0
    5860:	4650      	mov	r0, sl
    5862:	40b0      	lsls	r0, r6
    5864:	1e46      	subs	r6, r0, #1
    5866:	41b0      	sbcs	r0, r6
    5868:	40ec      	lsrs	r4, r5
    586a:	4338      	orrs	r0, r7
    586c:	1a17      	subs	r7, r2, r0
    586e:	42ba      	cmp	r2, r7
    5870:	4192      	sbcs	r2, r2
    5872:	1b0c      	subs	r4, r1, r4
    5874:	4252      	negs	r2, r2
    5876:	1aa4      	subs	r4, r4, r2
    5878:	4666      	mov	r6, ip
    587a:	4698      	mov	r8, r3
    587c:	e68b      	b.n	5596 <__aeabi_dsub+0xb2>
    587e:	4664      	mov	r4, ip
    5880:	4667      	mov	r7, ip
    5882:	432c      	orrs	r4, r5
    5884:	d000      	beq.n	5888 <__aeabi_dsub+0x3a4>
    5886:	e68b      	b.n	55a0 <__aeabi_dsub+0xbc>
    5888:	2500      	movs	r5, #0
    588a:	2600      	movs	r6, #0
    588c:	2700      	movs	r7, #0
    588e:	e6ea      	b.n	5666 <__aeabi_dsub+0x182>
    5890:	001e      	movs	r6, r3
    5892:	e6ad      	b.n	55f0 <__aeabi_dsub+0x10c>
    5894:	2b1f      	cmp	r3, #31
    5896:	dc60      	bgt.n	595a <__aeabi_dsub+0x476>
    5898:	2720      	movs	r7, #32
    589a:	1af8      	subs	r0, r7, r3
    589c:	000f      	movs	r7, r1
    589e:	4684      	mov	ip, r0
    58a0:	4087      	lsls	r7, r0
    58a2:	0010      	movs	r0, r2
    58a4:	40d8      	lsrs	r0, r3
    58a6:	4307      	orrs	r7, r0
    58a8:	4660      	mov	r0, ip
    58aa:	4082      	lsls	r2, r0
    58ac:	1e50      	subs	r0, r2, #1
    58ae:	4182      	sbcs	r2, r0
    58b0:	40d9      	lsrs	r1, r3
    58b2:	4317      	orrs	r7, r2
    58b4:	e6f5      	b.n	56a2 <__aeabi_dsub+0x1be>
    58b6:	0026      	movs	r6, r4
    58b8:	4650      	mov	r0, sl
    58ba:	4306      	orrs	r6, r0
    58bc:	d005      	beq.n	58ca <__aeabi_dsub+0x3e6>
    58be:	43ed      	mvns	r5, r5
    58c0:	2d00      	cmp	r5, #0
    58c2:	d0d3      	beq.n	586c <__aeabi_dsub+0x388>
    58c4:	4e90      	ldr	r6, [pc, #576]	; (5b08 <__aeabi_dsub+0x624>)
    58c6:	45b4      	cmp	ip, r6
    58c8:	d1bd      	bne.n	5846 <__aeabi_dsub+0x362>
    58ca:	000c      	movs	r4, r1
    58cc:	0017      	movs	r7, r2
    58ce:	4666      	mov	r6, ip
    58d0:	4698      	mov	r8, r3
    58d2:	e68d      	b.n	55f0 <__aeabi_dsub+0x10c>
    58d4:	488c      	ldr	r0, [pc, #560]	; (5b08 <__aeabi_dsub+0x624>)
    58d6:	4283      	cmp	r3, r0
    58d8:	d00b      	beq.n	58f2 <__aeabi_dsub+0x40e>
    58da:	4663      	mov	r3, ip
    58dc:	e6d9      	b.n	5692 <__aeabi_dsub+0x1ae>
    58de:	2d00      	cmp	r5, #0
    58e0:	d000      	beq.n	58e4 <__aeabi_dsub+0x400>
    58e2:	e096      	b.n	5a12 <__aeabi_dsub+0x52e>
    58e4:	0008      	movs	r0, r1
    58e6:	4310      	orrs	r0, r2
    58e8:	d100      	bne.n	58ec <__aeabi_dsub+0x408>
    58ea:	e0e2      	b.n	5ab2 <__aeabi_dsub+0x5ce>
    58ec:	000c      	movs	r4, r1
    58ee:	0017      	movs	r7, r2
    58f0:	4698      	mov	r8, r3
    58f2:	4e85      	ldr	r6, [pc, #532]	; (5b08 <__aeabi_dsub+0x624>)
    58f4:	e67c      	b.n	55f0 <__aeabi_dsub+0x10c>
    58f6:	2500      	movs	r5, #0
    58f8:	e780      	b.n	57fc <__aeabi_dsub+0x318>
    58fa:	2100      	movs	r1, #0
    58fc:	e78e      	b.n	581c <__aeabi_dsub+0x338>
    58fe:	0023      	movs	r3, r4
    5900:	4650      	mov	r0, sl
    5902:	4303      	orrs	r3, r0
    5904:	2e00      	cmp	r6, #0
    5906:	d000      	beq.n	590a <__aeabi_dsub+0x426>
    5908:	e0a8      	b.n	5a5c <__aeabi_dsub+0x578>
    590a:	2b00      	cmp	r3, #0
    590c:	d100      	bne.n	5910 <__aeabi_dsub+0x42c>
    590e:	e0de      	b.n	5ace <__aeabi_dsub+0x5ea>
    5910:	000b      	movs	r3, r1
    5912:	4313      	orrs	r3, r2
    5914:	d100      	bne.n	5918 <__aeabi_dsub+0x434>
    5916:	e66b      	b.n	55f0 <__aeabi_dsub+0x10c>
    5918:	4452      	add	r2, sl
    591a:	4552      	cmp	r2, sl
    591c:	4180      	sbcs	r0, r0
    591e:	1864      	adds	r4, r4, r1
    5920:	4240      	negs	r0, r0
    5922:	1824      	adds	r4, r4, r0
    5924:	0017      	movs	r7, r2
    5926:	0223      	lsls	r3, r4, #8
    5928:	d400      	bmi.n	592c <__aeabi_dsub+0x448>
    592a:	e6fd      	b.n	5728 <__aeabi_dsub+0x244>
    592c:	4b77      	ldr	r3, [pc, #476]	; (5b0c <__aeabi_dsub+0x628>)
    592e:	4666      	mov	r6, ip
    5930:	401c      	ands	r4, r3
    5932:	e65d      	b.n	55f0 <__aeabi_dsub+0x10c>
    5934:	0025      	movs	r5, r4
    5936:	4650      	mov	r0, sl
    5938:	4305      	orrs	r5, r0
    593a:	2e00      	cmp	r6, #0
    593c:	d1cf      	bne.n	58de <__aeabi_dsub+0x3fa>
    593e:	2d00      	cmp	r5, #0
    5940:	d14f      	bne.n	59e2 <__aeabi_dsub+0x4fe>
    5942:	000c      	movs	r4, r1
    5944:	4314      	orrs	r4, r2
    5946:	d100      	bne.n	594a <__aeabi_dsub+0x466>
    5948:	e0a0      	b.n	5a8c <__aeabi_dsub+0x5a8>
    594a:	000c      	movs	r4, r1
    594c:	0017      	movs	r7, r2
    594e:	4698      	mov	r8, r3
    5950:	e64e      	b.n	55f0 <__aeabi_dsub+0x10c>
    5952:	4666      	mov	r6, ip
    5954:	2400      	movs	r4, #0
    5956:	2700      	movs	r7, #0
    5958:	e685      	b.n	5666 <__aeabi_dsub+0x182>
    595a:	001f      	movs	r7, r3
    595c:	0008      	movs	r0, r1
    595e:	3f20      	subs	r7, #32
    5960:	40f8      	lsrs	r0, r7
    5962:	0007      	movs	r7, r0
    5964:	2b20      	cmp	r3, #32
    5966:	d100      	bne.n	596a <__aeabi_dsub+0x486>
    5968:	e08e      	b.n	5a88 <__aeabi_dsub+0x5a4>
    596a:	2040      	movs	r0, #64	; 0x40
    596c:	1ac3      	subs	r3, r0, r3
    596e:	4099      	lsls	r1, r3
    5970:	430a      	orrs	r2, r1
    5972:	1e51      	subs	r1, r2, #1
    5974:	418a      	sbcs	r2, r1
    5976:	2100      	movs	r1, #0
    5978:	4317      	orrs	r7, r2
    597a:	e692      	b.n	56a2 <__aeabi_dsub+0x1be>
    597c:	2e00      	cmp	r6, #0
    597e:	d114      	bne.n	59aa <__aeabi_dsub+0x4c6>
    5980:	0026      	movs	r6, r4
    5982:	4650      	mov	r0, sl
    5984:	4306      	orrs	r6, r0
    5986:	d062      	beq.n	5a4e <__aeabi_dsub+0x56a>
    5988:	43db      	mvns	r3, r3
    598a:	2b00      	cmp	r3, #0
    598c:	d15c      	bne.n	5a48 <__aeabi_dsub+0x564>
    598e:	1887      	adds	r7, r0, r2
    5990:	4297      	cmp	r7, r2
    5992:	4192      	sbcs	r2, r2
    5994:	1864      	adds	r4, r4, r1
    5996:	4252      	negs	r2, r2
    5998:	18a4      	adds	r4, r4, r2
    599a:	4666      	mov	r6, ip
    599c:	e687      	b.n	56ae <__aeabi_dsub+0x1ca>
    599e:	4650      	mov	r0, sl
    59a0:	4320      	orrs	r0, r4
    59a2:	1e44      	subs	r4, r0, #1
    59a4:	41a0      	sbcs	r0, r4
    59a6:	2400      	movs	r4, #0
    59a8:	e760      	b.n	586c <__aeabi_dsub+0x388>
    59aa:	4e57      	ldr	r6, [pc, #348]	; (5b08 <__aeabi_dsub+0x624>)
    59ac:	45b4      	cmp	ip, r6
    59ae:	d04e      	beq.n	5a4e <__aeabi_dsub+0x56a>
    59b0:	2680      	movs	r6, #128	; 0x80
    59b2:	0436      	lsls	r6, r6, #16
    59b4:	425b      	negs	r3, r3
    59b6:	4334      	orrs	r4, r6
    59b8:	2b38      	cmp	r3, #56	; 0x38
    59ba:	dd00      	ble.n	59be <__aeabi_dsub+0x4da>
    59bc:	e07f      	b.n	5abe <__aeabi_dsub+0x5da>
    59be:	2b1f      	cmp	r3, #31
    59c0:	dd00      	ble.n	59c4 <__aeabi_dsub+0x4e0>
    59c2:	e08b      	b.n	5adc <__aeabi_dsub+0x5f8>
    59c4:	2620      	movs	r6, #32
    59c6:	0027      	movs	r7, r4
    59c8:	4650      	mov	r0, sl
    59ca:	1af6      	subs	r6, r6, r3
    59cc:	40b7      	lsls	r7, r6
    59ce:	40d8      	lsrs	r0, r3
    59d0:	4307      	orrs	r7, r0
    59d2:	4650      	mov	r0, sl
    59d4:	40b0      	lsls	r0, r6
    59d6:	1e46      	subs	r6, r0, #1
    59d8:	41b0      	sbcs	r0, r6
    59da:	4307      	orrs	r7, r0
    59dc:	40dc      	lsrs	r4, r3
    59de:	18bf      	adds	r7, r7, r2
    59e0:	e7d6      	b.n	5990 <__aeabi_dsub+0x4ac>
    59e2:	000d      	movs	r5, r1
    59e4:	4315      	orrs	r5, r2
    59e6:	d100      	bne.n	59ea <__aeabi_dsub+0x506>
    59e8:	e602      	b.n	55f0 <__aeabi_dsub+0x10c>
    59ea:	4650      	mov	r0, sl
    59ec:	1a80      	subs	r0, r0, r2
    59ee:	4582      	cmp	sl, r0
    59f0:	41bf      	sbcs	r7, r7
    59f2:	1a65      	subs	r5, r4, r1
    59f4:	427f      	negs	r7, r7
    59f6:	1bed      	subs	r5, r5, r7
    59f8:	4684      	mov	ip, r0
    59fa:	0228      	lsls	r0, r5, #8
    59fc:	d400      	bmi.n	5a00 <__aeabi_dsub+0x51c>
    59fe:	e68d      	b.n	571c <__aeabi_dsub+0x238>
    5a00:	4650      	mov	r0, sl
    5a02:	1a17      	subs	r7, r2, r0
    5a04:	42ba      	cmp	r2, r7
    5a06:	4192      	sbcs	r2, r2
    5a08:	1b0c      	subs	r4, r1, r4
    5a0a:	4252      	negs	r2, r2
    5a0c:	1aa4      	subs	r4, r4, r2
    5a0e:	4698      	mov	r8, r3
    5a10:	e5ee      	b.n	55f0 <__aeabi_dsub+0x10c>
    5a12:	000d      	movs	r5, r1
    5a14:	4315      	orrs	r5, r2
    5a16:	d100      	bne.n	5a1a <__aeabi_dsub+0x536>
    5a18:	e76b      	b.n	58f2 <__aeabi_dsub+0x40e>
    5a1a:	4650      	mov	r0, sl
    5a1c:	0767      	lsls	r7, r4, #29
    5a1e:	08c0      	lsrs	r0, r0, #3
    5a20:	4307      	orrs	r7, r0
    5a22:	2080      	movs	r0, #128	; 0x80
    5a24:	08e4      	lsrs	r4, r4, #3
    5a26:	0300      	lsls	r0, r0, #12
    5a28:	4204      	tst	r4, r0
    5a2a:	d007      	beq.n	5a3c <__aeabi_dsub+0x558>
    5a2c:	08cd      	lsrs	r5, r1, #3
    5a2e:	4205      	tst	r5, r0
    5a30:	d104      	bne.n	5a3c <__aeabi_dsub+0x558>
    5a32:	002c      	movs	r4, r5
    5a34:	4698      	mov	r8, r3
    5a36:	08d7      	lsrs	r7, r2, #3
    5a38:	0749      	lsls	r1, r1, #29
    5a3a:	430f      	orrs	r7, r1
    5a3c:	0f7b      	lsrs	r3, r7, #29
    5a3e:	00e4      	lsls	r4, r4, #3
    5a40:	431c      	orrs	r4, r3
    5a42:	00ff      	lsls	r7, r7, #3
    5a44:	4e30      	ldr	r6, [pc, #192]	; (5b08 <__aeabi_dsub+0x624>)
    5a46:	e5d3      	b.n	55f0 <__aeabi_dsub+0x10c>
    5a48:	4e2f      	ldr	r6, [pc, #188]	; (5b08 <__aeabi_dsub+0x624>)
    5a4a:	45b4      	cmp	ip, r6
    5a4c:	d1b4      	bne.n	59b8 <__aeabi_dsub+0x4d4>
    5a4e:	000c      	movs	r4, r1
    5a50:	0017      	movs	r7, r2
    5a52:	4666      	mov	r6, ip
    5a54:	e5cc      	b.n	55f0 <__aeabi_dsub+0x10c>
    5a56:	2700      	movs	r7, #0
    5a58:	2400      	movs	r4, #0
    5a5a:	e5e8      	b.n	562e <__aeabi_dsub+0x14a>
    5a5c:	2b00      	cmp	r3, #0
    5a5e:	d039      	beq.n	5ad4 <__aeabi_dsub+0x5f0>
    5a60:	000b      	movs	r3, r1
    5a62:	4313      	orrs	r3, r2
    5a64:	d100      	bne.n	5a68 <__aeabi_dsub+0x584>
    5a66:	e744      	b.n	58f2 <__aeabi_dsub+0x40e>
    5a68:	08c0      	lsrs	r0, r0, #3
    5a6a:	0767      	lsls	r7, r4, #29
    5a6c:	4307      	orrs	r7, r0
    5a6e:	2080      	movs	r0, #128	; 0x80
    5a70:	08e4      	lsrs	r4, r4, #3
    5a72:	0300      	lsls	r0, r0, #12
    5a74:	4204      	tst	r4, r0
    5a76:	d0e1      	beq.n	5a3c <__aeabi_dsub+0x558>
    5a78:	08cb      	lsrs	r3, r1, #3
    5a7a:	4203      	tst	r3, r0
    5a7c:	d1de      	bne.n	5a3c <__aeabi_dsub+0x558>
    5a7e:	08d7      	lsrs	r7, r2, #3
    5a80:	0749      	lsls	r1, r1, #29
    5a82:	430f      	orrs	r7, r1
    5a84:	001c      	movs	r4, r3
    5a86:	e7d9      	b.n	5a3c <__aeabi_dsub+0x558>
    5a88:	2100      	movs	r1, #0
    5a8a:	e771      	b.n	5970 <__aeabi_dsub+0x48c>
    5a8c:	2500      	movs	r5, #0
    5a8e:	2700      	movs	r7, #0
    5a90:	e5e9      	b.n	5666 <__aeabi_dsub+0x182>
    5a92:	002e      	movs	r6, r5
    5a94:	0027      	movs	r7, r4
    5a96:	3e20      	subs	r6, #32
    5a98:	40f7      	lsrs	r7, r6
    5a9a:	2d20      	cmp	r5, #32
    5a9c:	d02f      	beq.n	5afe <__aeabi_dsub+0x61a>
    5a9e:	2640      	movs	r6, #64	; 0x40
    5aa0:	1b75      	subs	r5, r6, r5
    5aa2:	40ac      	lsls	r4, r5
    5aa4:	4650      	mov	r0, sl
    5aa6:	4320      	orrs	r0, r4
    5aa8:	1e44      	subs	r4, r0, #1
    5aaa:	41a0      	sbcs	r0, r4
    5aac:	2400      	movs	r4, #0
    5aae:	4338      	orrs	r0, r7
    5ab0:	e6dc      	b.n	586c <__aeabi_dsub+0x388>
    5ab2:	2480      	movs	r4, #128	; 0x80
    5ab4:	2500      	movs	r5, #0
    5ab6:	0324      	lsls	r4, r4, #12
    5ab8:	4e13      	ldr	r6, [pc, #76]	; (5b08 <__aeabi_dsub+0x624>)
    5aba:	2700      	movs	r7, #0
    5abc:	e5d3      	b.n	5666 <__aeabi_dsub+0x182>
    5abe:	4650      	mov	r0, sl
    5ac0:	4320      	orrs	r0, r4
    5ac2:	0007      	movs	r7, r0
    5ac4:	1e78      	subs	r0, r7, #1
    5ac6:	4187      	sbcs	r7, r0
    5ac8:	2400      	movs	r4, #0
    5aca:	18bf      	adds	r7, r7, r2
    5acc:	e760      	b.n	5990 <__aeabi_dsub+0x4ac>
    5ace:	000c      	movs	r4, r1
    5ad0:	0017      	movs	r7, r2
    5ad2:	e58d      	b.n	55f0 <__aeabi_dsub+0x10c>
    5ad4:	000c      	movs	r4, r1
    5ad6:	0017      	movs	r7, r2
    5ad8:	4e0b      	ldr	r6, [pc, #44]	; (5b08 <__aeabi_dsub+0x624>)
    5ada:	e589      	b.n	55f0 <__aeabi_dsub+0x10c>
    5adc:	001e      	movs	r6, r3
    5ade:	0027      	movs	r7, r4
    5ae0:	3e20      	subs	r6, #32
    5ae2:	40f7      	lsrs	r7, r6
    5ae4:	2b20      	cmp	r3, #32
    5ae6:	d00c      	beq.n	5b02 <__aeabi_dsub+0x61e>
    5ae8:	2640      	movs	r6, #64	; 0x40
    5aea:	1af3      	subs	r3, r6, r3
    5aec:	409c      	lsls	r4, r3
    5aee:	4650      	mov	r0, sl
    5af0:	4320      	orrs	r0, r4
    5af2:	1e44      	subs	r4, r0, #1
    5af4:	41a0      	sbcs	r0, r4
    5af6:	4307      	orrs	r7, r0
    5af8:	2400      	movs	r4, #0
    5afa:	18bf      	adds	r7, r7, r2
    5afc:	e748      	b.n	5990 <__aeabi_dsub+0x4ac>
    5afe:	2400      	movs	r4, #0
    5b00:	e7d0      	b.n	5aa4 <__aeabi_dsub+0x5c0>
    5b02:	2400      	movs	r4, #0
    5b04:	e7f3      	b.n	5aee <__aeabi_dsub+0x60a>
    5b06:	46c0      	nop			; (mov r8, r8)
    5b08:	000007ff 	.word	0x000007ff
    5b0c:	ff7fffff 	.word	0xff7fffff

00005b10 <__aeabi_d2iz>:
    5b10:	b530      	push	{r4, r5, lr}
    5b12:	4d13      	ldr	r5, [pc, #76]	; (5b60 <__aeabi_d2iz+0x50>)
    5b14:	030a      	lsls	r2, r1, #12
    5b16:	004b      	lsls	r3, r1, #1
    5b18:	0b12      	lsrs	r2, r2, #12
    5b1a:	0d5b      	lsrs	r3, r3, #21
    5b1c:	0fc9      	lsrs	r1, r1, #31
    5b1e:	2400      	movs	r4, #0
    5b20:	42ab      	cmp	r3, r5
    5b22:	dd10      	ble.n	5b46 <__aeabi_d2iz+0x36>
    5b24:	4c0f      	ldr	r4, [pc, #60]	; (5b64 <__aeabi_d2iz+0x54>)
    5b26:	42a3      	cmp	r3, r4
    5b28:	dc0f      	bgt.n	5b4a <__aeabi_d2iz+0x3a>
    5b2a:	2480      	movs	r4, #128	; 0x80
    5b2c:	4d0e      	ldr	r5, [pc, #56]	; (5b68 <__aeabi_d2iz+0x58>)
    5b2e:	0364      	lsls	r4, r4, #13
    5b30:	4322      	orrs	r2, r4
    5b32:	1aed      	subs	r5, r5, r3
    5b34:	2d1f      	cmp	r5, #31
    5b36:	dd0b      	ble.n	5b50 <__aeabi_d2iz+0x40>
    5b38:	480c      	ldr	r0, [pc, #48]	; (5b6c <__aeabi_d2iz+0x5c>)
    5b3a:	1ac3      	subs	r3, r0, r3
    5b3c:	40da      	lsrs	r2, r3
    5b3e:	4254      	negs	r4, r2
    5b40:	2900      	cmp	r1, #0
    5b42:	d100      	bne.n	5b46 <__aeabi_d2iz+0x36>
    5b44:	0014      	movs	r4, r2
    5b46:	0020      	movs	r0, r4
    5b48:	bd30      	pop	{r4, r5, pc}
    5b4a:	4b09      	ldr	r3, [pc, #36]	; (5b70 <__aeabi_d2iz+0x60>)
    5b4c:	18cc      	adds	r4, r1, r3
    5b4e:	e7fa      	b.n	5b46 <__aeabi_d2iz+0x36>
    5b50:	4c08      	ldr	r4, [pc, #32]	; (5b74 <__aeabi_d2iz+0x64>)
    5b52:	40e8      	lsrs	r0, r5
    5b54:	46a4      	mov	ip, r4
    5b56:	4463      	add	r3, ip
    5b58:	409a      	lsls	r2, r3
    5b5a:	4302      	orrs	r2, r0
    5b5c:	e7ef      	b.n	5b3e <__aeabi_d2iz+0x2e>
    5b5e:	46c0      	nop			; (mov r8, r8)
    5b60:	000003fe 	.word	0x000003fe
    5b64:	0000041d 	.word	0x0000041d
    5b68:	00000433 	.word	0x00000433
    5b6c:	00000413 	.word	0x00000413
    5b70:	7fffffff 	.word	0x7fffffff
    5b74:	fffffbed 	.word	0xfffffbed

00005b78 <__aeabi_i2d>:
    5b78:	b570      	push	{r4, r5, r6, lr}
    5b7a:	2800      	cmp	r0, #0
    5b7c:	d030      	beq.n	5be0 <__aeabi_i2d+0x68>
    5b7e:	17c3      	asrs	r3, r0, #31
    5b80:	18c4      	adds	r4, r0, r3
    5b82:	405c      	eors	r4, r3
    5b84:	0fc5      	lsrs	r5, r0, #31
    5b86:	0020      	movs	r0, r4
    5b88:	f000 f98a 	bl	5ea0 <__clzsi2>
    5b8c:	4b17      	ldr	r3, [pc, #92]	; (5bec <__aeabi_i2d+0x74>)
    5b8e:	4a18      	ldr	r2, [pc, #96]	; (5bf0 <__aeabi_i2d+0x78>)
    5b90:	1a1b      	subs	r3, r3, r0
    5b92:	1ad2      	subs	r2, r2, r3
    5b94:	2a1f      	cmp	r2, #31
    5b96:	dd18      	ble.n	5bca <__aeabi_i2d+0x52>
    5b98:	4a16      	ldr	r2, [pc, #88]	; (5bf4 <__aeabi_i2d+0x7c>)
    5b9a:	1ad2      	subs	r2, r2, r3
    5b9c:	4094      	lsls	r4, r2
    5b9e:	2200      	movs	r2, #0
    5ba0:	0324      	lsls	r4, r4, #12
    5ba2:	055b      	lsls	r3, r3, #21
    5ba4:	0b24      	lsrs	r4, r4, #12
    5ba6:	0d5b      	lsrs	r3, r3, #21
    5ba8:	2100      	movs	r1, #0
    5baa:	0010      	movs	r0, r2
    5bac:	0324      	lsls	r4, r4, #12
    5bae:	0d0a      	lsrs	r2, r1, #20
    5bb0:	0b24      	lsrs	r4, r4, #12
    5bb2:	0512      	lsls	r2, r2, #20
    5bb4:	4322      	orrs	r2, r4
    5bb6:	4c10      	ldr	r4, [pc, #64]	; (5bf8 <__aeabi_i2d+0x80>)
    5bb8:	051b      	lsls	r3, r3, #20
    5bba:	4022      	ands	r2, r4
    5bbc:	4313      	orrs	r3, r2
    5bbe:	005b      	lsls	r3, r3, #1
    5bc0:	07ed      	lsls	r5, r5, #31
    5bc2:	085b      	lsrs	r3, r3, #1
    5bc4:	432b      	orrs	r3, r5
    5bc6:	0019      	movs	r1, r3
    5bc8:	bd70      	pop	{r4, r5, r6, pc}
    5bca:	0021      	movs	r1, r4
    5bcc:	4091      	lsls	r1, r2
    5bce:	000a      	movs	r2, r1
    5bd0:	210b      	movs	r1, #11
    5bd2:	1a08      	subs	r0, r1, r0
    5bd4:	40c4      	lsrs	r4, r0
    5bd6:	055b      	lsls	r3, r3, #21
    5bd8:	0324      	lsls	r4, r4, #12
    5bda:	0b24      	lsrs	r4, r4, #12
    5bdc:	0d5b      	lsrs	r3, r3, #21
    5bde:	e7e3      	b.n	5ba8 <__aeabi_i2d+0x30>
    5be0:	2500      	movs	r5, #0
    5be2:	2300      	movs	r3, #0
    5be4:	2400      	movs	r4, #0
    5be6:	2200      	movs	r2, #0
    5be8:	e7de      	b.n	5ba8 <__aeabi_i2d+0x30>
    5bea:	46c0      	nop			; (mov r8, r8)
    5bec:	0000041e 	.word	0x0000041e
    5bf0:	00000433 	.word	0x00000433
    5bf4:	00000413 	.word	0x00000413
    5bf8:	800fffff 	.word	0x800fffff

00005bfc <__aeabi_ui2d>:
    5bfc:	b510      	push	{r4, lr}
    5bfe:	1e04      	subs	r4, r0, #0
    5c00:	d028      	beq.n	5c54 <__aeabi_ui2d+0x58>
    5c02:	f000 f94d 	bl	5ea0 <__clzsi2>
    5c06:	4b15      	ldr	r3, [pc, #84]	; (5c5c <__aeabi_ui2d+0x60>)
    5c08:	4a15      	ldr	r2, [pc, #84]	; (5c60 <__aeabi_ui2d+0x64>)
    5c0a:	1a1b      	subs	r3, r3, r0
    5c0c:	1ad2      	subs	r2, r2, r3
    5c0e:	2a1f      	cmp	r2, #31
    5c10:	dd15      	ble.n	5c3e <__aeabi_ui2d+0x42>
    5c12:	4a14      	ldr	r2, [pc, #80]	; (5c64 <__aeabi_ui2d+0x68>)
    5c14:	1ad2      	subs	r2, r2, r3
    5c16:	4094      	lsls	r4, r2
    5c18:	2200      	movs	r2, #0
    5c1a:	0324      	lsls	r4, r4, #12
    5c1c:	055b      	lsls	r3, r3, #21
    5c1e:	0b24      	lsrs	r4, r4, #12
    5c20:	0d5b      	lsrs	r3, r3, #21
    5c22:	2100      	movs	r1, #0
    5c24:	0010      	movs	r0, r2
    5c26:	0324      	lsls	r4, r4, #12
    5c28:	0d0a      	lsrs	r2, r1, #20
    5c2a:	0b24      	lsrs	r4, r4, #12
    5c2c:	0512      	lsls	r2, r2, #20
    5c2e:	4322      	orrs	r2, r4
    5c30:	4c0d      	ldr	r4, [pc, #52]	; (5c68 <__aeabi_ui2d+0x6c>)
    5c32:	051b      	lsls	r3, r3, #20
    5c34:	4022      	ands	r2, r4
    5c36:	4313      	orrs	r3, r2
    5c38:	005b      	lsls	r3, r3, #1
    5c3a:	0859      	lsrs	r1, r3, #1
    5c3c:	bd10      	pop	{r4, pc}
    5c3e:	0021      	movs	r1, r4
    5c40:	4091      	lsls	r1, r2
    5c42:	000a      	movs	r2, r1
    5c44:	210b      	movs	r1, #11
    5c46:	1a08      	subs	r0, r1, r0
    5c48:	40c4      	lsrs	r4, r0
    5c4a:	055b      	lsls	r3, r3, #21
    5c4c:	0324      	lsls	r4, r4, #12
    5c4e:	0b24      	lsrs	r4, r4, #12
    5c50:	0d5b      	lsrs	r3, r3, #21
    5c52:	e7e6      	b.n	5c22 <__aeabi_ui2d+0x26>
    5c54:	2300      	movs	r3, #0
    5c56:	2400      	movs	r4, #0
    5c58:	2200      	movs	r2, #0
    5c5a:	e7e2      	b.n	5c22 <__aeabi_ui2d+0x26>
    5c5c:	0000041e 	.word	0x0000041e
    5c60:	00000433 	.word	0x00000433
    5c64:	00000413 	.word	0x00000413
    5c68:	800fffff 	.word	0x800fffff

00005c6c <__aeabi_f2d>:
    5c6c:	0041      	lsls	r1, r0, #1
    5c6e:	0e09      	lsrs	r1, r1, #24
    5c70:	1c4b      	adds	r3, r1, #1
    5c72:	b570      	push	{r4, r5, r6, lr}
    5c74:	b2db      	uxtb	r3, r3
    5c76:	0246      	lsls	r6, r0, #9
    5c78:	0a75      	lsrs	r5, r6, #9
    5c7a:	0fc4      	lsrs	r4, r0, #31
    5c7c:	2b01      	cmp	r3, #1
    5c7e:	dd14      	ble.n	5caa <__aeabi_f2d+0x3e>
    5c80:	23e0      	movs	r3, #224	; 0xe0
    5c82:	009b      	lsls	r3, r3, #2
    5c84:	076d      	lsls	r5, r5, #29
    5c86:	0b36      	lsrs	r6, r6, #12
    5c88:	18cb      	adds	r3, r1, r3
    5c8a:	2100      	movs	r1, #0
    5c8c:	0d0a      	lsrs	r2, r1, #20
    5c8e:	0028      	movs	r0, r5
    5c90:	0512      	lsls	r2, r2, #20
    5c92:	4d1c      	ldr	r5, [pc, #112]	; (5d04 <__aeabi_f2d+0x98>)
    5c94:	4332      	orrs	r2, r6
    5c96:	055b      	lsls	r3, r3, #21
    5c98:	402a      	ands	r2, r5
    5c9a:	085b      	lsrs	r3, r3, #1
    5c9c:	4313      	orrs	r3, r2
    5c9e:	005b      	lsls	r3, r3, #1
    5ca0:	07e4      	lsls	r4, r4, #31
    5ca2:	085b      	lsrs	r3, r3, #1
    5ca4:	4323      	orrs	r3, r4
    5ca6:	0019      	movs	r1, r3
    5ca8:	bd70      	pop	{r4, r5, r6, pc}
    5caa:	2900      	cmp	r1, #0
    5cac:	d114      	bne.n	5cd8 <__aeabi_f2d+0x6c>
    5cae:	2d00      	cmp	r5, #0
    5cb0:	d01e      	beq.n	5cf0 <__aeabi_f2d+0x84>
    5cb2:	0028      	movs	r0, r5
    5cb4:	f000 f8f4 	bl	5ea0 <__clzsi2>
    5cb8:	280a      	cmp	r0, #10
    5cba:	dc1c      	bgt.n	5cf6 <__aeabi_f2d+0x8a>
    5cbc:	230b      	movs	r3, #11
    5cbe:	002a      	movs	r2, r5
    5cc0:	1a1b      	subs	r3, r3, r0
    5cc2:	40da      	lsrs	r2, r3
    5cc4:	0003      	movs	r3, r0
    5cc6:	3315      	adds	r3, #21
    5cc8:	409d      	lsls	r5, r3
    5cca:	4b0f      	ldr	r3, [pc, #60]	; (5d08 <__aeabi_f2d+0x9c>)
    5ccc:	0312      	lsls	r2, r2, #12
    5cce:	1a1b      	subs	r3, r3, r0
    5cd0:	055b      	lsls	r3, r3, #21
    5cd2:	0b16      	lsrs	r6, r2, #12
    5cd4:	0d5b      	lsrs	r3, r3, #21
    5cd6:	e7d8      	b.n	5c8a <__aeabi_f2d+0x1e>
    5cd8:	2d00      	cmp	r5, #0
    5cda:	d006      	beq.n	5cea <__aeabi_f2d+0x7e>
    5cdc:	0b32      	lsrs	r2, r6, #12
    5cde:	2680      	movs	r6, #128	; 0x80
    5ce0:	0336      	lsls	r6, r6, #12
    5ce2:	076d      	lsls	r5, r5, #29
    5ce4:	4316      	orrs	r6, r2
    5ce6:	4b09      	ldr	r3, [pc, #36]	; (5d0c <__aeabi_f2d+0xa0>)
    5ce8:	e7cf      	b.n	5c8a <__aeabi_f2d+0x1e>
    5cea:	4b08      	ldr	r3, [pc, #32]	; (5d0c <__aeabi_f2d+0xa0>)
    5cec:	2600      	movs	r6, #0
    5cee:	e7cc      	b.n	5c8a <__aeabi_f2d+0x1e>
    5cf0:	2300      	movs	r3, #0
    5cf2:	2600      	movs	r6, #0
    5cf4:	e7c9      	b.n	5c8a <__aeabi_f2d+0x1e>
    5cf6:	0003      	movs	r3, r0
    5cf8:	002a      	movs	r2, r5
    5cfa:	3b0b      	subs	r3, #11
    5cfc:	409a      	lsls	r2, r3
    5cfe:	2500      	movs	r5, #0
    5d00:	e7e3      	b.n	5cca <__aeabi_f2d+0x5e>
    5d02:	46c0      	nop			; (mov r8, r8)
    5d04:	800fffff 	.word	0x800fffff
    5d08:	00000389 	.word	0x00000389
    5d0c:	000007ff 	.word	0x000007ff

00005d10 <__aeabi_d2f>:
    5d10:	b5f0      	push	{r4, r5, r6, r7, lr}
    5d12:	004c      	lsls	r4, r1, #1
    5d14:	0d64      	lsrs	r4, r4, #21
    5d16:	030b      	lsls	r3, r1, #12
    5d18:	1c62      	adds	r2, r4, #1
    5d1a:	0f45      	lsrs	r5, r0, #29
    5d1c:	0a5b      	lsrs	r3, r3, #9
    5d1e:	0552      	lsls	r2, r2, #21
    5d20:	432b      	orrs	r3, r5
    5d22:	0fc9      	lsrs	r1, r1, #31
    5d24:	00c5      	lsls	r5, r0, #3
    5d26:	0d52      	lsrs	r2, r2, #21
    5d28:	2a01      	cmp	r2, #1
    5d2a:	dd28      	ble.n	5d7e <__aeabi_d2f+0x6e>
    5d2c:	4a3a      	ldr	r2, [pc, #232]	; (5e18 <__aeabi_d2f+0x108>)
    5d2e:	18a6      	adds	r6, r4, r2
    5d30:	2efe      	cmp	r6, #254	; 0xfe
    5d32:	dc1b      	bgt.n	5d6c <__aeabi_d2f+0x5c>
    5d34:	2e00      	cmp	r6, #0
    5d36:	dd3e      	ble.n	5db6 <__aeabi_d2f+0xa6>
    5d38:	0180      	lsls	r0, r0, #6
    5d3a:	0002      	movs	r2, r0
    5d3c:	1e50      	subs	r0, r2, #1
    5d3e:	4182      	sbcs	r2, r0
    5d40:	0f6d      	lsrs	r5, r5, #29
    5d42:	432a      	orrs	r2, r5
    5d44:	00db      	lsls	r3, r3, #3
    5d46:	4313      	orrs	r3, r2
    5d48:	075a      	lsls	r2, r3, #29
    5d4a:	d004      	beq.n	5d56 <__aeabi_d2f+0x46>
    5d4c:	220f      	movs	r2, #15
    5d4e:	401a      	ands	r2, r3
    5d50:	2a04      	cmp	r2, #4
    5d52:	d000      	beq.n	5d56 <__aeabi_d2f+0x46>
    5d54:	3304      	adds	r3, #4
    5d56:	2280      	movs	r2, #128	; 0x80
    5d58:	04d2      	lsls	r2, r2, #19
    5d5a:	401a      	ands	r2, r3
    5d5c:	d05a      	beq.n	5e14 <__aeabi_d2f+0x104>
    5d5e:	3601      	adds	r6, #1
    5d60:	2eff      	cmp	r6, #255	; 0xff
    5d62:	d003      	beq.n	5d6c <__aeabi_d2f+0x5c>
    5d64:	019b      	lsls	r3, r3, #6
    5d66:	0a5b      	lsrs	r3, r3, #9
    5d68:	b2f4      	uxtb	r4, r6
    5d6a:	e001      	b.n	5d70 <__aeabi_d2f+0x60>
    5d6c:	24ff      	movs	r4, #255	; 0xff
    5d6e:	2300      	movs	r3, #0
    5d70:	0258      	lsls	r0, r3, #9
    5d72:	05e4      	lsls	r4, r4, #23
    5d74:	0a40      	lsrs	r0, r0, #9
    5d76:	07c9      	lsls	r1, r1, #31
    5d78:	4320      	orrs	r0, r4
    5d7a:	4308      	orrs	r0, r1
    5d7c:	bdf0      	pop	{r4, r5, r6, r7, pc}
    5d7e:	2c00      	cmp	r4, #0
    5d80:	d007      	beq.n	5d92 <__aeabi_d2f+0x82>
    5d82:	431d      	orrs	r5, r3
    5d84:	d0f2      	beq.n	5d6c <__aeabi_d2f+0x5c>
    5d86:	2080      	movs	r0, #128	; 0x80
    5d88:	00db      	lsls	r3, r3, #3
    5d8a:	0480      	lsls	r0, r0, #18
    5d8c:	4303      	orrs	r3, r0
    5d8e:	26ff      	movs	r6, #255	; 0xff
    5d90:	e7da      	b.n	5d48 <__aeabi_d2f+0x38>
    5d92:	432b      	orrs	r3, r5
    5d94:	d003      	beq.n	5d9e <__aeabi_d2f+0x8e>
    5d96:	2305      	movs	r3, #5
    5d98:	08db      	lsrs	r3, r3, #3
    5d9a:	2cff      	cmp	r4, #255	; 0xff
    5d9c:	d003      	beq.n	5da6 <__aeabi_d2f+0x96>
    5d9e:	025b      	lsls	r3, r3, #9
    5da0:	0a5b      	lsrs	r3, r3, #9
    5da2:	b2e4      	uxtb	r4, r4
    5da4:	e7e4      	b.n	5d70 <__aeabi_d2f+0x60>
    5da6:	2b00      	cmp	r3, #0
    5da8:	d032      	beq.n	5e10 <__aeabi_d2f+0x100>
    5daa:	2080      	movs	r0, #128	; 0x80
    5dac:	03c0      	lsls	r0, r0, #15
    5dae:	4303      	orrs	r3, r0
    5db0:	025b      	lsls	r3, r3, #9
    5db2:	0a5b      	lsrs	r3, r3, #9
    5db4:	e7dc      	b.n	5d70 <__aeabi_d2f+0x60>
    5db6:	0032      	movs	r2, r6
    5db8:	3217      	adds	r2, #23
    5dba:	db14      	blt.n	5de6 <__aeabi_d2f+0xd6>
    5dbc:	2280      	movs	r2, #128	; 0x80
    5dbe:	271e      	movs	r7, #30
    5dc0:	0412      	lsls	r2, r2, #16
    5dc2:	4313      	orrs	r3, r2
    5dc4:	1bbf      	subs	r7, r7, r6
    5dc6:	2f1f      	cmp	r7, #31
    5dc8:	dc0f      	bgt.n	5dea <__aeabi_d2f+0xda>
    5dca:	4a14      	ldr	r2, [pc, #80]	; (5e1c <__aeabi_d2f+0x10c>)
    5dcc:	4694      	mov	ip, r2
    5dce:	4464      	add	r4, ip
    5dd0:	002a      	movs	r2, r5
    5dd2:	40a5      	lsls	r5, r4
    5dd4:	002e      	movs	r6, r5
    5dd6:	40a3      	lsls	r3, r4
    5dd8:	1e75      	subs	r5, r6, #1
    5dda:	41ae      	sbcs	r6, r5
    5ddc:	40fa      	lsrs	r2, r7
    5dde:	4333      	orrs	r3, r6
    5de0:	4313      	orrs	r3, r2
    5de2:	2600      	movs	r6, #0
    5de4:	e7b0      	b.n	5d48 <__aeabi_d2f+0x38>
    5de6:	2400      	movs	r4, #0
    5de8:	e7d5      	b.n	5d96 <__aeabi_d2f+0x86>
    5dea:	2202      	movs	r2, #2
    5dec:	4252      	negs	r2, r2
    5dee:	1b96      	subs	r6, r2, r6
    5df0:	001a      	movs	r2, r3
    5df2:	40f2      	lsrs	r2, r6
    5df4:	2f20      	cmp	r7, #32
    5df6:	d009      	beq.n	5e0c <__aeabi_d2f+0xfc>
    5df8:	4809      	ldr	r0, [pc, #36]	; (5e20 <__aeabi_d2f+0x110>)
    5dfa:	4684      	mov	ip, r0
    5dfc:	4464      	add	r4, ip
    5dfe:	40a3      	lsls	r3, r4
    5e00:	432b      	orrs	r3, r5
    5e02:	1e5d      	subs	r5, r3, #1
    5e04:	41ab      	sbcs	r3, r5
    5e06:	2600      	movs	r6, #0
    5e08:	4313      	orrs	r3, r2
    5e0a:	e79d      	b.n	5d48 <__aeabi_d2f+0x38>
    5e0c:	2300      	movs	r3, #0
    5e0e:	e7f7      	b.n	5e00 <__aeabi_d2f+0xf0>
    5e10:	2300      	movs	r3, #0
    5e12:	e7ad      	b.n	5d70 <__aeabi_d2f+0x60>
    5e14:	0034      	movs	r4, r6
    5e16:	e7bf      	b.n	5d98 <__aeabi_d2f+0x88>
    5e18:	fffffc80 	.word	0xfffffc80
    5e1c:	fffffc82 	.word	0xfffffc82
    5e20:	fffffca2 	.word	0xfffffca2

00005e24 <__aeabi_cdrcmple>:
    5e24:	4684      	mov	ip, r0
    5e26:	1c10      	adds	r0, r2, #0
    5e28:	4662      	mov	r2, ip
    5e2a:	468c      	mov	ip, r1
    5e2c:	1c19      	adds	r1, r3, #0
    5e2e:	4663      	mov	r3, ip
    5e30:	e000      	b.n	5e34 <__aeabi_cdcmpeq>
    5e32:	46c0      	nop			; (mov r8, r8)

00005e34 <__aeabi_cdcmpeq>:
    5e34:	b51f      	push	{r0, r1, r2, r3, r4, lr}
    5e36:	f000 f91b 	bl	6070 <__ledf2>
    5e3a:	2800      	cmp	r0, #0
    5e3c:	d401      	bmi.n	5e42 <__aeabi_cdcmpeq+0xe>
    5e3e:	2100      	movs	r1, #0
    5e40:	42c8      	cmn	r0, r1
    5e42:	bd1f      	pop	{r0, r1, r2, r3, r4, pc}

00005e44 <__aeabi_dcmpeq>:
    5e44:	b510      	push	{r4, lr}
    5e46:	f000 f875 	bl	5f34 <__eqdf2>
    5e4a:	4240      	negs	r0, r0
    5e4c:	3001      	adds	r0, #1
    5e4e:	bd10      	pop	{r4, pc}

00005e50 <__aeabi_dcmplt>:
    5e50:	b510      	push	{r4, lr}
    5e52:	f000 f90d 	bl	6070 <__ledf2>
    5e56:	2800      	cmp	r0, #0
    5e58:	db01      	blt.n	5e5e <__aeabi_dcmplt+0xe>
    5e5a:	2000      	movs	r0, #0
    5e5c:	bd10      	pop	{r4, pc}
    5e5e:	2001      	movs	r0, #1
    5e60:	bd10      	pop	{r4, pc}
    5e62:	46c0      	nop			; (mov r8, r8)

00005e64 <__aeabi_dcmple>:
    5e64:	b510      	push	{r4, lr}
    5e66:	f000 f903 	bl	6070 <__ledf2>
    5e6a:	2800      	cmp	r0, #0
    5e6c:	dd01      	ble.n	5e72 <__aeabi_dcmple+0xe>
    5e6e:	2000      	movs	r0, #0
    5e70:	bd10      	pop	{r4, pc}
    5e72:	2001      	movs	r0, #1
    5e74:	bd10      	pop	{r4, pc}
    5e76:	46c0      	nop			; (mov r8, r8)

00005e78 <__aeabi_dcmpgt>:
    5e78:	b510      	push	{r4, lr}
    5e7a:	f000 f895 	bl	5fa8 <__gedf2>
    5e7e:	2800      	cmp	r0, #0
    5e80:	dc01      	bgt.n	5e86 <__aeabi_dcmpgt+0xe>
    5e82:	2000      	movs	r0, #0
    5e84:	bd10      	pop	{r4, pc}
    5e86:	2001      	movs	r0, #1
    5e88:	bd10      	pop	{r4, pc}
    5e8a:	46c0      	nop			; (mov r8, r8)

00005e8c <__aeabi_dcmpge>:
    5e8c:	b510      	push	{r4, lr}
    5e8e:	f000 f88b 	bl	5fa8 <__gedf2>
    5e92:	2800      	cmp	r0, #0
    5e94:	da01      	bge.n	5e9a <__aeabi_dcmpge+0xe>
    5e96:	2000      	movs	r0, #0
    5e98:	bd10      	pop	{r4, pc}
    5e9a:	2001      	movs	r0, #1
    5e9c:	bd10      	pop	{r4, pc}
    5e9e:	46c0      	nop			; (mov r8, r8)

00005ea0 <__clzsi2>:
    5ea0:	211c      	movs	r1, #28
    5ea2:	2301      	movs	r3, #1
    5ea4:	041b      	lsls	r3, r3, #16
    5ea6:	4298      	cmp	r0, r3
    5ea8:	d301      	bcc.n	5eae <__clzsi2+0xe>
    5eaa:	0c00      	lsrs	r0, r0, #16
    5eac:	3910      	subs	r1, #16
    5eae:	0a1b      	lsrs	r3, r3, #8
    5eb0:	4298      	cmp	r0, r3
    5eb2:	d301      	bcc.n	5eb8 <__clzsi2+0x18>
    5eb4:	0a00      	lsrs	r0, r0, #8
    5eb6:	3908      	subs	r1, #8
    5eb8:	091b      	lsrs	r3, r3, #4
    5eba:	4298      	cmp	r0, r3
    5ebc:	d301      	bcc.n	5ec2 <__clzsi2+0x22>
    5ebe:	0900      	lsrs	r0, r0, #4
    5ec0:	3904      	subs	r1, #4
    5ec2:	a202      	add	r2, pc, #8	; (adr r2, 5ecc <__clzsi2+0x2c>)
    5ec4:	5c10      	ldrb	r0, [r2, r0]
    5ec6:	1840      	adds	r0, r0, r1
    5ec8:	4770      	bx	lr
    5eca:	46c0      	nop			; (mov r8, r8)
    5ecc:	02020304 	.word	0x02020304
    5ed0:	01010101 	.word	0x01010101
	...

00005edc <__clzdi2>:
    5edc:	b510      	push	{r4, lr}
    5ede:	2900      	cmp	r1, #0
    5ee0:	d103      	bne.n	5eea <__clzdi2+0xe>
    5ee2:	f7ff ffdd 	bl	5ea0 <__clzsi2>
    5ee6:	3020      	adds	r0, #32
    5ee8:	e002      	b.n	5ef0 <__clzdi2+0x14>
    5eea:	1c08      	adds	r0, r1, #0
    5eec:	f7ff ffd8 	bl	5ea0 <__clzsi2>
    5ef0:	bd10      	pop	{r4, pc}
    5ef2:	46c0      	nop			; (mov r8, r8)

00005ef4 <__ctzsi2>:
    5ef4:	4241      	negs	r1, r0
    5ef6:	4008      	ands	r0, r1
    5ef8:	211c      	movs	r1, #28
    5efa:	2301      	movs	r3, #1
    5efc:	041b      	lsls	r3, r3, #16
    5efe:	4298      	cmp	r0, r3
    5f00:	d301      	bcc.n	5f06 <__ctzsi2+0x12>
    5f02:	0c00      	lsrs	r0, r0, #16
    5f04:	3910      	subs	r1, #16
    5f06:	0a1b      	lsrs	r3, r3, #8
    5f08:	4298      	cmp	r0, r3
    5f0a:	d301      	bcc.n	5f10 <__ctzsi2+0x1c>
    5f0c:	0a00      	lsrs	r0, r0, #8
    5f0e:	3908      	subs	r1, #8
    5f10:	091b      	lsrs	r3, r3, #4
    5f12:	4298      	cmp	r0, r3
    5f14:	d301      	bcc.n	5f1a <__ctzsi2+0x26>
    5f16:	0900      	lsrs	r0, r0, #4
    5f18:	3904      	subs	r1, #4
    5f1a:	a202      	add	r2, pc, #8	; (adr r2, 5f24 <__ctzsi2+0x30>)
    5f1c:	5c10      	ldrb	r0, [r2, r0]
    5f1e:	1a40      	subs	r0, r0, r1
    5f20:	4770      	bx	lr
    5f22:	46c0      	nop			; (mov r8, r8)
    5f24:	1d1d1c1b 	.word	0x1d1d1c1b
    5f28:	1e1e1e1e 	.word	0x1e1e1e1e
    5f2c:	1f1f1f1f 	.word	0x1f1f1f1f
    5f30:	1f1f1f1f 	.word	0x1f1f1f1f

00005f34 <__eqdf2>:
    5f34:	b5f0      	push	{r4, r5, r6, r7, lr}
    5f36:	464f      	mov	r7, r9
    5f38:	4646      	mov	r6, r8
    5f3a:	46d6      	mov	lr, sl
    5f3c:	005c      	lsls	r4, r3, #1
    5f3e:	b5c0      	push	{r6, r7, lr}
    5f40:	031f      	lsls	r7, r3, #12
    5f42:	0fdb      	lsrs	r3, r3, #31
    5f44:	469a      	mov	sl, r3
    5f46:	4b17      	ldr	r3, [pc, #92]	; (5fa4 <__eqdf2+0x70>)
    5f48:	030e      	lsls	r6, r1, #12
    5f4a:	004d      	lsls	r5, r1, #1
    5f4c:	4684      	mov	ip, r0
    5f4e:	4680      	mov	r8, r0
    5f50:	0b36      	lsrs	r6, r6, #12
    5f52:	0d6d      	lsrs	r5, r5, #21
    5f54:	0fc9      	lsrs	r1, r1, #31
    5f56:	4691      	mov	r9, r2
    5f58:	0b3f      	lsrs	r7, r7, #12
    5f5a:	0d64      	lsrs	r4, r4, #21
    5f5c:	2001      	movs	r0, #1
    5f5e:	429d      	cmp	r5, r3
    5f60:	d008      	beq.n	5f74 <__eqdf2+0x40>
    5f62:	429c      	cmp	r4, r3
    5f64:	d001      	beq.n	5f6a <__eqdf2+0x36>
    5f66:	42a5      	cmp	r5, r4
    5f68:	d00b      	beq.n	5f82 <__eqdf2+0x4e>
    5f6a:	bc1c      	pop	{r2, r3, r4}
    5f6c:	4690      	mov	r8, r2
    5f6e:	4699      	mov	r9, r3
    5f70:	46a2      	mov	sl, r4
    5f72:	bdf0      	pop	{r4, r5, r6, r7, pc}
    5f74:	4663      	mov	r3, ip
    5f76:	4333      	orrs	r3, r6
    5f78:	d1f7      	bne.n	5f6a <__eqdf2+0x36>
    5f7a:	42ac      	cmp	r4, r5
    5f7c:	d1f5      	bne.n	5f6a <__eqdf2+0x36>
    5f7e:	433a      	orrs	r2, r7
    5f80:	d1f3      	bne.n	5f6a <__eqdf2+0x36>
    5f82:	2001      	movs	r0, #1
    5f84:	42be      	cmp	r6, r7
    5f86:	d1f0      	bne.n	5f6a <__eqdf2+0x36>
    5f88:	45c8      	cmp	r8, r9
    5f8a:	d1ee      	bne.n	5f6a <__eqdf2+0x36>
    5f8c:	4551      	cmp	r1, sl
    5f8e:	d007      	beq.n	5fa0 <__eqdf2+0x6c>
    5f90:	2d00      	cmp	r5, #0
    5f92:	d1ea      	bne.n	5f6a <__eqdf2+0x36>
    5f94:	4663      	mov	r3, ip
    5f96:	431e      	orrs	r6, r3
    5f98:	0030      	movs	r0, r6
    5f9a:	1e46      	subs	r6, r0, #1
    5f9c:	41b0      	sbcs	r0, r6
    5f9e:	e7e4      	b.n	5f6a <__eqdf2+0x36>
    5fa0:	2000      	movs	r0, #0
    5fa2:	e7e2      	b.n	5f6a <__eqdf2+0x36>
    5fa4:	000007ff 	.word	0x000007ff

00005fa8 <__gedf2>:
    5fa8:	b5f0      	push	{r4, r5, r6, r7, lr}
    5faa:	4645      	mov	r5, r8
    5fac:	46de      	mov	lr, fp
    5fae:	4657      	mov	r7, sl
    5fb0:	464e      	mov	r6, r9
    5fb2:	b5e0      	push	{r5, r6, r7, lr}
    5fb4:	031f      	lsls	r7, r3, #12
    5fb6:	0b3d      	lsrs	r5, r7, #12
    5fb8:	4f2c      	ldr	r7, [pc, #176]	; (606c <__gedf2+0xc4>)
    5fba:	030e      	lsls	r6, r1, #12
    5fbc:	004c      	lsls	r4, r1, #1
    5fbe:	46ab      	mov	fp, r5
    5fc0:	005d      	lsls	r5, r3, #1
    5fc2:	4684      	mov	ip, r0
    5fc4:	0b36      	lsrs	r6, r6, #12
    5fc6:	0d64      	lsrs	r4, r4, #21
    5fc8:	0fc9      	lsrs	r1, r1, #31
    5fca:	4690      	mov	r8, r2
    5fcc:	0d6d      	lsrs	r5, r5, #21
    5fce:	0fdb      	lsrs	r3, r3, #31
    5fd0:	42bc      	cmp	r4, r7
    5fd2:	d02a      	beq.n	602a <__gedf2+0x82>
    5fd4:	4f25      	ldr	r7, [pc, #148]	; (606c <__gedf2+0xc4>)
    5fd6:	42bd      	cmp	r5, r7
    5fd8:	d02d      	beq.n	6036 <__gedf2+0x8e>
    5fda:	2c00      	cmp	r4, #0
    5fdc:	d10f      	bne.n	5ffe <__gedf2+0x56>
    5fde:	4330      	orrs	r0, r6
    5fe0:	0007      	movs	r7, r0
    5fe2:	4681      	mov	r9, r0
    5fe4:	4278      	negs	r0, r7
    5fe6:	4178      	adcs	r0, r7
    5fe8:	b2c0      	uxtb	r0, r0
    5fea:	2d00      	cmp	r5, #0
    5fec:	d117      	bne.n	601e <__gedf2+0x76>
    5fee:	465f      	mov	r7, fp
    5ff0:	433a      	orrs	r2, r7
    5ff2:	d114      	bne.n	601e <__gedf2+0x76>
    5ff4:	464b      	mov	r3, r9
    5ff6:	2000      	movs	r0, #0
    5ff8:	2b00      	cmp	r3, #0
    5ffa:	d00a      	beq.n	6012 <__gedf2+0x6a>
    5ffc:	e006      	b.n	600c <__gedf2+0x64>
    5ffe:	2d00      	cmp	r5, #0
    6000:	d102      	bne.n	6008 <__gedf2+0x60>
    6002:	4658      	mov	r0, fp
    6004:	4302      	orrs	r2, r0
    6006:	d001      	beq.n	600c <__gedf2+0x64>
    6008:	4299      	cmp	r1, r3
    600a:	d018      	beq.n	603e <__gedf2+0x96>
    600c:	4248      	negs	r0, r1
    600e:	2101      	movs	r1, #1
    6010:	4308      	orrs	r0, r1
    6012:	bc3c      	pop	{r2, r3, r4, r5}
    6014:	4690      	mov	r8, r2
    6016:	4699      	mov	r9, r3
    6018:	46a2      	mov	sl, r4
    601a:	46ab      	mov	fp, r5
    601c:	bdf0      	pop	{r4, r5, r6, r7, pc}
    601e:	2800      	cmp	r0, #0
    6020:	d0f2      	beq.n	6008 <__gedf2+0x60>
    6022:	2001      	movs	r0, #1
    6024:	3b01      	subs	r3, #1
    6026:	4318      	orrs	r0, r3
    6028:	e7f3      	b.n	6012 <__gedf2+0x6a>
    602a:	0037      	movs	r7, r6
    602c:	4307      	orrs	r7, r0
    602e:	d0d1      	beq.n	5fd4 <__gedf2+0x2c>
    6030:	2002      	movs	r0, #2
    6032:	4240      	negs	r0, r0
    6034:	e7ed      	b.n	6012 <__gedf2+0x6a>
    6036:	465f      	mov	r7, fp
    6038:	4317      	orrs	r7, r2
    603a:	d0ce      	beq.n	5fda <__gedf2+0x32>
    603c:	e7f8      	b.n	6030 <__gedf2+0x88>
    603e:	42ac      	cmp	r4, r5
    6040:	dce4      	bgt.n	600c <__gedf2+0x64>
    6042:	da03      	bge.n	604c <__gedf2+0xa4>
    6044:	1e48      	subs	r0, r1, #1
    6046:	2101      	movs	r1, #1
    6048:	4308      	orrs	r0, r1
    604a:	e7e2      	b.n	6012 <__gedf2+0x6a>
    604c:	455e      	cmp	r6, fp
    604e:	d8dd      	bhi.n	600c <__gedf2+0x64>
    6050:	d006      	beq.n	6060 <__gedf2+0xb8>
    6052:	2000      	movs	r0, #0
    6054:	455e      	cmp	r6, fp
    6056:	d2dc      	bcs.n	6012 <__gedf2+0x6a>
    6058:	2301      	movs	r3, #1
    605a:	1e48      	subs	r0, r1, #1
    605c:	4318      	orrs	r0, r3
    605e:	e7d8      	b.n	6012 <__gedf2+0x6a>
    6060:	45c4      	cmp	ip, r8
    6062:	d8d3      	bhi.n	600c <__gedf2+0x64>
    6064:	2000      	movs	r0, #0
    6066:	45c4      	cmp	ip, r8
    6068:	d3f6      	bcc.n	6058 <__gedf2+0xb0>
    606a:	e7d2      	b.n	6012 <__gedf2+0x6a>
    606c:	000007ff 	.word	0x000007ff

00006070 <__ledf2>:
    6070:	b5f0      	push	{r4, r5, r6, r7, lr}
    6072:	464e      	mov	r6, r9
    6074:	4645      	mov	r5, r8
    6076:	46de      	mov	lr, fp
    6078:	4657      	mov	r7, sl
    607a:	005c      	lsls	r4, r3, #1
    607c:	b5e0      	push	{r5, r6, r7, lr}
    607e:	031f      	lsls	r7, r3, #12
    6080:	0fdb      	lsrs	r3, r3, #31
    6082:	4699      	mov	r9, r3
    6084:	4b2a      	ldr	r3, [pc, #168]	; (6130 <__ledf2+0xc0>)
    6086:	030e      	lsls	r6, r1, #12
    6088:	004d      	lsls	r5, r1, #1
    608a:	0fc9      	lsrs	r1, r1, #31
    608c:	4684      	mov	ip, r0
    608e:	0b36      	lsrs	r6, r6, #12
    6090:	0d6d      	lsrs	r5, r5, #21
    6092:	468b      	mov	fp, r1
    6094:	4690      	mov	r8, r2
    6096:	0b3f      	lsrs	r7, r7, #12
    6098:	0d64      	lsrs	r4, r4, #21
    609a:	429d      	cmp	r5, r3
    609c:	d020      	beq.n	60e0 <__ledf2+0x70>
    609e:	4b24      	ldr	r3, [pc, #144]	; (6130 <__ledf2+0xc0>)
    60a0:	429c      	cmp	r4, r3
    60a2:	d022      	beq.n	60ea <__ledf2+0x7a>
    60a4:	2d00      	cmp	r5, #0
    60a6:	d112      	bne.n	60ce <__ledf2+0x5e>
    60a8:	4330      	orrs	r0, r6
    60aa:	4243      	negs	r3, r0
    60ac:	4143      	adcs	r3, r0
    60ae:	b2db      	uxtb	r3, r3
    60b0:	2c00      	cmp	r4, #0
    60b2:	d01f      	beq.n	60f4 <__ledf2+0x84>
    60b4:	2b00      	cmp	r3, #0
    60b6:	d00c      	beq.n	60d2 <__ledf2+0x62>
    60b8:	464b      	mov	r3, r9
    60ba:	2001      	movs	r0, #1
    60bc:	3b01      	subs	r3, #1
    60be:	4303      	orrs	r3, r0
    60c0:	0018      	movs	r0, r3
    60c2:	bc3c      	pop	{r2, r3, r4, r5}
    60c4:	4690      	mov	r8, r2
    60c6:	4699      	mov	r9, r3
    60c8:	46a2      	mov	sl, r4
    60ca:	46ab      	mov	fp, r5
    60cc:	bdf0      	pop	{r4, r5, r6, r7, pc}
    60ce:	2c00      	cmp	r4, #0
    60d0:	d016      	beq.n	6100 <__ledf2+0x90>
    60d2:	45cb      	cmp	fp, r9
    60d4:	d017      	beq.n	6106 <__ledf2+0x96>
    60d6:	465b      	mov	r3, fp
    60d8:	4259      	negs	r1, r3
    60da:	2301      	movs	r3, #1
    60dc:	430b      	orrs	r3, r1
    60de:	e7ef      	b.n	60c0 <__ledf2+0x50>
    60e0:	0031      	movs	r1, r6
    60e2:	2302      	movs	r3, #2
    60e4:	4301      	orrs	r1, r0
    60e6:	d1eb      	bne.n	60c0 <__ledf2+0x50>
    60e8:	e7d9      	b.n	609e <__ledf2+0x2e>
    60ea:	0039      	movs	r1, r7
    60ec:	2302      	movs	r3, #2
    60ee:	4311      	orrs	r1, r2
    60f0:	d1e6      	bne.n	60c0 <__ledf2+0x50>
    60f2:	e7d7      	b.n	60a4 <__ledf2+0x34>
    60f4:	433a      	orrs	r2, r7
    60f6:	d1dd      	bne.n	60b4 <__ledf2+0x44>
    60f8:	2300      	movs	r3, #0
    60fa:	2800      	cmp	r0, #0
    60fc:	d0e0      	beq.n	60c0 <__ledf2+0x50>
    60fe:	e7ea      	b.n	60d6 <__ledf2+0x66>
    6100:	433a      	orrs	r2, r7
    6102:	d1e6      	bne.n	60d2 <__ledf2+0x62>
    6104:	e7e7      	b.n	60d6 <__ledf2+0x66>
    6106:	42a5      	cmp	r5, r4
    6108:	dce5      	bgt.n	60d6 <__ledf2+0x66>
    610a:	db05      	blt.n	6118 <__ledf2+0xa8>
    610c:	42be      	cmp	r6, r7
    610e:	d8e2      	bhi.n	60d6 <__ledf2+0x66>
    6110:	d007      	beq.n	6122 <__ledf2+0xb2>
    6112:	2300      	movs	r3, #0
    6114:	42be      	cmp	r6, r7
    6116:	d2d3      	bcs.n	60c0 <__ledf2+0x50>
    6118:	4659      	mov	r1, fp
    611a:	2301      	movs	r3, #1
    611c:	3901      	subs	r1, #1
    611e:	430b      	orrs	r3, r1
    6120:	e7ce      	b.n	60c0 <__ledf2+0x50>
    6122:	45c4      	cmp	ip, r8
    6124:	d8d7      	bhi.n	60d6 <__ledf2+0x66>
    6126:	2300      	movs	r3, #0
    6128:	45c4      	cmp	ip, r8
    612a:	d3f5      	bcc.n	6118 <__ledf2+0xa8>
    612c:	e7c8      	b.n	60c0 <__ledf2+0x50>
    612e:	46c0      	nop			; (mov r8, r8)
    6130:	000007ff 	.word	0x000007ff

00006134 <__libc_init_array>:
    6134:	b570      	push	{r4, r5, r6, lr}
    6136:	4e0d      	ldr	r6, [pc, #52]	; (616c <__libc_init_array+0x38>)
    6138:	4d0d      	ldr	r5, [pc, #52]	; (6170 <__libc_init_array+0x3c>)
    613a:	2400      	movs	r4, #0
    613c:	1bad      	subs	r5, r5, r6
    613e:	10ad      	asrs	r5, r5, #2
    6140:	d005      	beq.n	614e <__libc_init_array+0x1a>
    6142:	00a3      	lsls	r3, r4, #2
    6144:	58f3      	ldr	r3, [r6, r3]
    6146:	3401      	adds	r4, #1
    6148:	4798      	blx	r3
    614a:	42a5      	cmp	r5, r4
    614c:	d1f9      	bne.n	6142 <__libc_init_array+0xe>
    614e:	f005 fa8f 	bl	b670 <_init>
    6152:	4e08      	ldr	r6, [pc, #32]	; (6174 <__libc_init_array+0x40>)
    6154:	4d08      	ldr	r5, [pc, #32]	; (6178 <__libc_init_array+0x44>)
    6156:	2400      	movs	r4, #0
    6158:	1bad      	subs	r5, r5, r6
    615a:	10ad      	asrs	r5, r5, #2
    615c:	d005      	beq.n	616a <__libc_init_array+0x36>
    615e:	00a3      	lsls	r3, r4, #2
    6160:	58f3      	ldr	r3, [r6, r3]
    6162:	3401      	adds	r4, #1
    6164:	4798      	blx	r3
    6166:	42a5      	cmp	r5, r4
    6168:	d1f9      	bne.n	615e <__libc_init_array+0x2a>
    616a:	bd70      	pop	{r4, r5, r6, pc}
    616c:	0000b67c 	.word	0x0000b67c
    6170:	0000b67c 	.word	0x0000b67c
    6174:	0000b67c 	.word	0x0000b67c
    6178:	0000b684 	.word	0x0000b684

0000617c <memcpy>:
    617c:	b5f0      	push	{r4, r5, r6, r7, lr}
    617e:	0005      	movs	r5, r0
    6180:	2a0f      	cmp	r2, #15
    6182:	d92f      	bls.n	61e4 <memcpy+0x68>
    6184:	000b      	movs	r3, r1
    6186:	4303      	orrs	r3, r0
    6188:	079b      	lsls	r3, r3, #30
    618a:	d134      	bne.n	61f6 <memcpy+0x7a>
    618c:	0016      	movs	r6, r2
    618e:	000c      	movs	r4, r1
    6190:	0003      	movs	r3, r0
    6192:	3e10      	subs	r6, #16
    6194:	0935      	lsrs	r5, r6, #4
    6196:	3501      	adds	r5, #1
    6198:	012d      	lsls	r5, r5, #4
    619a:	1945      	adds	r5, r0, r5
    619c:	6827      	ldr	r7, [r4, #0]
    619e:	601f      	str	r7, [r3, #0]
    61a0:	6867      	ldr	r7, [r4, #4]
    61a2:	605f      	str	r7, [r3, #4]
    61a4:	68a7      	ldr	r7, [r4, #8]
    61a6:	609f      	str	r7, [r3, #8]
    61a8:	68e7      	ldr	r7, [r4, #12]
    61aa:	3410      	adds	r4, #16
    61ac:	60df      	str	r7, [r3, #12]
    61ae:	3310      	adds	r3, #16
    61b0:	429d      	cmp	r5, r3
    61b2:	d1f3      	bne.n	619c <memcpy+0x20>
    61b4:	230f      	movs	r3, #15
    61b6:	439e      	bics	r6, r3
    61b8:	3610      	adds	r6, #16
    61ba:	1985      	adds	r5, r0, r6
    61bc:	1989      	adds	r1, r1, r6
    61be:	4013      	ands	r3, r2
    61c0:	2b03      	cmp	r3, #3
    61c2:	d91a      	bls.n	61fa <memcpy+0x7e>
    61c4:	1f1e      	subs	r6, r3, #4
    61c6:	2300      	movs	r3, #0
    61c8:	08b4      	lsrs	r4, r6, #2
    61ca:	3401      	adds	r4, #1
    61cc:	00a4      	lsls	r4, r4, #2
    61ce:	58cf      	ldr	r7, [r1, r3]
    61d0:	50ef      	str	r7, [r5, r3]
    61d2:	3304      	adds	r3, #4
    61d4:	42a3      	cmp	r3, r4
    61d6:	d1fa      	bne.n	61ce <memcpy+0x52>
    61d8:	2403      	movs	r4, #3
    61da:	43a6      	bics	r6, r4
    61dc:	1d33      	adds	r3, r6, #4
    61de:	4022      	ands	r2, r4
    61e0:	18c9      	adds	r1, r1, r3
    61e2:	18ed      	adds	r5, r5, r3
    61e4:	2a00      	cmp	r2, #0
    61e6:	d005      	beq.n	61f4 <memcpy+0x78>
    61e8:	2300      	movs	r3, #0
    61ea:	5ccc      	ldrb	r4, [r1, r3]
    61ec:	54ec      	strb	r4, [r5, r3]
    61ee:	3301      	adds	r3, #1
    61f0:	4293      	cmp	r3, r2
    61f2:	d1fa      	bne.n	61ea <memcpy+0x6e>
    61f4:	bdf0      	pop	{r4, r5, r6, r7, pc}
    61f6:	0005      	movs	r5, r0
    61f8:	e7f6      	b.n	61e8 <memcpy+0x6c>
    61fa:	001a      	movs	r2, r3
    61fc:	e7f2      	b.n	61e4 <memcpy+0x68>
    61fe:	46c0      	nop			; (mov r8, r8)

00006200 <memset>:
    6200:	b5f0      	push	{r4, r5, r6, r7, lr}
    6202:	0783      	lsls	r3, r0, #30
    6204:	d043      	beq.n	628e <memset+0x8e>
    6206:	1e54      	subs	r4, r2, #1
    6208:	2a00      	cmp	r2, #0
    620a:	d03f      	beq.n	628c <memset+0x8c>
    620c:	b2ce      	uxtb	r6, r1
    620e:	0002      	movs	r2, r0
    6210:	2503      	movs	r5, #3
    6212:	e002      	b.n	621a <memset+0x1a>
    6214:	001a      	movs	r2, r3
    6216:	3c01      	subs	r4, #1
    6218:	d338      	bcc.n	628c <memset+0x8c>
    621a:	1c53      	adds	r3, r2, #1
    621c:	7016      	strb	r6, [r2, #0]
    621e:	422b      	tst	r3, r5
    6220:	d1f8      	bne.n	6214 <memset+0x14>
    6222:	2c03      	cmp	r4, #3
    6224:	d92a      	bls.n	627c <memset+0x7c>
    6226:	22ff      	movs	r2, #255	; 0xff
    6228:	400a      	ands	r2, r1
    622a:	0215      	lsls	r5, r2, #8
    622c:	4315      	orrs	r5, r2
    622e:	042a      	lsls	r2, r5, #16
    6230:	4315      	orrs	r5, r2
    6232:	2c0f      	cmp	r4, #15
    6234:	d914      	bls.n	6260 <memset+0x60>
    6236:	0027      	movs	r7, r4
    6238:	001a      	movs	r2, r3
    623a:	3f10      	subs	r7, #16
    623c:	093e      	lsrs	r6, r7, #4
    623e:	3601      	adds	r6, #1
    6240:	0136      	lsls	r6, r6, #4
    6242:	199e      	adds	r6, r3, r6
    6244:	6015      	str	r5, [r2, #0]
    6246:	6055      	str	r5, [r2, #4]
    6248:	6095      	str	r5, [r2, #8]
    624a:	60d5      	str	r5, [r2, #12]
    624c:	3210      	adds	r2, #16
    624e:	4296      	cmp	r6, r2
    6250:	d1f8      	bne.n	6244 <memset+0x44>
    6252:	220f      	movs	r2, #15
    6254:	4397      	bics	r7, r2
    6256:	3710      	adds	r7, #16
    6258:	19db      	adds	r3, r3, r7
    625a:	4014      	ands	r4, r2
    625c:	2c03      	cmp	r4, #3
    625e:	d90d      	bls.n	627c <memset+0x7c>
    6260:	001a      	movs	r2, r3
    6262:	1f27      	subs	r7, r4, #4
    6264:	08be      	lsrs	r6, r7, #2
    6266:	3601      	adds	r6, #1
    6268:	00b6      	lsls	r6, r6, #2
    626a:	199e      	adds	r6, r3, r6
    626c:	c220      	stmia	r2!, {r5}
    626e:	42b2      	cmp	r2, r6
    6270:	d1fc      	bne.n	626c <memset+0x6c>
    6272:	2203      	movs	r2, #3
    6274:	4397      	bics	r7, r2
    6276:	3704      	adds	r7, #4
    6278:	19db      	adds	r3, r3, r7
    627a:	4014      	ands	r4, r2
    627c:	2c00      	cmp	r4, #0
    627e:	d005      	beq.n	628c <memset+0x8c>
    6280:	b2c9      	uxtb	r1, r1
    6282:	191c      	adds	r4, r3, r4
    6284:	7019      	strb	r1, [r3, #0]
    6286:	3301      	adds	r3, #1
    6288:	429c      	cmp	r4, r3
    628a:	d1fb      	bne.n	6284 <memset+0x84>
    628c:	bdf0      	pop	{r4, r5, r6, r7, pc}
    628e:	0014      	movs	r4, r2
    6290:	0003      	movs	r3, r0
    6292:	e7c6      	b.n	6222 <memset+0x22>

00006294 <sprintf>:
    6294:	b40e      	push	{r1, r2, r3}
    6296:	b510      	push	{r4, lr}
    6298:	b09d      	sub	sp, #116	; 0x74
    629a:	a902      	add	r1, sp, #8
    629c:	9002      	str	r0, [sp, #8]
    629e:	6108      	str	r0, [r1, #16]
    62a0:	480b      	ldr	r0, [pc, #44]	; (62d0 <sprintf+0x3c>)
    62a2:	2482      	movs	r4, #130	; 0x82
    62a4:	6088      	str	r0, [r1, #8]
    62a6:	6148      	str	r0, [r1, #20]
    62a8:	2001      	movs	r0, #1
    62aa:	4240      	negs	r0, r0
    62ac:	ab1f      	add	r3, sp, #124	; 0x7c
    62ae:	81c8      	strh	r0, [r1, #14]
    62b0:	4808      	ldr	r0, [pc, #32]	; (62d4 <sprintf+0x40>)
    62b2:	cb04      	ldmia	r3!, {r2}
    62b4:	00a4      	lsls	r4, r4, #2
    62b6:	6800      	ldr	r0, [r0, #0]
    62b8:	9301      	str	r3, [sp, #4]
    62ba:	818c      	strh	r4, [r1, #12]
    62bc:	f000 f80c 	bl	62d8 <_svfprintf_r>
    62c0:	2300      	movs	r3, #0
    62c2:	9a02      	ldr	r2, [sp, #8]
    62c4:	7013      	strb	r3, [r2, #0]
    62c6:	b01d      	add	sp, #116	; 0x74
    62c8:	bc10      	pop	{r4}
    62ca:	bc08      	pop	{r3}
    62cc:	b003      	add	sp, #12
    62ce:	4718      	bx	r3
    62d0:	7fffffff 	.word	0x7fffffff
    62d4:	2000001c 	.word	0x2000001c

000062d8 <_svfprintf_r>:
    62d8:	b5f0      	push	{r4, r5, r6, r7, lr}
    62da:	46de      	mov	lr, fp
    62dc:	4645      	mov	r5, r8
    62de:	4657      	mov	r7, sl
    62e0:	464e      	mov	r6, r9
    62e2:	b5e0      	push	{r5, r6, r7, lr}
    62e4:	b0c3      	sub	sp, #268	; 0x10c
    62e6:	000d      	movs	r5, r1
    62e8:	9106      	str	r1, [sp, #24]
    62ea:	0014      	movs	r4, r2
    62ec:	930f      	str	r3, [sp, #60]	; 0x3c
    62ee:	9009      	str	r0, [sp, #36]	; 0x24
    62f0:	f002 fcc0 	bl	8c74 <_localeconv_r>
    62f4:	6803      	ldr	r3, [r0, #0]
    62f6:	0018      	movs	r0, r3
    62f8:	9319      	str	r3, [sp, #100]	; 0x64
    62fa:	f003 fb2b 	bl	9954 <strlen>
    62fe:	9018      	str	r0, [sp, #96]	; 0x60
    6300:	89ab      	ldrh	r3, [r5, #12]
    6302:	061b      	lsls	r3, r3, #24
    6304:	d505      	bpl.n	6312 <_svfprintf_r+0x3a>
    6306:	692b      	ldr	r3, [r5, #16]
    6308:	9307      	str	r3, [sp, #28]
    630a:	2b00      	cmp	r3, #0
    630c:	d101      	bne.n	6312 <_svfprintf_r+0x3a>
    630e:	f001 f863 	bl	73d8 <_svfprintf_r+0x1100>
    6312:	ab32      	add	r3, sp, #200	; 0xc8
    6314:	9325      	str	r3, [sp, #148]	; 0x94
    6316:	2300      	movs	r3, #0
    6318:	46a3      	mov	fp, r4
    631a:	af25      	add	r7, sp, #148	; 0x94
    631c:	60bb      	str	r3, [r7, #8]
    631e:	607b      	str	r3, [r7, #4]
    6320:	9314      	str	r3, [sp, #80]	; 0x50
    6322:	9316      	str	r3, [sp, #88]	; 0x58
    6324:	9315      	str	r3, [sp, #84]	; 0x54
    6326:	ae32      	add	r6, sp, #200	; 0xc8
    6328:	9317      	str	r3, [sp, #92]	; 0x5c
    632a:	931a      	str	r3, [sp, #104]	; 0x68
    632c:	930a      	str	r3, [sp, #40]	; 0x28
    632e:	465b      	mov	r3, fp
    6330:	781b      	ldrb	r3, [r3, #0]
    6332:	465c      	mov	r4, fp
    6334:	2b00      	cmp	r3, #0
    6336:	d01c      	beq.n	6372 <_svfprintf_r+0x9a>
    6338:	2b25      	cmp	r3, #37	; 0x25
    633a:	d102      	bne.n	6342 <_svfprintf_r+0x6a>
    633c:	e019      	b.n	6372 <_svfprintf_r+0x9a>
    633e:	2b25      	cmp	r3, #37	; 0x25
    6340:	d003      	beq.n	634a <_svfprintf_r+0x72>
    6342:	3401      	adds	r4, #1
    6344:	7823      	ldrb	r3, [r4, #0]
    6346:	2b00      	cmp	r3, #0
    6348:	d1f9      	bne.n	633e <_svfprintf_r+0x66>
    634a:	465b      	mov	r3, fp
    634c:	1ae5      	subs	r5, r4, r3
    634e:	d010      	beq.n	6372 <_svfprintf_r+0x9a>
    6350:	465b      	mov	r3, fp
    6352:	6033      	str	r3, [r6, #0]
    6354:	68bb      	ldr	r3, [r7, #8]
    6356:	6075      	str	r5, [r6, #4]
    6358:	195b      	adds	r3, r3, r5
    635a:	60bb      	str	r3, [r7, #8]
    635c:	687b      	ldr	r3, [r7, #4]
    635e:	3301      	adds	r3, #1
    6360:	607b      	str	r3, [r7, #4]
    6362:	2b07      	cmp	r3, #7
    6364:	dc2e      	bgt.n	63c4 <_svfprintf_r+0xec>
    6366:	3608      	adds	r6, #8
    6368:	9b0a      	ldr	r3, [sp, #40]	; 0x28
    636a:	469c      	mov	ip, r3
    636c:	44ac      	add	ip, r5
    636e:	4663      	mov	r3, ip
    6370:	930a      	str	r3, [sp, #40]	; 0x28
    6372:	7823      	ldrb	r3, [r4, #0]
    6374:	2b00      	cmp	r3, #0
    6376:	d02e      	beq.n	63d6 <_svfprintf_r+0xfe>
    6378:	1c63      	adds	r3, r4, #1
    637a:	469b      	mov	fp, r3
    637c:	2300      	movs	r3, #0
    637e:	aa16      	add	r2, sp, #88	; 0x58
    6380:	77d3      	strb	r3, [r2, #31]
    6382:	2201      	movs	r2, #1
    6384:	4252      	negs	r2, r2
    6386:	4692      	mov	sl, r2
    6388:	2200      	movs	r2, #0
    638a:	2100      	movs	r1, #0
    638c:	920b      	str	r2, [sp, #44]	; 0x2c
    638e:	3220      	adds	r2, #32
    6390:	4691      	mov	r9, r2
    6392:	3220      	adds	r2, #32
    6394:	7863      	ldrb	r3, [r4, #1]
    6396:	4688      	mov	r8, r1
    6398:	2000      	movs	r0, #0
    639a:	2400      	movs	r4, #0
    639c:	4694      	mov	ip, r2
    639e:	4659      	mov	r1, fp
    63a0:	3101      	adds	r1, #1
    63a2:	001a      	movs	r2, r3
    63a4:	3a20      	subs	r2, #32
    63a6:	2a58      	cmp	r2, #88	; 0x58
    63a8:	d900      	bls.n	63ac <_svfprintf_r+0xd4>
    63aa:	e2fd      	b.n	69a8 <_svfprintf_r+0x6d0>
    63ac:	4dd7      	ldr	r5, [pc, #860]	; (670c <_svfprintf_r+0x434>)
    63ae:	0092      	lsls	r2, r2, #2
    63b0:	58aa      	ldr	r2, [r5, r2]
    63b2:	4697      	mov	pc, r2
    63b4:	9b0b      	ldr	r3, [sp, #44]	; 0x2c
    63b6:	920f      	str	r2, [sp, #60]	; 0x3c
    63b8:	425b      	negs	r3, r3
    63ba:	930b      	str	r3, [sp, #44]	; 0x2c
    63bc:	2304      	movs	r3, #4
    63be:	431c      	orrs	r4, r3
    63c0:	780b      	ldrb	r3, [r1, #0]
    63c2:	e7ed      	b.n	63a0 <_svfprintf_r+0xc8>
    63c4:	003a      	movs	r2, r7
    63c6:	9906      	ldr	r1, [sp, #24]
    63c8:	9809      	ldr	r0, [sp, #36]	; 0x24
    63ca:	f003 faf5 	bl	99b8 <__ssprint_r>
    63ce:	2800      	cmp	r0, #0
    63d0:	d109      	bne.n	63e6 <_svfprintf_r+0x10e>
    63d2:	ae32      	add	r6, sp, #200	; 0xc8
    63d4:	e7c8      	b.n	6368 <_svfprintf_r+0x90>
    63d6:	68bb      	ldr	r3, [r7, #8]
    63d8:	2b00      	cmp	r3, #0
    63da:	d004      	beq.n	63e6 <_svfprintf_r+0x10e>
    63dc:	003a      	movs	r2, r7
    63de:	9906      	ldr	r1, [sp, #24]
    63e0:	9809      	ldr	r0, [sp, #36]	; 0x24
    63e2:	f003 fae9 	bl	99b8 <__ssprint_r>
    63e6:	9b06      	ldr	r3, [sp, #24]
    63e8:	899b      	ldrh	r3, [r3, #12]
    63ea:	065b      	lsls	r3, r3, #25
    63ec:	d501      	bpl.n	63f2 <_svfprintf_r+0x11a>
    63ee:	f001 f8ce 	bl	758e <_svfprintf_r+0x12b6>
    63f2:	980a      	ldr	r0, [sp, #40]	; 0x28
    63f4:	b043      	add	sp, #268	; 0x10c
    63f6:	bc3c      	pop	{r2, r3, r4, r5}
    63f8:	4690      	mov	r8, r2
    63fa:	4699      	mov	r9, r3
    63fc:	46a2      	mov	sl, r4
    63fe:	46ab      	mov	fp, r5
    6400:	bdf0      	pop	{r4, r5, r6, r7, pc}
    6402:	2201      	movs	r2, #1
    6404:	780b      	ldrb	r3, [r1, #0]
    6406:	4690      	mov	r8, r2
    6408:	202b      	movs	r0, #43	; 0x2b
    640a:	e7c9      	b.n	63a0 <_svfprintf_r+0xc8>
    640c:	1c4b      	adds	r3, r1, #1
    640e:	469b      	mov	fp, r3
    6410:	780b      	ldrb	r3, [r1, #0]
    6412:	2b2a      	cmp	r3, #42	; 0x2a
    6414:	d101      	bne.n	641a <_svfprintf_r+0x142>
    6416:	f001 fa1b 	bl	7850 <_svfprintf_r+0x1578>
    641a:	001a      	movs	r2, r3
    641c:	2100      	movs	r1, #0
    641e:	3a30      	subs	r2, #48	; 0x30
    6420:	468a      	mov	sl, r1
    6422:	4659      	mov	r1, fp
    6424:	2a09      	cmp	r2, #9
    6426:	d8bc      	bhi.n	63a2 <_svfprintf_r+0xca>
    6428:	0003      	movs	r3, r0
    642a:	0011      	movs	r1, r2
    642c:	4650      	mov	r0, sl
    642e:	465a      	mov	r2, fp
    6430:	469a      	mov	sl, r3
    6432:	46a3      	mov	fp, r4
    6434:	0083      	lsls	r3, r0, #2
    6436:	181b      	adds	r3, r3, r0
    6438:	7814      	ldrb	r4, [r2, #0]
    643a:	005b      	lsls	r3, r3, #1
    643c:	1858      	adds	r0, r3, r1
    643e:	0021      	movs	r1, r4
    6440:	1c53      	adds	r3, r2, #1
    6442:	3930      	subs	r1, #48	; 0x30
    6444:	001a      	movs	r2, r3
    6446:	2909      	cmp	r1, #9
    6448:	d9f4      	bls.n	6434 <_svfprintf_r+0x15c>
    644a:	4652      	mov	r2, sl
    644c:	0019      	movs	r1, r3
    644e:	4682      	mov	sl, r0
    6450:	0023      	movs	r3, r4
    6452:	0010      	movs	r0, r2
    6454:	465c      	mov	r4, fp
    6456:	e7a4      	b.n	63a2 <_svfprintf_r+0xca>
    6458:	2380      	movs	r3, #128	; 0x80
    645a:	431c      	orrs	r4, r3
    645c:	780b      	ldrb	r3, [r1, #0]
    645e:	e79f      	b.n	63a0 <_svfprintf_r+0xc8>
    6460:	468b      	mov	fp, r1
    6462:	4641      	mov	r1, r8
    6464:	9312      	str	r3, [sp, #72]	; 0x48
    6466:	2900      	cmp	r1, #0
    6468:	d001      	beq.n	646e <_svfprintf_r+0x196>
    646a:	f001 fa1f 	bl	78ac <_svfprintf_r+0x15d4>
    646e:	2310      	movs	r3, #16
    6470:	431c      	orrs	r4, r3
    6472:	9a0f      	ldr	r2, [sp, #60]	; 0x3c
    6474:	06a3      	lsls	r3, r4, #26
    6476:	d501      	bpl.n	647c <_svfprintf_r+0x1a4>
    6478:	f000 fe88 	bl	718c <_svfprintf_r+0xeb4>
    647c:	06e3      	lsls	r3, r4, #27
    647e:	d501      	bpl.n	6484 <_svfprintf_r+0x1ac>
    6480:	f000 fd80 	bl	6f84 <_svfprintf_r+0xcac>
    6484:	0663      	lsls	r3, r4, #25
    6486:	d401      	bmi.n	648c <_svfprintf_r+0x1b4>
    6488:	f000 fd7c 	bl	6f84 <_svfprintf_r+0xcac>
    648c:	2100      	movs	r1, #0
    648e:	5e53      	ldrsh	r3, [r2, r1]
    6490:	930c      	str	r3, [sp, #48]	; 0x30
    6492:	3204      	adds	r2, #4
    6494:	17db      	asrs	r3, r3, #31
    6496:	930d      	str	r3, [sp, #52]	; 0x34
    6498:	920f      	str	r2, [sp, #60]	; 0x3c
    649a:	d501      	bpl.n	64a0 <_svfprintf_r+0x1c8>
    649c:	f000 fe86 	bl	71ac <_svfprintf_r+0xed4>
    64a0:	990c      	ldr	r1, [sp, #48]	; 0x30
    64a2:	9a0d      	ldr	r2, [sp, #52]	; 0x34
    64a4:	0008      	movs	r0, r1
    64a6:	ab16      	add	r3, sp, #88	; 0x58
    64a8:	7fdb      	ldrb	r3, [r3, #31]
    64aa:	4310      	orrs	r0, r2
    64ac:	4698      	mov	r8, r3
    64ae:	0002      	movs	r2, r0
    64b0:	2301      	movs	r3, #1
    64b2:	4651      	mov	r1, sl
    64b4:	3101      	adds	r1, #1
    64b6:	d100      	bne.n	64ba <_svfprintf_r+0x1e2>
    64b8:	e0ff      	b.n	66ba <_svfprintf_r+0x3e2>
    64ba:	2180      	movs	r1, #128	; 0x80
    64bc:	0020      	movs	r0, r4
    64be:	4388      	bics	r0, r1
    64c0:	9008      	str	r0, [sp, #32]
    64c2:	2a00      	cmp	r2, #0
    64c4:	d000      	beq.n	64c8 <_svfprintf_r+0x1f0>
    64c6:	e0fc      	b.n	66c2 <_svfprintf_r+0x3ea>
    64c8:	4652      	mov	r2, sl
    64ca:	2a00      	cmp	r2, #0
    64cc:	d001      	beq.n	64d2 <_svfprintf_r+0x1fa>
    64ce:	f000 fc2c 	bl	6d2a <_svfprintf_r+0xa52>
    64d2:	2b00      	cmp	r3, #0
    64d4:	d001      	beq.n	64da <_svfprintf_r+0x202>
    64d6:	f000 fd04 	bl	6ee2 <_svfprintf_r+0xc0a>
    64da:	2001      	movs	r0, #1
    64dc:	ab32      	add	r3, sp, #200	; 0xc8
    64de:	4020      	ands	r0, r4
    64e0:	900e      	str	r0, [sp, #56]	; 0x38
    64e2:	9311      	str	r3, [sp, #68]	; 0x44
    64e4:	d008      	beq.n	64f8 <_svfprintf_r+0x220>
    64e6:	2327      	movs	r3, #39	; 0x27
    64e8:	2130      	movs	r1, #48	; 0x30
    64ea:	aa28      	add	r2, sp, #160	; 0xa0
    64ec:	54d1      	strb	r1, [r2, r3]
    64ee:	aa16      	add	r2, sp, #88	; 0x58
    64f0:	4694      	mov	ip, r2
    64f2:	3348      	adds	r3, #72	; 0x48
    64f4:	4463      	add	r3, ip
    64f6:	9311      	str	r3, [sp, #68]	; 0x44
    64f8:	4653      	mov	r3, sl
    64fa:	9a0e      	ldr	r2, [sp, #56]	; 0x38
    64fc:	9307      	str	r3, [sp, #28]
    64fe:	4592      	cmp	sl, r2
    6500:	da00      	bge.n	6504 <_svfprintf_r+0x22c>
    6502:	9207      	str	r2, [sp, #28]
    6504:	2300      	movs	r3, #0
    6506:	9313      	str	r3, [sp, #76]	; 0x4c
    6508:	4643      	mov	r3, r8
    650a:	2b00      	cmp	r3, #0
    650c:	d002      	beq.n	6514 <_svfprintf_r+0x23c>
    650e:	9b07      	ldr	r3, [sp, #28]
    6510:	3301      	adds	r3, #1
    6512:	9307      	str	r3, [sp, #28]
    6514:	2302      	movs	r3, #2
    6516:	9a08      	ldr	r2, [sp, #32]
    6518:	401a      	ands	r2, r3
    651a:	4691      	mov	r9, r2
    651c:	d002      	beq.n	6524 <_svfprintf_r+0x24c>
    651e:	9b07      	ldr	r3, [sp, #28]
    6520:	3302      	adds	r3, #2
    6522:	9307      	str	r3, [sp, #28]
    6524:	2384      	movs	r3, #132	; 0x84
    6526:	9a08      	ldr	r2, [sp, #32]
    6528:	401a      	ands	r2, r3
    652a:	9210      	str	r2, [sp, #64]	; 0x40
    652c:	d000      	beq.n	6530 <_svfprintf_r+0x258>
    652e:	e24d      	b.n	69cc <_svfprintf_r+0x6f4>
    6530:	9b0b      	ldr	r3, [sp, #44]	; 0x2c
    6532:	9a07      	ldr	r2, [sp, #28]
    6534:	1a9c      	subs	r4, r3, r2
    6536:	2c00      	cmp	r4, #0
    6538:	dc00      	bgt.n	653c <_svfprintf_r+0x264>
    653a:	e247      	b.n	69cc <_svfprintf_r+0x6f4>
    653c:	4974      	ldr	r1, [pc, #464]	; (6710 <_svfprintf_r+0x438>)
    653e:	68ba      	ldr	r2, [r7, #8]
    6540:	687b      	ldr	r3, [r7, #4]
    6542:	4688      	mov	r8, r1
    6544:	2c10      	cmp	r4, #16
    6546:	dd1f      	ble.n	6588 <_svfprintf_r+0x2b0>
    6548:	0031      	movs	r1, r6
    654a:	2510      	movs	r5, #16
    654c:	4646      	mov	r6, r8
    654e:	e003      	b.n	6558 <_svfprintf_r+0x280>
    6550:	3c10      	subs	r4, #16
    6552:	3108      	adds	r1, #8
    6554:	2c10      	cmp	r4, #16
    6556:	dd15      	ble.n	6584 <_svfprintf_r+0x2ac>
    6558:	3210      	adds	r2, #16
    655a:	3301      	adds	r3, #1
    655c:	600e      	str	r6, [r1, #0]
    655e:	604d      	str	r5, [r1, #4]
    6560:	60ba      	str	r2, [r7, #8]
    6562:	607b      	str	r3, [r7, #4]
    6564:	2b07      	cmp	r3, #7
    6566:	ddf3      	ble.n	6550 <_svfprintf_r+0x278>
    6568:	003a      	movs	r2, r7
    656a:	9906      	ldr	r1, [sp, #24]
    656c:	9809      	ldr	r0, [sp, #36]	; 0x24
    656e:	f003 fa23 	bl	99b8 <__ssprint_r>
    6572:	2800      	cmp	r0, #0
    6574:	d000      	beq.n	6578 <_svfprintf_r+0x2a0>
    6576:	e736      	b.n	63e6 <_svfprintf_r+0x10e>
    6578:	3c10      	subs	r4, #16
    657a:	68ba      	ldr	r2, [r7, #8]
    657c:	687b      	ldr	r3, [r7, #4]
    657e:	a932      	add	r1, sp, #200	; 0xc8
    6580:	2c10      	cmp	r4, #16
    6582:	dce9      	bgt.n	6558 <_svfprintf_r+0x280>
    6584:	46b0      	mov	r8, r6
    6586:	000e      	movs	r6, r1
    6588:	4641      	mov	r1, r8
    658a:	6074      	str	r4, [r6, #4]
    658c:	3301      	adds	r3, #1
    658e:	18a4      	adds	r4, r4, r2
    6590:	6031      	str	r1, [r6, #0]
    6592:	60bc      	str	r4, [r7, #8]
    6594:	607b      	str	r3, [r7, #4]
    6596:	2b07      	cmp	r3, #7
    6598:	dd01      	ble.n	659e <_svfprintf_r+0x2c6>
    659a:	f000 fca8 	bl	6eee <_svfprintf_r+0xc16>
    659e:	ab16      	add	r3, sp, #88	; 0x58
    65a0:	7fdb      	ldrb	r3, [r3, #31]
    65a2:	3608      	adds	r6, #8
    65a4:	4698      	mov	r8, r3
    65a6:	e212      	b.n	69ce <_svfprintf_r+0x6f6>
    65a8:	468b      	mov	fp, r1
    65aa:	4641      	mov	r1, r8
    65ac:	9312      	str	r3, [sp, #72]	; 0x48
    65ae:	2900      	cmp	r1, #0
    65b0:	d001      	beq.n	65b6 <_svfprintf_r+0x2de>
    65b2:	f001 f977 	bl	78a4 <_svfprintf_r+0x15cc>
    65b6:	2207      	movs	r2, #7
    65b8:	9b0f      	ldr	r3, [sp, #60]	; 0x3c
    65ba:	3307      	adds	r3, #7
    65bc:	4393      	bics	r3, r2
    65be:	3201      	adds	r2, #1
    65c0:	4694      	mov	ip, r2
    65c2:	449c      	add	ip, r3
    65c4:	4662      	mov	r2, ip
    65c6:	920f      	str	r2, [sp, #60]	; 0x3c
    65c8:	681a      	ldr	r2, [r3, #0]
    65ca:	9216      	str	r2, [sp, #88]	; 0x58
    65cc:	685b      	ldr	r3, [r3, #4]
    65ce:	2201      	movs	r2, #1
    65d0:	9315      	str	r3, [sp, #84]	; 0x54
    65d2:	9b15      	ldr	r3, [sp, #84]	; 0x54
    65d4:	9d16      	ldr	r5, [sp, #88]	; 0x58
    65d6:	005b      	lsls	r3, r3, #1
    65d8:	085b      	lsrs	r3, r3, #1
    65da:	4698      	mov	r8, r3
    65dc:	4252      	negs	r2, r2
    65de:	4b4d      	ldr	r3, [pc, #308]	; (6714 <_svfprintf_r+0x43c>)
    65e0:	0028      	movs	r0, r5
    65e2:	4641      	mov	r1, r8
    65e4:	f004 f860 	bl	a6a8 <__aeabi_dcmpun>
    65e8:	2800      	cmp	r0, #0
    65ea:	d001      	beq.n	65f0 <_svfprintf_r+0x318>
    65ec:	f000 fdfd 	bl	71ea <_svfprintf_r+0xf12>
    65f0:	2201      	movs	r2, #1
    65f2:	4b48      	ldr	r3, [pc, #288]	; (6714 <_svfprintf_r+0x43c>)
    65f4:	4252      	negs	r2, r2
    65f6:	0028      	movs	r0, r5
    65f8:	4641      	mov	r1, r8
    65fa:	f7ff fc33 	bl	5e64 <__aeabi_dcmple>
    65fe:	2800      	cmp	r0, #0
    6600:	d001      	beq.n	6606 <_svfprintf_r+0x32e>
    6602:	f000 fdf2 	bl	71ea <_svfprintf_r+0xf12>
    6606:	2200      	movs	r2, #0
    6608:	2300      	movs	r3, #0
    660a:	9816      	ldr	r0, [sp, #88]	; 0x58
    660c:	9915      	ldr	r1, [sp, #84]	; 0x54
    660e:	f7ff fc1f 	bl	5e50 <__aeabi_dcmplt>
    6612:	2800      	cmp	r0, #0
    6614:	d001      	beq.n	661a <_svfprintf_r+0x342>
    6616:	f001 f822 	bl	765e <_svfprintf_r+0x1386>
    661a:	ab16      	add	r3, sp, #88	; 0x58
    661c:	7fdb      	ldrb	r3, [r3, #31]
    661e:	4698      	mov	r8, r3
    6620:	9b12      	ldr	r3, [sp, #72]	; 0x48
    6622:	2b47      	cmp	r3, #71	; 0x47
    6624:	dd01      	ble.n	662a <_svfprintf_r+0x352>
    6626:	f000 fec7 	bl	73b8 <_svfprintf_r+0x10e0>
    662a:	4b3b      	ldr	r3, [pc, #236]	; (6718 <_svfprintf_r+0x440>)
    662c:	9311      	str	r3, [sp, #68]	; 0x44
    662e:	2380      	movs	r3, #128	; 0x80
    6630:	439c      	bics	r4, r3
    6632:	3b7d      	subs	r3, #125	; 0x7d
    6634:	9307      	str	r3, [sp, #28]
    6636:	930e      	str	r3, [sp, #56]	; 0x38
    6638:	2300      	movs	r3, #0
    663a:	9408      	str	r4, [sp, #32]
    663c:	469a      	mov	sl, r3
    663e:	9313      	str	r3, [sp, #76]	; 0x4c
    6640:	e762      	b.n	6508 <_svfprintf_r+0x230>
    6642:	2200      	movs	r2, #0
    6644:	3b30      	subs	r3, #48	; 0x30
    6646:	0015      	movs	r5, r2
    6648:	001a      	movs	r2, r3
    664a:	0003      	movs	r3, r0
    664c:	9407      	str	r4, [sp, #28]
    664e:	0008      	movs	r0, r1
    6650:	002c      	movs	r4, r5
    6652:	469b      	mov	fp, r3
    6654:	00a3      	lsls	r3, r4, #2
    6656:	191c      	adds	r4, r3, r4
    6658:	7803      	ldrb	r3, [r0, #0]
    665a:	0064      	lsls	r4, r4, #1
    665c:	1914      	adds	r4, r2, r4
    665e:	001a      	movs	r2, r3
    6660:	3101      	adds	r1, #1
    6662:	3a30      	subs	r2, #48	; 0x30
    6664:	0008      	movs	r0, r1
    6666:	2a09      	cmp	r2, #9
    6668:	d9f4      	bls.n	6654 <_svfprintf_r+0x37c>
    666a:	940b      	str	r4, [sp, #44]	; 0x2c
    666c:	4658      	mov	r0, fp
    666e:	9c07      	ldr	r4, [sp, #28]
    6670:	e697      	b.n	63a2 <_svfprintf_r+0xca>
    6672:	2308      	movs	r3, #8
    6674:	431c      	orrs	r4, r3
    6676:	780b      	ldrb	r3, [r1, #0]
    6678:	e692      	b.n	63a0 <_svfprintf_r+0xc8>
    667a:	9312      	str	r3, [sp, #72]	; 0x48
    667c:	2310      	movs	r3, #16
    667e:	431c      	orrs	r4, r3
    6680:	468b      	mov	fp, r1
    6682:	06a3      	lsls	r3, r4, #26
    6684:	d500      	bpl.n	6688 <_svfprintf_r+0x3b0>
    6686:	e17b      	b.n	6980 <_svfprintf_r+0x6a8>
    6688:	06e3      	lsls	r3, r4, #27
    668a:	d501      	bpl.n	6690 <_svfprintf_r+0x3b8>
    668c:	f000 fc7e 	bl	6f8c <_svfprintf_r+0xcb4>
    6690:	0663      	lsls	r3, r4, #25
    6692:	d401      	bmi.n	6698 <_svfprintf_r+0x3c0>
    6694:	f000 fc7a 	bl	6f8c <_svfprintf_r+0xcb4>
    6698:	9b0f      	ldr	r3, [sp, #60]	; 0x3c
    669a:	881a      	ldrh	r2, [r3, #0]
    669c:	920c      	str	r2, [sp, #48]	; 0x30
    669e:	2200      	movs	r2, #0
    66a0:	3304      	adds	r3, #4
    66a2:	930f      	str	r3, [sp, #60]	; 0x3c
    66a4:	2300      	movs	r3, #0
    66a6:	920d      	str	r2, [sp, #52]	; 0x34
    66a8:	9a0c      	ldr	r2, [sp, #48]	; 0x30
    66aa:	2100      	movs	r1, #0
    66ac:	a816      	add	r0, sp, #88	; 0x58
    66ae:	77c1      	strb	r1, [r0, #31]
    66b0:	4688      	mov	r8, r1
    66b2:	4651      	mov	r1, sl
    66b4:	3101      	adds	r1, #1
    66b6:	d000      	beq.n	66ba <_svfprintf_r+0x3e2>
    66b8:	e6ff      	b.n	64ba <_svfprintf_r+0x1e2>
    66ba:	2a00      	cmp	r2, #0
    66bc:	d100      	bne.n	66c0 <_svfprintf_r+0x3e8>
    66be:	e335      	b.n	6d2c <_svfprintf_r+0xa54>
    66c0:	9408      	str	r4, [sp, #32]
    66c2:	2b01      	cmp	r3, #1
    66c4:	d100      	bne.n	66c8 <_svfprintf_r+0x3f0>
    66c6:	e3e5      	b.n	6e94 <_svfprintf_r+0xbbc>
    66c8:	2b02      	cmp	r3, #2
    66ca:	d000      	beq.n	66ce <_svfprintf_r+0x3f6>
    66cc:	e362      	b.n	6d94 <_svfprintf_r+0xabc>
    66ce:	9c17      	ldr	r4, [sp, #92]	; 0x5c
    66d0:	200f      	movs	r0, #15
    66d2:	46a1      	mov	r9, r4
    66d4:	46b4      	mov	ip, r6
    66d6:	ab32      	add	r3, sp, #200	; 0xc8
    66d8:	0019      	movs	r1, r3
    66da:	9a0c      	ldr	r2, [sp, #48]	; 0x30
    66dc:	9b0d      	ldr	r3, [sp, #52]	; 0x34
    66de:	0004      	movs	r4, r0
    66e0:	464d      	mov	r5, r9
    66e2:	4014      	ands	r4, r2
    66e4:	5d2c      	ldrb	r4, [r5, r4]
    66e6:	071e      	lsls	r6, r3, #28
    66e8:	0915      	lsrs	r5, r2, #4
    66ea:	3901      	subs	r1, #1
    66ec:	432e      	orrs	r6, r5
    66ee:	700c      	strb	r4, [r1, #0]
    66f0:	091c      	lsrs	r4, r3, #4
    66f2:	0023      	movs	r3, r4
    66f4:	0034      	movs	r4, r6
    66f6:	0032      	movs	r2, r6
    66f8:	431c      	orrs	r4, r3
    66fa:	d1f0      	bne.n	66de <_svfprintf_r+0x406>
    66fc:	920c      	str	r2, [sp, #48]	; 0x30
    66fe:	930d      	str	r3, [sp, #52]	; 0x34
    6700:	ab32      	add	r3, sp, #200	; 0xc8
    6702:	1a5b      	subs	r3, r3, r1
    6704:	9111      	str	r1, [sp, #68]	; 0x44
    6706:	4666      	mov	r6, ip
    6708:	930e      	str	r3, [sp, #56]	; 0x38
    670a:	e6f5      	b.n	64f8 <_svfprintf_r+0x220>
    670c:	0000b284 	.word	0x0000b284
    6710:	0000b42c 	.word	0x0000b42c
    6714:	7fefffff 	.word	0x7fefffff
    6718:	0000b3e8 	.word	0x0000b3e8
    671c:	9312      	str	r3, [sp, #72]	; 0x48
    671e:	2310      	movs	r3, #16
    6720:	431c      	orrs	r4, r3
    6722:	468b      	mov	fp, r1
    6724:	06a3      	lsls	r3, r4, #26
    6726:	d500      	bpl.n	672a <_svfprintf_r+0x452>
    6728:	e111      	b.n	694e <_svfprintf_r+0x676>
    672a:	06e3      	lsls	r3, r4, #27
    672c:	d501      	bpl.n	6732 <_svfprintf_r+0x45a>
    672e:	f000 fc31 	bl	6f94 <_svfprintf_r+0xcbc>
    6732:	0663      	lsls	r3, r4, #25
    6734:	d401      	bmi.n	673a <_svfprintf_r+0x462>
    6736:	f000 fc2d 	bl	6f94 <_svfprintf_r+0xcbc>
    673a:	9b0f      	ldr	r3, [sp, #60]	; 0x3c
    673c:	881a      	ldrh	r2, [r3, #0]
    673e:	920c      	str	r2, [sp, #48]	; 0x30
    6740:	2200      	movs	r2, #0
    6742:	3304      	adds	r3, #4
    6744:	920d      	str	r2, [sp, #52]	; 0x34
    6746:	930f      	str	r3, [sp, #60]	; 0x3c
    6748:	9a0c      	ldr	r2, [sp, #48]	; 0x30
    674a:	2301      	movs	r3, #1
    674c:	e7ad      	b.n	66aa <_svfprintf_r+0x3d2>
    674e:	468b      	mov	fp, r1
    6750:	4641      	mov	r1, r8
    6752:	9312      	str	r3, [sp, #72]	; 0x48
    6754:	2900      	cmp	r1, #0
    6756:	d001      	beq.n	675c <_svfprintf_r+0x484>
    6758:	f001 f890 	bl	787c <_svfprintf_r+0x15a4>
    675c:	4bb8      	ldr	r3, [pc, #736]	; (6a40 <_svfprintf_r+0x768>)
    675e:	9317      	str	r3, [sp, #92]	; 0x5c
    6760:	06a3      	lsls	r3, r4, #26
    6762:	d500      	bpl.n	6766 <_svfprintf_r+0x48e>
    6764:	e0ab      	b.n	68be <_svfprintf_r+0x5e6>
    6766:	06e3      	lsls	r3, r4, #27
    6768:	d501      	bpl.n	676e <_svfprintf_r+0x496>
    676a:	f000 fc07 	bl	6f7c <_svfprintf_r+0xca4>
    676e:	0663      	lsls	r3, r4, #25
    6770:	d401      	bmi.n	6776 <_svfprintf_r+0x49e>
    6772:	f000 fc03 	bl	6f7c <_svfprintf_r+0xca4>
    6776:	9b0f      	ldr	r3, [sp, #60]	; 0x3c
    6778:	881a      	ldrh	r2, [r3, #0]
    677a:	920c      	str	r2, [sp, #48]	; 0x30
    677c:	2200      	movs	r2, #0
    677e:	3304      	adds	r3, #4
    6780:	920d      	str	r2, [sp, #52]	; 0x34
    6782:	930f      	str	r3, [sp, #60]	; 0x3c
    6784:	07e3      	lsls	r3, r4, #31
    6786:	d400      	bmi.n	678a <_svfprintf_r+0x4b2>
    6788:	e0a9      	b.n	68de <_svfprintf_r+0x606>
    678a:	990c      	ldr	r1, [sp, #48]	; 0x30
    678c:	9a0d      	ldr	r2, [sp, #52]	; 0x34
    678e:	000b      	movs	r3, r1
    6790:	4313      	orrs	r3, r2
    6792:	001a      	movs	r2, r3
    6794:	2302      	movs	r3, #2
    6796:	2a00      	cmp	r2, #0
    6798:	d100      	bne.n	679c <_svfprintf_r+0x4c4>
    679a:	e786      	b.n	66aa <_svfprintf_r+0x3d2>
    679c:	2030      	movs	r0, #48	; 0x30
    679e:	a91e      	add	r1, sp, #120	; 0x78
    67a0:	7008      	strb	r0, [r1, #0]
    67a2:	2548      	movs	r5, #72	; 0x48
    67a4:	4668      	mov	r0, sp
    67a6:	1940      	adds	r0, r0, r5
    67a8:	7800      	ldrb	r0, [r0, #0]
    67aa:	431c      	orrs	r4, r3
    67ac:	7048      	strb	r0, [r1, #1]
    67ae:	e77c      	b.n	66aa <_svfprintf_r+0x3d2>
    67b0:	468b      	mov	fp, r1
    67b2:	4641      	mov	r1, r8
    67b4:	2900      	cmp	r1, #0
    67b6:	d001      	beq.n	67bc <_svfprintf_r+0x4e4>
    67b8:	f001 f883 	bl	78c2 <_svfprintf_r+0x15ea>
    67bc:	06a3      	lsls	r3, r4, #26
    67be:	d501      	bpl.n	67c4 <_svfprintf_r+0x4ec>
    67c0:	f000 fde9 	bl	7396 <_svfprintf_r+0x10be>
    67c4:	06e3      	lsls	r3, r4, #27
    67c6:	d501      	bpl.n	67cc <_svfprintf_r+0x4f4>
    67c8:	f000 fd9b 	bl	7302 <_svfprintf_r+0x102a>
    67cc:	0663      	lsls	r3, r4, #25
    67ce:	d401      	bmi.n	67d4 <_svfprintf_r+0x4fc>
    67d0:	f000 fd97 	bl	7302 <_svfprintf_r+0x102a>
    67d4:	4669      	mov	r1, sp
    67d6:	9b0f      	ldr	r3, [sp, #60]	; 0x3c
    67d8:	8d09      	ldrh	r1, [r1, #40]	; 0x28
    67da:	681a      	ldr	r2, [r3, #0]
    67dc:	3304      	adds	r3, #4
    67de:	9207      	str	r2, [sp, #28]
    67e0:	8011      	strh	r1, [r2, #0]
    67e2:	930f      	str	r3, [sp, #60]	; 0x3c
    67e4:	e5a3      	b.n	632e <_svfprintf_r+0x56>
    67e6:	464b      	mov	r3, r9
    67e8:	431c      	orrs	r4, r3
    67ea:	780b      	ldrb	r3, [r1, #0]
    67ec:	e5d8      	b.n	63a0 <_svfprintf_r+0xc8>
    67ee:	9312      	str	r3, [sp, #72]	; 0x48
    67f0:	9b0f      	ldr	r3, [sp, #60]	; 0x3c
    67f2:	468b      	mov	fp, r1
    67f4:	1d1d      	adds	r5, r3, #4
    67f6:	681b      	ldr	r3, [r3, #0]
    67f8:	a916      	add	r1, sp, #88	; 0x58
    67fa:	001a      	movs	r2, r3
    67fc:	9311      	str	r3, [sp, #68]	; 0x44
    67fe:	2300      	movs	r3, #0
    6800:	77cb      	strb	r3, [r1, #31]
    6802:	2a00      	cmp	r2, #0
    6804:	d101      	bne.n	680a <_svfprintf_r+0x532>
    6806:	f000 fefb 	bl	7600 <_svfprintf_r+0x1328>
    680a:	4653      	mov	r3, sl
    680c:	3301      	adds	r3, #1
    680e:	d101      	bne.n	6814 <_svfprintf_r+0x53c>
    6810:	f000 fe38 	bl	7484 <_svfprintf_r+0x11ac>
    6814:	4652      	mov	r2, sl
    6816:	2100      	movs	r1, #0
    6818:	9811      	ldr	r0, [sp, #68]	; 0x44
    681a:	f002 fcf1 	bl	9200 <memchr>
    681e:	2800      	cmp	r0, #0
    6820:	d101      	bne.n	6826 <_svfprintf_r+0x54e>
    6822:	f000 ff54 	bl	76ce <_svfprintf_r+0x13f6>
    6826:	9b11      	ldr	r3, [sp, #68]	; 0x44
    6828:	1ac3      	subs	r3, r0, r3
    682a:	001a      	movs	r2, r3
    682c:	930e      	str	r3, [sp, #56]	; 0x38
    682e:	43db      	mvns	r3, r3
    6830:	17db      	asrs	r3, r3, #31
    6832:	401a      	ands	r2, r3
    6834:	ab16      	add	r3, sp, #88	; 0x58
    6836:	7fdb      	ldrb	r3, [r3, #31]
    6838:	9207      	str	r2, [sp, #28]
    683a:	4698      	mov	r8, r3
    683c:	2300      	movs	r3, #0
    683e:	950f      	str	r5, [sp, #60]	; 0x3c
    6840:	9408      	str	r4, [sp, #32]
    6842:	469a      	mov	sl, r3
    6844:	9313      	str	r3, [sp, #76]	; 0x4c
    6846:	e65f      	b.n	6508 <_svfprintf_r+0x230>
    6848:	9a0f      	ldr	r2, [sp, #60]	; 0x3c
    684a:	9312      	str	r3, [sp, #72]	; 0x48
    684c:	6813      	ldr	r3, [r2, #0]
    684e:	ad28      	add	r5, sp, #160	; 0xa0
    6850:	9307      	str	r3, [sp, #28]
    6852:	466b      	mov	r3, sp
    6854:	7f1b      	ldrb	r3, [r3, #28]
    6856:	468b      	mov	fp, r1
    6858:	702b      	strb	r3, [r5, #0]
    685a:	2300      	movs	r3, #0
    685c:	a916      	add	r1, sp, #88	; 0x58
    685e:	77cb      	strb	r3, [r1, #31]
    6860:	0013      	movs	r3, r2
    6862:	3304      	adds	r3, #4
    6864:	930f      	str	r3, [sp, #60]	; 0x3c
    6866:	2300      	movs	r3, #0
    6868:	9408      	str	r4, [sp, #32]
    686a:	4698      	mov	r8, r3
    686c:	3301      	adds	r3, #1
    686e:	9307      	str	r3, [sp, #28]
    6870:	930e      	str	r3, [sp, #56]	; 0x38
    6872:	2300      	movs	r3, #0
    6874:	9511      	str	r5, [sp, #68]	; 0x44
    6876:	469a      	mov	sl, r3
    6878:	9313      	str	r3, [sp, #76]	; 0x4c
    687a:	e64b      	b.n	6514 <_svfprintf_r+0x23c>
    687c:	468b      	mov	fp, r1
    687e:	4641      	mov	r1, r8
    6880:	9312      	str	r3, [sp, #72]	; 0x48
    6882:	2900      	cmp	r1, #0
    6884:	d100      	bne.n	6888 <_svfprintf_r+0x5b0>
    6886:	e5f4      	b.n	6472 <_svfprintf_r+0x19a>
    6888:	ab16      	add	r3, sp, #88	; 0x58
    688a:	77d8      	strb	r0, [r3, #31]
    688c:	e5f1      	b.n	6472 <_svfprintf_r+0x19a>
    688e:	4663      	mov	r3, ip
    6890:	431c      	orrs	r4, r3
    6892:	780b      	ldrb	r3, [r1, #0]
    6894:	e584      	b.n	63a0 <_svfprintf_r+0xc8>
    6896:	780b      	ldrb	r3, [r1, #0]
    6898:	2b6c      	cmp	r3, #108	; 0x6c
    689a:	d101      	bne.n	68a0 <_svfprintf_r+0x5c8>
    689c:	f000 fd86 	bl	73ac <_svfprintf_r+0x10d4>
    68a0:	2210      	movs	r2, #16
    68a2:	4314      	orrs	r4, r2
    68a4:	e57c      	b.n	63a0 <_svfprintf_r+0xc8>
    68a6:	468b      	mov	fp, r1
    68a8:	4641      	mov	r1, r8
    68aa:	9312      	str	r3, [sp, #72]	; 0x48
    68ac:	2900      	cmp	r1, #0
    68ae:	d001      	beq.n	68b4 <_svfprintf_r+0x5dc>
    68b0:	f000 ffe8 	bl	7884 <_svfprintf_r+0x15ac>
    68b4:	4b63      	ldr	r3, [pc, #396]	; (6a44 <_svfprintf_r+0x76c>)
    68b6:	9317      	str	r3, [sp, #92]	; 0x5c
    68b8:	06a3      	lsls	r3, r4, #26
    68ba:	d400      	bmi.n	68be <_svfprintf_r+0x5e6>
    68bc:	e753      	b.n	6766 <_svfprintf_r+0x48e>
    68be:	2207      	movs	r2, #7
    68c0:	9b0f      	ldr	r3, [sp, #60]	; 0x3c
    68c2:	3307      	adds	r3, #7
    68c4:	4393      	bics	r3, r2
    68c6:	3201      	adds	r2, #1
    68c8:	4694      	mov	ip, r2
    68ca:	449c      	add	ip, r3
    68cc:	4662      	mov	r2, ip
    68ce:	920f      	str	r2, [sp, #60]	; 0x3c
    68d0:	681a      	ldr	r2, [r3, #0]
    68d2:	685b      	ldr	r3, [r3, #4]
    68d4:	920c      	str	r2, [sp, #48]	; 0x30
    68d6:	930d      	str	r3, [sp, #52]	; 0x34
    68d8:	07e3      	lsls	r3, r4, #31
    68da:	d500      	bpl.n	68de <_svfprintf_r+0x606>
    68dc:	e755      	b.n	678a <_svfprintf_r+0x4b2>
    68de:	990c      	ldr	r1, [sp, #48]	; 0x30
    68e0:	9a0d      	ldr	r2, [sp, #52]	; 0x34
    68e2:	0008      	movs	r0, r1
    68e4:	4310      	orrs	r0, r2
    68e6:	2302      	movs	r3, #2
    68e8:	0002      	movs	r2, r0
    68ea:	e6de      	b.n	66aa <_svfprintf_r+0x3d2>
    68ec:	468b      	mov	fp, r1
    68ee:	990f      	ldr	r1, [sp, #60]	; 0x3c
    68f0:	2230      	movs	r2, #48	; 0x30
    68f2:	680b      	ldr	r3, [r1, #0]
    68f4:	930c      	str	r3, [sp, #48]	; 0x30
    68f6:	2300      	movs	r3, #0
    68f8:	930d      	str	r3, [sp, #52]	; 0x34
    68fa:	3302      	adds	r3, #2
    68fc:	431c      	orrs	r4, r3
    68fe:	ab1e      	add	r3, sp, #120	; 0x78
    6900:	701a      	strb	r2, [r3, #0]
    6902:	3248      	adds	r2, #72	; 0x48
    6904:	705a      	strb	r2, [r3, #1]
    6906:	000b      	movs	r3, r1
    6908:	3304      	adds	r3, #4
    690a:	930f      	str	r3, [sp, #60]	; 0x3c
    690c:	4b4d      	ldr	r3, [pc, #308]	; (6a44 <_svfprintf_r+0x76c>)
    690e:	9212      	str	r2, [sp, #72]	; 0x48
    6910:	9317      	str	r3, [sp, #92]	; 0x5c
    6912:	9a0c      	ldr	r2, [sp, #48]	; 0x30
    6914:	2302      	movs	r3, #2
    6916:	e6c8      	b.n	66aa <_svfprintf_r+0x3d2>
    6918:	2301      	movs	r3, #1
    691a:	431c      	orrs	r4, r3
    691c:	780b      	ldrb	r3, [r1, #0]
    691e:	e53f      	b.n	63a0 <_svfprintf_r+0xc8>
    6920:	9b0f      	ldr	r3, [sp, #60]	; 0x3c
    6922:	1d1a      	adds	r2, r3, #4
    6924:	681b      	ldr	r3, [r3, #0]
    6926:	930b      	str	r3, [sp, #44]	; 0x2c
    6928:	2b00      	cmp	r3, #0
    692a:	da00      	bge.n	692e <_svfprintf_r+0x656>
    692c:	e542      	b.n	63b4 <_svfprintf_r+0xdc>
    692e:	780b      	ldrb	r3, [r1, #0]
    6930:	920f      	str	r2, [sp, #60]	; 0x3c
    6932:	e535      	b.n	63a0 <_svfprintf_r+0xc8>
    6934:	780b      	ldrb	r3, [r1, #0]
    6936:	2800      	cmp	r0, #0
    6938:	d000      	beq.n	693c <_svfprintf_r+0x664>
    693a:	e531      	b.n	63a0 <_svfprintf_r+0xc8>
    693c:	2201      	movs	r2, #1
    693e:	3020      	adds	r0, #32
    6940:	4690      	mov	r8, r2
    6942:	e52d      	b.n	63a0 <_svfprintf_r+0xc8>
    6944:	468b      	mov	fp, r1
    6946:	9312      	str	r3, [sp, #72]	; 0x48
    6948:	06a3      	lsls	r3, r4, #26
    694a:	d400      	bmi.n	694e <_svfprintf_r+0x676>
    694c:	e6ed      	b.n	672a <_svfprintf_r+0x452>
    694e:	2207      	movs	r2, #7
    6950:	9b0f      	ldr	r3, [sp, #60]	; 0x3c
    6952:	3307      	adds	r3, #7
    6954:	4393      	bics	r3, r2
    6956:	3201      	adds	r2, #1
    6958:	4694      	mov	ip, r2
    695a:	449c      	add	ip, r3
    695c:	4662      	mov	r2, ip
    695e:	920f      	str	r2, [sp, #60]	; 0x3c
    6960:	681a      	ldr	r2, [r3, #0]
    6962:	685b      	ldr	r3, [r3, #4]
    6964:	0011      	movs	r1, r2
    6966:	001a      	movs	r2, r3
    6968:	0008      	movs	r0, r1
    696a:	4310      	orrs	r0, r2
    696c:	910c      	str	r1, [sp, #48]	; 0x30
    696e:	920d      	str	r2, [sp, #52]	; 0x34
    6970:	2301      	movs	r3, #1
    6972:	0002      	movs	r2, r0
    6974:	e699      	b.n	66aa <_svfprintf_r+0x3d2>
    6976:	468b      	mov	fp, r1
    6978:	9312      	str	r3, [sp, #72]	; 0x48
    697a:	06a3      	lsls	r3, r4, #26
    697c:	d400      	bmi.n	6980 <_svfprintf_r+0x6a8>
    697e:	e683      	b.n	6688 <_svfprintf_r+0x3b0>
    6980:	2207      	movs	r2, #7
    6982:	9b0f      	ldr	r3, [sp, #60]	; 0x3c
    6984:	3307      	adds	r3, #7
    6986:	4393      	bics	r3, r2
    6988:	3201      	adds	r2, #1
    698a:	4694      	mov	ip, r2
    698c:	449c      	add	ip, r3
    698e:	4662      	mov	r2, ip
    6990:	920f      	str	r2, [sp, #60]	; 0x3c
    6992:	681a      	ldr	r2, [r3, #0]
    6994:	685b      	ldr	r3, [r3, #4]
    6996:	0011      	movs	r1, r2
    6998:	001a      	movs	r2, r3
    699a:	0008      	movs	r0, r1
    699c:	4310      	orrs	r0, r2
    699e:	910c      	str	r1, [sp, #48]	; 0x30
    69a0:	920d      	str	r2, [sp, #52]	; 0x34
    69a2:	2300      	movs	r3, #0
    69a4:	0002      	movs	r2, r0
    69a6:	e680      	b.n	66aa <_svfprintf_r+0x3d2>
    69a8:	468b      	mov	fp, r1
    69aa:	4641      	mov	r1, r8
    69ac:	9312      	str	r3, [sp, #72]	; 0x48
    69ae:	2900      	cmp	r1, #0
    69b0:	d001      	beq.n	69b6 <_svfprintf_r+0x6de>
    69b2:	f000 ff7f 	bl	78b4 <_svfprintf_r+0x15dc>
    69b6:	9b12      	ldr	r3, [sp, #72]	; 0x48
    69b8:	2b00      	cmp	r3, #0
    69ba:	d100      	bne.n	69be <_svfprintf_r+0x6e6>
    69bc:	e50b      	b.n	63d6 <_svfprintf_r+0xfe>
    69be:	ad28      	add	r5, sp, #160	; 0xa0
    69c0:	702b      	strb	r3, [r5, #0]
    69c2:	2300      	movs	r3, #0
    69c4:	aa16      	add	r2, sp, #88	; 0x58
    69c6:	77d3      	strb	r3, [r2, #31]
    69c8:	9408      	str	r4, [sp, #32]
    69ca:	e74e      	b.n	686a <_svfprintf_r+0x592>
    69cc:	68bc      	ldr	r4, [r7, #8]
    69ce:	4643      	mov	r3, r8
    69d0:	2b00      	cmp	r3, #0
    69d2:	d00f      	beq.n	69f4 <_svfprintf_r+0x71c>
    69d4:	aa16      	add	r2, sp, #88	; 0x58
    69d6:	231f      	movs	r3, #31
    69d8:	4694      	mov	ip, r2
    69da:	4463      	add	r3, ip
    69dc:	6033      	str	r3, [r6, #0]
    69de:	2301      	movs	r3, #1
    69e0:	6073      	str	r3, [r6, #4]
    69e2:	687b      	ldr	r3, [r7, #4]
    69e4:	3401      	adds	r4, #1
    69e6:	3301      	adds	r3, #1
    69e8:	60bc      	str	r4, [r7, #8]
    69ea:	607b      	str	r3, [r7, #4]
    69ec:	2b07      	cmp	r3, #7
    69ee:	dd00      	ble.n	69f2 <_svfprintf_r+0x71a>
    69f0:	e1b3      	b.n	6d5a <_svfprintf_r+0xa82>
    69f2:	3608      	adds	r6, #8
    69f4:	464b      	mov	r3, r9
    69f6:	2b00      	cmp	r3, #0
    69f8:	d00c      	beq.n	6a14 <_svfprintf_r+0x73c>
    69fa:	ab1e      	add	r3, sp, #120	; 0x78
    69fc:	6033      	str	r3, [r6, #0]
    69fe:	2302      	movs	r3, #2
    6a00:	6073      	str	r3, [r6, #4]
    6a02:	687b      	ldr	r3, [r7, #4]
    6a04:	3402      	adds	r4, #2
    6a06:	3301      	adds	r3, #1
    6a08:	60bc      	str	r4, [r7, #8]
    6a0a:	607b      	str	r3, [r7, #4]
    6a0c:	2b07      	cmp	r3, #7
    6a0e:	dd00      	ble.n	6a12 <_svfprintf_r+0x73a>
    6a10:	e1af      	b.n	6d72 <_svfprintf_r+0xa9a>
    6a12:	3608      	adds	r6, #8
    6a14:	9b10      	ldr	r3, [sp, #64]	; 0x40
    6a16:	2b80      	cmp	r3, #128	; 0x80
    6a18:	d100      	bne.n	6a1c <_svfprintf_r+0x744>
    6a1a:	e120      	b.n	6c5e <_svfprintf_r+0x986>
    6a1c:	4653      	mov	r3, sl
    6a1e:	9a0e      	ldr	r2, [sp, #56]	; 0x38
    6a20:	1a9d      	subs	r5, r3, r2
    6a22:	2d00      	cmp	r5, #0
    6a24:	dd3c      	ble.n	6aa0 <_svfprintf_r+0x7c8>
    6a26:	4a08      	ldr	r2, [pc, #32]	; (6a48 <_svfprintf_r+0x770>)
    6a28:	687b      	ldr	r3, [r7, #4]
    6a2a:	4691      	mov	r9, r2
    6a2c:	2d10      	cmp	r5, #16
    6a2e:	dd2c      	ble.n	6a8a <_svfprintf_r+0x7b2>
    6a30:	2210      	movs	r2, #16
    6a32:	0021      	movs	r1, r4
    6a34:	4692      	mov	sl, r2
    6a36:	9c09      	ldr	r4, [sp, #36]	; 0x24
    6a38:	0032      	movs	r2, r6
    6a3a:	002e      	movs	r6, r5
    6a3c:	464d      	mov	r5, r9
    6a3e:	e009      	b.n	6a54 <_svfprintf_r+0x77c>
    6a40:	0000b3f8 	.word	0x0000b3f8
    6a44:	0000b40c 	.word	0x0000b40c
    6a48:	0000b43c 	.word	0x0000b43c
    6a4c:	3e10      	subs	r6, #16
    6a4e:	3208      	adds	r2, #8
    6a50:	2e10      	cmp	r6, #16
    6a52:	dd16      	ble.n	6a82 <_svfprintf_r+0x7aa>
    6a54:	4650      	mov	r0, sl
    6a56:	3110      	adds	r1, #16
    6a58:	3301      	adds	r3, #1
    6a5a:	6015      	str	r5, [r2, #0]
    6a5c:	6050      	str	r0, [r2, #4]
    6a5e:	60b9      	str	r1, [r7, #8]
    6a60:	607b      	str	r3, [r7, #4]
    6a62:	2b07      	cmp	r3, #7
    6a64:	ddf2      	ble.n	6a4c <_svfprintf_r+0x774>
    6a66:	003a      	movs	r2, r7
    6a68:	9906      	ldr	r1, [sp, #24]
    6a6a:	0020      	movs	r0, r4
    6a6c:	f002 ffa4 	bl	99b8 <__ssprint_r>
    6a70:	2800      	cmp	r0, #0
    6a72:	d000      	beq.n	6a76 <_svfprintf_r+0x79e>
    6a74:	e4b7      	b.n	63e6 <_svfprintf_r+0x10e>
    6a76:	3e10      	subs	r6, #16
    6a78:	68b9      	ldr	r1, [r7, #8]
    6a7a:	687b      	ldr	r3, [r7, #4]
    6a7c:	aa32      	add	r2, sp, #200	; 0xc8
    6a7e:	2e10      	cmp	r6, #16
    6a80:	dce8      	bgt.n	6a54 <_svfprintf_r+0x77c>
    6a82:	46a9      	mov	r9, r5
    6a84:	000c      	movs	r4, r1
    6a86:	0035      	movs	r5, r6
    6a88:	0016      	movs	r6, r2
    6a8a:	464a      	mov	r2, r9
    6a8c:	1964      	adds	r4, r4, r5
    6a8e:	3301      	adds	r3, #1
    6a90:	6032      	str	r2, [r6, #0]
    6a92:	6075      	str	r5, [r6, #4]
    6a94:	60bc      	str	r4, [r7, #8]
    6a96:	607b      	str	r3, [r7, #4]
    6a98:	2b07      	cmp	r3, #7
    6a9a:	dd00      	ble.n	6a9e <_svfprintf_r+0x7c6>
    6a9c:	e151      	b.n	6d42 <_svfprintf_r+0xa6a>
    6a9e:	3608      	adds	r6, #8
    6aa0:	9b08      	ldr	r3, [sp, #32]
    6aa2:	05db      	lsls	r3, r3, #23
    6aa4:	d500      	bpl.n	6aa8 <_svfprintf_r+0x7d0>
    6aa6:	e0b6      	b.n	6c16 <_svfprintf_r+0x93e>
    6aa8:	9b11      	ldr	r3, [sp, #68]	; 0x44
    6aaa:	6033      	str	r3, [r6, #0]
    6aac:	9b0e      	ldr	r3, [sp, #56]	; 0x38
    6aae:	469c      	mov	ip, r3
    6ab0:	6073      	str	r3, [r6, #4]
    6ab2:	687b      	ldr	r3, [r7, #4]
    6ab4:	4464      	add	r4, ip
    6ab6:	3301      	adds	r3, #1
    6ab8:	60bc      	str	r4, [r7, #8]
    6aba:	607b      	str	r3, [r7, #4]
    6abc:	2b07      	cmp	r3, #7
    6abe:	dd00      	ble.n	6ac2 <_svfprintf_r+0x7ea>
    6ac0:	e09d      	b.n	6bfe <_svfprintf_r+0x926>
    6ac2:	3608      	adds	r6, #8
    6ac4:	9b08      	ldr	r3, [sp, #32]
    6ac6:	075b      	lsls	r3, r3, #29
    6ac8:	d541      	bpl.n	6b4e <_svfprintf_r+0x876>
    6aca:	9b0b      	ldr	r3, [sp, #44]	; 0x2c
    6acc:	9a07      	ldr	r2, [sp, #28]
    6ace:	1a9d      	subs	r5, r3, r2
    6ad0:	2d00      	cmp	r5, #0
    6ad2:	dd3c      	ble.n	6b4e <_svfprintf_r+0x876>
    6ad4:	4ac4      	ldr	r2, [pc, #784]	; (6de8 <_svfprintf_r+0xb10>)
    6ad6:	687b      	ldr	r3, [r7, #4]
    6ad8:	4690      	mov	r8, r2
    6ada:	2d10      	cmp	r5, #16
    6adc:	dd26      	ble.n	6b2c <_svfprintf_r+0x854>
    6ade:	2210      	movs	r2, #16
    6ae0:	0021      	movs	r1, r4
    6ae2:	4691      	mov	r9, r2
    6ae4:	9c09      	ldr	r4, [sp, #36]	; 0x24
    6ae6:	0032      	movs	r2, r6
    6ae8:	002e      	movs	r6, r5
    6aea:	9d06      	ldr	r5, [sp, #24]
    6aec:	e003      	b.n	6af6 <_svfprintf_r+0x81e>
    6aee:	3e10      	subs	r6, #16
    6af0:	3208      	adds	r2, #8
    6af2:	2e10      	cmp	r6, #16
    6af4:	dd17      	ble.n	6b26 <_svfprintf_r+0x84e>
    6af6:	48bc      	ldr	r0, [pc, #752]	; (6de8 <_svfprintf_r+0xb10>)
    6af8:	3110      	adds	r1, #16
    6afa:	6010      	str	r0, [r2, #0]
    6afc:	4648      	mov	r0, r9
    6afe:	3301      	adds	r3, #1
    6b00:	6050      	str	r0, [r2, #4]
    6b02:	60b9      	str	r1, [r7, #8]
    6b04:	607b      	str	r3, [r7, #4]
    6b06:	2b07      	cmp	r3, #7
    6b08:	ddf1      	ble.n	6aee <_svfprintf_r+0x816>
    6b0a:	003a      	movs	r2, r7
    6b0c:	0029      	movs	r1, r5
    6b0e:	0020      	movs	r0, r4
    6b10:	f002 ff52 	bl	99b8 <__ssprint_r>
    6b14:	2800      	cmp	r0, #0
    6b16:	d000      	beq.n	6b1a <_svfprintf_r+0x842>
    6b18:	e465      	b.n	63e6 <_svfprintf_r+0x10e>
    6b1a:	3e10      	subs	r6, #16
    6b1c:	68b9      	ldr	r1, [r7, #8]
    6b1e:	687b      	ldr	r3, [r7, #4]
    6b20:	aa32      	add	r2, sp, #200	; 0xc8
    6b22:	2e10      	cmp	r6, #16
    6b24:	dce7      	bgt.n	6af6 <_svfprintf_r+0x81e>
    6b26:	0035      	movs	r5, r6
    6b28:	000c      	movs	r4, r1
    6b2a:	0016      	movs	r6, r2
    6b2c:	4642      	mov	r2, r8
    6b2e:	1964      	adds	r4, r4, r5
    6b30:	3301      	adds	r3, #1
    6b32:	c624      	stmia	r6!, {r2, r5}
    6b34:	60bc      	str	r4, [r7, #8]
    6b36:	607b      	str	r3, [r7, #4]
    6b38:	2b07      	cmp	r3, #7
    6b3a:	dd08      	ble.n	6b4e <_svfprintf_r+0x876>
    6b3c:	003a      	movs	r2, r7
    6b3e:	9906      	ldr	r1, [sp, #24]
    6b40:	9809      	ldr	r0, [sp, #36]	; 0x24
    6b42:	f002 ff39 	bl	99b8 <__ssprint_r>
    6b46:	2800      	cmp	r0, #0
    6b48:	d000      	beq.n	6b4c <_svfprintf_r+0x874>
    6b4a:	e44c      	b.n	63e6 <_svfprintf_r+0x10e>
    6b4c:	68bc      	ldr	r4, [r7, #8]
    6b4e:	9b0b      	ldr	r3, [sp, #44]	; 0x2c
    6b50:	9907      	ldr	r1, [sp, #28]
    6b52:	428b      	cmp	r3, r1
    6b54:	da00      	bge.n	6b58 <_svfprintf_r+0x880>
    6b56:	000b      	movs	r3, r1
    6b58:	9a0a      	ldr	r2, [sp, #40]	; 0x28
    6b5a:	4694      	mov	ip, r2
    6b5c:	449c      	add	ip, r3
    6b5e:	4663      	mov	r3, ip
    6b60:	930a      	str	r3, [sp, #40]	; 0x28
    6b62:	2c00      	cmp	r4, #0
    6b64:	d000      	beq.n	6b68 <_svfprintf_r+0x890>
    6b66:	e0d6      	b.n	6d16 <_svfprintf_r+0xa3e>
    6b68:	2300      	movs	r3, #0
    6b6a:	ae32      	add	r6, sp, #200	; 0xc8
    6b6c:	607b      	str	r3, [r7, #4]
    6b6e:	f7ff fbde 	bl	632e <_svfprintf_r+0x56>
    6b72:	9b14      	ldr	r3, [sp, #80]	; 0x50
    6b74:	2b01      	cmp	r3, #1
    6b76:	dc00      	bgt.n	6b7a <_svfprintf_r+0x8a2>
    6b78:	e0ae      	b.n	6cd8 <_svfprintf_r+0xa00>
    6b7a:	9b11      	ldr	r3, [sp, #68]	; 0x44
    6b7c:	3401      	adds	r4, #1
    6b7e:	6033      	str	r3, [r6, #0]
    6b80:	2301      	movs	r3, #1
    6b82:	6073      	str	r3, [r6, #4]
    6b84:	687b      	ldr	r3, [r7, #4]
    6b86:	60bc      	str	r4, [r7, #8]
    6b88:	3301      	adds	r3, #1
    6b8a:	607b      	str	r3, [r7, #4]
    6b8c:	2b07      	cmp	r3, #7
    6b8e:	dd00      	ble.n	6b92 <_svfprintf_r+0x8ba>
    6b90:	e2df      	b.n	7152 <_svfprintf_r+0xe7a>
    6b92:	3608      	adds	r6, #8
    6b94:	9a19      	ldr	r2, [sp, #100]	; 0x64
    6b96:	3301      	adds	r3, #1
    6b98:	6032      	str	r2, [r6, #0]
    6b9a:	9a18      	ldr	r2, [sp, #96]	; 0x60
    6b9c:	4698      	mov	r8, r3
    6b9e:	4694      	mov	ip, r2
    6ba0:	4464      	add	r4, ip
    6ba2:	6072      	str	r2, [r6, #4]
    6ba4:	60bc      	str	r4, [r7, #8]
    6ba6:	607b      	str	r3, [r7, #4]
    6ba8:	2b07      	cmp	r3, #7
    6baa:	dd00      	ble.n	6bae <_svfprintf_r+0x8d6>
    6bac:	e2de      	b.n	716c <_svfprintf_r+0xe94>
    6bae:	3608      	adds	r6, #8
    6bb0:	2200      	movs	r2, #0
    6bb2:	2300      	movs	r3, #0
    6bb4:	9816      	ldr	r0, [sp, #88]	; 0x58
    6bb6:	9915      	ldr	r1, [sp, #84]	; 0x54
    6bb8:	f7ff f944 	bl	5e44 <__aeabi_dcmpeq>
    6bbc:	2800      	cmp	r0, #0
    6bbe:	d000      	beq.n	6bc2 <_svfprintf_r+0x8ea>
    6bc0:	e1a4      	b.n	6f0c <_svfprintf_r+0xc34>
    6bc2:	9d11      	ldr	r5, [sp, #68]	; 0x44
    6bc4:	9b14      	ldr	r3, [sp, #80]	; 0x50
    6bc6:	3501      	adds	r5, #1
    6bc8:	3b01      	subs	r3, #1
    6bca:	6035      	str	r5, [r6, #0]
    6bcc:	6073      	str	r3, [r6, #4]
    6bce:	18e4      	adds	r4, r4, r3
    6bd0:	2301      	movs	r3, #1
    6bd2:	469c      	mov	ip, r3
    6bd4:	44e0      	add	r8, ip
    6bd6:	4643      	mov	r3, r8
    6bd8:	60bc      	str	r4, [r7, #8]
    6bda:	607b      	str	r3, [r7, #4]
    6bdc:	2b07      	cmp	r3, #7
    6bde:	dd00      	ble.n	6be2 <_svfprintf_r+0x90a>
    6be0:	e08b      	b.n	6cfa <_svfprintf_r+0xa22>
    6be2:	3608      	adds	r6, #8
    6be4:	ab21      	add	r3, sp, #132	; 0x84
    6be6:	6033      	str	r3, [r6, #0]
    6be8:	9b1a      	ldr	r3, [sp, #104]	; 0x68
    6bea:	469c      	mov	ip, r3
    6bec:	6073      	str	r3, [r6, #4]
    6bee:	4643      	mov	r3, r8
    6bf0:	4464      	add	r4, ip
    6bf2:	3301      	adds	r3, #1
    6bf4:	60bc      	str	r4, [r7, #8]
    6bf6:	607b      	str	r3, [r7, #4]
    6bf8:	2b07      	cmp	r3, #7
    6bfa:	dc00      	bgt.n	6bfe <_svfprintf_r+0x926>
    6bfc:	e761      	b.n	6ac2 <_svfprintf_r+0x7ea>
    6bfe:	003a      	movs	r2, r7
    6c00:	9906      	ldr	r1, [sp, #24]
    6c02:	9809      	ldr	r0, [sp, #36]	; 0x24
    6c04:	f002 fed8 	bl	99b8 <__ssprint_r>
    6c08:	2800      	cmp	r0, #0
    6c0a:	d001      	beq.n	6c10 <_svfprintf_r+0x938>
    6c0c:	f7ff fbeb 	bl	63e6 <_svfprintf_r+0x10e>
    6c10:	68bc      	ldr	r4, [r7, #8]
    6c12:	ae32      	add	r6, sp, #200	; 0xc8
    6c14:	e756      	b.n	6ac4 <_svfprintf_r+0x7ec>
    6c16:	9b12      	ldr	r3, [sp, #72]	; 0x48
    6c18:	2b65      	cmp	r3, #101	; 0x65
    6c1a:	ddaa      	ble.n	6b72 <_svfprintf_r+0x89a>
    6c1c:	2200      	movs	r2, #0
    6c1e:	2300      	movs	r3, #0
    6c20:	9816      	ldr	r0, [sp, #88]	; 0x58
    6c22:	9915      	ldr	r1, [sp, #84]	; 0x54
    6c24:	f7ff f90e 	bl	5e44 <__aeabi_dcmpeq>
    6c28:	2800      	cmp	r0, #0
    6c2a:	d100      	bne.n	6c2e <_svfprintf_r+0x956>
    6c2c:	e0e2      	b.n	6df4 <_svfprintf_r+0xb1c>
    6c2e:	4b6f      	ldr	r3, [pc, #444]	; (6dec <_svfprintf_r+0xb14>)
    6c30:	3401      	adds	r4, #1
    6c32:	6033      	str	r3, [r6, #0]
    6c34:	2301      	movs	r3, #1
    6c36:	6073      	str	r3, [r6, #4]
    6c38:	687b      	ldr	r3, [r7, #4]
    6c3a:	60bc      	str	r4, [r7, #8]
    6c3c:	3301      	adds	r3, #1
    6c3e:	607b      	str	r3, [r7, #4]
    6c40:	2b07      	cmp	r3, #7
    6c42:	dd00      	ble.n	6c46 <_svfprintf_r+0x96e>
    6c44:	e366      	b.n	7314 <_svfprintf_r+0x103c>
    6c46:	3608      	adds	r6, #8
    6c48:	9b1f      	ldr	r3, [sp, #124]	; 0x7c
    6c4a:	9a14      	ldr	r2, [sp, #80]	; 0x50
    6c4c:	4293      	cmp	r3, r2
    6c4e:	da00      	bge.n	6c52 <_svfprintf_r+0x97a>
    6c50:	e1a4      	b.n	6f9c <_svfprintf_r+0xcc4>
    6c52:	9b08      	ldr	r3, [sp, #32]
    6c54:	07db      	lsls	r3, r3, #31
    6c56:	d500      	bpl.n	6c5a <_svfprintf_r+0x982>
    6c58:	e1a0      	b.n	6f9c <_svfprintf_r+0xcc4>
    6c5a:	68bc      	ldr	r4, [r7, #8]
    6c5c:	e732      	b.n	6ac4 <_svfprintf_r+0x7ec>
    6c5e:	9b0b      	ldr	r3, [sp, #44]	; 0x2c
    6c60:	9a07      	ldr	r2, [sp, #28]
    6c62:	1a9d      	subs	r5, r3, r2
    6c64:	2d00      	cmp	r5, #0
    6c66:	dc00      	bgt.n	6c6a <_svfprintf_r+0x992>
    6c68:	e6d8      	b.n	6a1c <_svfprintf_r+0x744>
    6c6a:	4a61      	ldr	r2, [pc, #388]	; (6df0 <_svfprintf_r+0xb18>)
    6c6c:	687b      	ldr	r3, [r7, #4]
    6c6e:	4691      	mov	r9, r2
    6c70:	2d10      	cmp	r5, #16
    6c72:	dd25      	ble.n	6cc0 <_svfprintf_r+0x9e8>
    6c74:	2210      	movs	r2, #16
    6c76:	0021      	movs	r1, r4
    6c78:	4690      	mov	r8, r2
    6c7a:	9c09      	ldr	r4, [sp, #36]	; 0x24
    6c7c:	0032      	movs	r2, r6
    6c7e:	464e      	mov	r6, r9
    6c80:	e003      	b.n	6c8a <_svfprintf_r+0x9b2>
    6c82:	3d10      	subs	r5, #16
    6c84:	3208      	adds	r2, #8
    6c86:	2d10      	cmp	r5, #16
    6c88:	dd17      	ble.n	6cba <_svfprintf_r+0x9e2>
    6c8a:	4640      	mov	r0, r8
    6c8c:	3110      	adds	r1, #16
    6c8e:	3301      	adds	r3, #1
    6c90:	6016      	str	r6, [r2, #0]
    6c92:	6050      	str	r0, [r2, #4]
    6c94:	60b9      	str	r1, [r7, #8]
    6c96:	607b      	str	r3, [r7, #4]
    6c98:	2b07      	cmp	r3, #7
    6c9a:	ddf2      	ble.n	6c82 <_svfprintf_r+0x9aa>
    6c9c:	003a      	movs	r2, r7
    6c9e:	9906      	ldr	r1, [sp, #24]
    6ca0:	0020      	movs	r0, r4
    6ca2:	f002 fe89 	bl	99b8 <__ssprint_r>
    6ca6:	2800      	cmp	r0, #0
    6ca8:	d001      	beq.n	6cae <_svfprintf_r+0x9d6>
    6caa:	f7ff fb9c 	bl	63e6 <_svfprintf_r+0x10e>
    6cae:	3d10      	subs	r5, #16
    6cb0:	68b9      	ldr	r1, [r7, #8]
    6cb2:	687b      	ldr	r3, [r7, #4]
    6cb4:	aa32      	add	r2, sp, #200	; 0xc8
    6cb6:	2d10      	cmp	r5, #16
    6cb8:	dce7      	bgt.n	6c8a <_svfprintf_r+0x9b2>
    6cba:	46b1      	mov	r9, r6
    6cbc:	000c      	movs	r4, r1
    6cbe:	0016      	movs	r6, r2
    6cc0:	464a      	mov	r2, r9
    6cc2:	1964      	adds	r4, r4, r5
    6cc4:	3301      	adds	r3, #1
    6cc6:	6032      	str	r2, [r6, #0]
    6cc8:	6075      	str	r5, [r6, #4]
    6cca:	60bc      	str	r4, [r7, #8]
    6ccc:	607b      	str	r3, [r7, #4]
    6cce:	2b07      	cmp	r3, #7
    6cd0:	dd00      	ble.n	6cd4 <_svfprintf_r+0x9fc>
    6cd2:	e27e      	b.n	71d2 <_svfprintf_r+0xefa>
    6cd4:	3608      	adds	r6, #8
    6cd6:	e6a1      	b.n	6a1c <_svfprintf_r+0x744>
    6cd8:	2301      	movs	r3, #1
    6cda:	9a08      	ldr	r2, [sp, #32]
    6cdc:	4213      	tst	r3, r2
    6cde:	d000      	beq.n	6ce2 <_svfprintf_r+0xa0a>
    6ce0:	e74b      	b.n	6b7a <_svfprintf_r+0x8a2>
    6ce2:	6073      	str	r3, [r6, #4]
    6ce4:	687b      	ldr	r3, [r7, #4]
    6ce6:	9a11      	ldr	r2, [sp, #68]	; 0x44
    6ce8:	3301      	adds	r3, #1
    6cea:	3401      	adds	r4, #1
    6cec:	6032      	str	r2, [r6, #0]
    6cee:	60bc      	str	r4, [r7, #8]
    6cf0:	4698      	mov	r8, r3
    6cf2:	607b      	str	r3, [r7, #4]
    6cf4:	2b07      	cmp	r3, #7
    6cf6:	dc00      	bgt.n	6cfa <_svfprintf_r+0xa22>
    6cf8:	e773      	b.n	6be2 <_svfprintf_r+0x90a>
    6cfa:	003a      	movs	r2, r7
    6cfc:	9906      	ldr	r1, [sp, #24]
    6cfe:	9809      	ldr	r0, [sp, #36]	; 0x24
    6d00:	f002 fe5a 	bl	99b8 <__ssprint_r>
    6d04:	2800      	cmp	r0, #0
    6d06:	d001      	beq.n	6d0c <_svfprintf_r+0xa34>
    6d08:	f7ff fb6d 	bl	63e6 <_svfprintf_r+0x10e>
    6d0c:	687b      	ldr	r3, [r7, #4]
    6d0e:	68bc      	ldr	r4, [r7, #8]
    6d10:	4698      	mov	r8, r3
    6d12:	ae32      	add	r6, sp, #200	; 0xc8
    6d14:	e766      	b.n	6be4 <_svfprintf_r+0x90c>
    6d16:	003a      	movs	r2, r7
    6d18:	9906      	ldr	r1, [sp, #24]
    6d1a:	9809      	ldr	r0, [sp, #36]	; 0x24
    6d1c:	f002 fe4c 	bl	99b8 <__ssprint_r>
    6d20:	2800      	cmp	r0, #0
    6d22:	d100      	bne.n	6d26 <_svfprintf_r+0xa4e>
    6d24:	e720      	b.n	6b68 <_svfprintf_r+0x890>
    6d26:	f7ff fb5e 	bl	63e6 <_svfprintf_r+0x10e>
    6d2a:	9c08      	ldr	r4, [sp, #32]
    6d2c:	2b01      	cmp	r3, #1
    6d2e:	d100      	bne.n	6d32 <_svfprintf_r+0xa5a>
    6d30:	e184      	b.n	703c <_svfprintf_r+0xd64>
    6d32:	2b02      	cmp	r3, #2
    6d34:	d129      	bne.n	6d8a <_svfprintf_r+0xab2>
    6d36:	9408      	str	r4, [sp, #32]
    6d38:	2300      	movs	r3, #0
    6d3a:	2400      	movs	r4, #0
    6d3c:	930c      	str	r3, [sp, #48]	; 0x30
    6d3e:	940d      	str	r4, [sp, #52]	; 0x34
    6d40:	e4c5      	b.n	66ce <_svfprintf_r+0x3f6>
    6d42:	003a      	movs	r2, r7
    6d44:	9906      	ldr	r1, [sp, #24]
    6d46:	9809      	ldr	r0, [sp, #36]	; 0x24
    6d48:	f002 fe36 	bl	99b8 <__ssprint_r>
    6d4c:	2800      	cmp	r0, #0
    6d4e:	d001      	beq.n	6d54 <_svfprintf_r+0xa7c>
    6d50:	f7ff fb49 	bl	63e6 <_svfprintf_r+0x10e>
    6d54:	68bc      	ldr	r4, [r7, #8]
    6d56:	ae32      	add	r6, sp, #200	; 0xc8
    6d58:	e6a2      	b.n	6aa0 <_svfprintf_r+0x7c8>
    6d5a:	003a      	movs	r2, r7
    6d5c:	9906      	ldr	r1, [sp, #24]
    6d5e:	9809      	ldr	r0, [sp, #36]	; 0x24
    6d60:	f002 fe2a 	bl	99b8 <__ssprint_r>
    6d64:	2800      	cmp	r0, #0
    6d66:	d001      	beq.n	6d6c <_svfprintf_r+0xa94>
    6d68:	f7ff fb3d 	bl	63e6 <_svfprintf_r+0x10e>
    6d6c:	68bc      	ldr	r4, [r7, #8]
    6d6e:	ae32      	add	r6, sp, #200	; 0xc8
    6d70:	e640      	b.n	69f4 <_svfprintf_r+0x71c>
    6d72:	003a      	movs	r2, r7
    6d74:	9906      	ldr	r1, [sp, #24]
    6d76:	9809      	ldr	r0, [sp, #36]	; 0x24
    6d78:	f002 fe1e 	bl	99b8 <__ssprint_r>
    6d7c:	2800      	cmp	r0, #0
    6d7e:	d001      	beq.n	6d84 <_svfprintf_r+0xaac>
    6d80:	f7ff fb31 	bl	63e6 <_svfprintf_r+0x10e>
    6d84:	68bc      	ldr	r4, [r7, #8]
    6d86:	ae32      	add	r6, sp, #200	; 0xc8
    6d88:	e644      	b.n	6a14 <_svfprintf_r+0x73c>
    6d8a:	9408      	str	r4, [sp, #32]
    6d8c:	2300      	movs	r3, #0
    6d8e:	2400      	movs	r4, #0
    6d90:	930c      	str	r3, [sp, #48]	; 0x30
    6d92:	940d      	str	r4, [sp, #52]	; 0x34
    6d94:	980c      	ldr	r0, [sp, #48]	; 0x30
    6d96:	990d      	ldr	r1, [sp, #52]	; 0x34
    6d98:	465b      	mov	r3, fp
    6d9a:	aa32      	add	r2, sp, #200	; 0xc8
    6d9c:	9307      	str	r3, [sp, #28]
    6d9e:	4691      	mov	r9, r2
    6da0:	46b3      	mov	fp, r6
    6da2:	e000      	b.n	6da6 <_svfprintf_r+0xace>
    6da4:	46a1      	mov	r9, r4
    6da6:	074a      	lsls	r2, r1, #29
    6da8:	4694      	mov	ip, r2
    6daa:	464b      	mov	r3, r9
    6dac:	4665      	mov	r5, ip
    6dae:	1e5c      	subs	r4, r3, #1
    6db0:	08c6      	lsrs	r6, r0, #3
    6db2:	2307      	movs	r3, #7
    6db4:	08ca      	lsrs	r2, r1, #3
    6db6:	4335      	orrs	r5, r6
    6db8:	0011      	movs	r1, r2
    6dba:	002a      	movs	r2, r5
    6dbc:	4003      	ands	r3, r0
    6dbe:	3330      	adds	r3, #48	; 0x30
    6dc0:	7023      	strb	r3, [r4, #0]
    6dc2:	0028      	movs	r0, r5
    6dc4:	430a      	orrs	r2, r1
    6dc6:	d1ed      	bne.n	6da4 <_svfprintf_r+0xacc>
    6dc8:	900c      	str	r0, [sp, #48]	; 0x30
    6dca:	910d      	str	r1, [sp, #52]	; 0x34
    6dcc:	9907      	ldr	r1, [sp, #28]
    6dce:	465e      	mov	r6, fp
    6dd0:	468b      	mov	fp, r1
    6dd2:	9908      	ldr	r1, [sp, #32]
    6dd4:	464a      	mov	r2, r9
    6dd6:	9411      	str	r4, [sp, #68]	; 0x44
    6dd8:	07c9      	lsls	r1, r1, #31
    6dda:	d500      	bpl.n	6dde <_svfprintf_r+0xb06>
    6ddc:	e13d      	b.n	705a <_svfprintf_r+0xd82>
    6dde:	ab32      	add	r3, sp, #200	; 0xc8
    6de0:	1b1b      	subs	r3, r3, r4
    6de2:	930e      	str	r3, [sp, #56]	; 0x38
    6de4:	f7ff fb88 	bl	64f8 <_svfprintf_r+0x220>
    6de8:	0000b42c 	.word	0x0000b42c
    6dec:	0000b428 	.word	0x0000b428
    6df0:	0000b43c 	.word	0x0000b43c
    6df4:	981f      	ldr	r0, [sp, #124]	; 0x7c
    6df6:	2800      	cmp	r0, #0
    6df8:	dc00      	bgt.n	6dfc <_svfprintf_r+0xb24>
    6dfa:	e296      	b.n	732a <_svfprintf_r+0x1052>
    6dfc:	9a13      	ldr	r2, [sp, #76]	; 0x4c
    6dfe:	9914      	ldr	r1, [sp, #80]	; 0x50
    6e00:	0013      	movs	r3, r2
    6e02:	4690      	mov	r8, r2
    6e04:	428b      	cmp	r3, r1
    6e06:	dd00      	ble.n	6e0a <_svfprintf_r+0xb32>
    6e08:	4688      	mov	r8, r1
    6e0a:	4643      	mov	r3, r8
    6e0c:	2b00      	cmp	r3, #0
    6e0e:	dd0c      	ble.n	6e2a <_svfprintf_r+0xb52>
    6e10:	9b11      	ldr	r3, [sp, #68]	; 0x44
    6e12:	4444      	add	r4, r8
    6e14:	6033      	str	r3, [r6, #0]
    6e16:	4643      	mov	r3, r8
    6e18:	6073      	str	r3, [r6, #4]
    6e1a:	687b      	ldr	r3, [r7, #4]
    6e1c:	60bc      	str	r4, [r7, #8]
    6e1e:	3301      	adds	r3, #1
    6e20:	607b      	str	r3, [r7, #4]
    6e22:	2b07      	cmp	r3, #7
    6e24:	dd00      	ble.n	6e28 <_svfprintf_r+0xb50>
    6e26:	e3b7      	b.n	7598 <_svfprintf_r+0x12c0>
    6e28:	3608      	adds	r6, #8
    6e2a:	4643      	mov	r3, r8
    6e2c:	43db      	mvns	r3, r3
    6e2e:	4642      	mov	r2, r8
    6e30:	17db      	asrs	r3, r3, #31
    6e32:	4013      	ands	r3, r2
    6e34:	9a13      	ldr	r2, [sp, #76]	; 0x4c
    6e36:	1ad3      	subs	r3, r2, r3
    6e38:	4698      	mov	r8, r3
    6e3a:	2b00      	cmp	r3, #0
    6e3c:	dc00      	bgt.n	6e40 <_svfprintf_r+0xb68>
    6e3e:	e128      	b.n	7092 <_svfprintf_r+0xdba>
    6e40:	2b10      	cmp	r3, #16
    6e42:	dc01      	bgt.n	6e48 <_svfprintf_r+0xb70>
    6e44:	f000 fce7 	bl	7816 <_svfprintf_r+0x153e>
    6e48:	4acf      	ldr	r2, [pc, #828]	; (7188 <_svfprintf_r+0xeb0>)
    6e4a:	0021      	movs	r1, r4
    6e4c:	4691      	mov	r9, r2
    6e4e:	2210      	movs	r2, #16
    6e50:	687b      	ldr	r3, [r7, #4]
    6e52:	4692      	mov	sl, r2
    6e54:	9d09      	ldr	r5, [sp, #36]	; 0x24
    6e56:	0032      	movs	r2, r6
    6e58:	464c      	mov	r4, r9
    6e5a:	4646      	mov	r6, r8
    6e5c:	e004      	b.n	6e68 <_svfprintf_r+0xb90>
    6e5e:	3208      	adds	r2, #8
    6e60:	3e10      	subs	r6, #16
    6e62:	2e10      	cmp	r6, #16
    6e64:	dc00      	bgt.n	6e68 <_svfprintf_r+0xb90>
    6e66:	e104      	b.n	7072 <_svfprintf_r+0xd9a>
    6e68:	4650      	mov	r0, sl
    6e6a:	3110      	adds	r1, #16
    6e6c:	3301      	adds	r3, #1
    6e6e:	6014      	str	r4, [r2, #0]
    6e70:	6050      	str	r0, [r2, #4]
    6e72:	60b9      	str	r1, [r7, #8]
    6e74:	607b      	str	r3, [r7, #4]
    6e76:	2b07      	cmp	r3, #7
    6e78:	ddf1      	ble.n	6e5e <_svfprintf_r+0xb86>
    6e7a:	003a      	movs	r2, r7
    6e7c:	9906      	ldr	r1, [sp, #24]
    6e7e:	0028      	movs	r0, r5
    6e80:	f002 fd9a 	bl	99b8 <__ssprint_r>
    6e84:	2800      	cmp	r0, #0
    6e86:	d001      	beq.n	6e8c <_svfprintf_r+0xbb4>
    6e88:	f7ff faad 	bl	63e6 <_svfprintf_r+0x10e>
    6e8c:	68b9      	ldr	r1, [r7, #8]
    6e8e:	687b      	ldr	r3, [r7, #4]
    6e90:	aa32      	add	r2, sp, #200	; 0xc8
    6e92:	e7e5      	b.n	6e60 <_svfprintf_r+0xb88>
    6e94:	9b0d      	ldr	r3, [sp, #52]	; 0x34
    6e96:	2b00      	cmp	r3, #0
    6e98:	d100      	bne.n	6e9c <_svfprintf_r+0xbc4>
    6e9a:	e0ca      	b.n	7032 <_svfprintf_r+0xd5a>
    6e9c:	9c0c      	ldr	r4, [sp, #48]	; 0x30
    6e9e:	9d0d      	ldr	r5, [sp, #52]	; 0x34
    6ea0:	ab32      	add	r3, sp, #200	; 0xc8
    6ea2:	46b1      	mov	r9, r6
    6ea4:	001e      	movs	r6, r3
    6ea6:	0020      	movs	r0, r4
    6ea8:	0029      	movs	r1, r5
    6eaa:	220a      	movs	r2, #10
    6eac:	2300      	movs	r3, #0
    6eae:	f7fc ff4d 	bl	3d4c <__aeabi_uldivmod>
    6eb2:	3e01      	subs	r6, #1
    6eb4:	3230      	adds	r2, #48	; 0x30
    6eb6:	7032      	strb	r2, [r6, #0]
    6eb8:	2300      	movs	r3, #0
    6eba:	0020      	movs	r0, r4
    6ebc:	0029      	movs	r1, r5
    6ebe:	220a      	movs	r2, #10
    6ec0:	f7fc ff44 	bl	3d4c <__aeabi_uldivmod>
    6ec4:	0003      	movs	r3, r0
    6ec6:	0004      	movs	r4, r0
    6ec8:	000d      	movs	r5, r1
    6eca:	430b      	orrs	r3, r1
    6ecc:	d1eb      	bne.n	6ea6 <_svfprintf_r+0xbce>
    6ece:	0032      	movs	r2, r6
    6ed0:	ab32      	add	r3, sp, #200	; 0xc8
    6ed2:	1a9b      	subs	r3, r3, r2
    6ed4:	9611      	str	r6, [sp, #68]	; 0x44
    6ed6:	940c      	str	r4, [sp, #48]	; 0x30
    6ed8:	950d      	str	r5, [sp, #52]	; 0x34
    6eda:	464e      	mov	r6, r9
    6edc:	930e      	str	r3, [sp, #56]	; 0x38
    6ede:	f7ff fb0b 	bl	64f8 <_svfprintf_r+0x220>
    6ee2:	2300      	movs	r3, #0
    6ee4:	930e      	str	r3, [sp, #56]	; 0x38
    6ee6:	ab32      	add	r3, sp, #200	; 0xc8
    6ee8:	9311      	str	r3, [sp, #68]	; 0x44
    6eea:	f7ff fb05 	bl	64f8 <_svfprintf_r+0x220>
    6eee:	003a      	movs	r2, r7
    6ef0:	9906      	ldr	r1, [sp, #24]
    6ef2:	9809      	ldr	r0, [sp, #36]	; 0x24
    6ef4:	f002 fd60 	bl	99b8 <__ssprint_r>
    6ef8:	2800      	cmp	r0, #0
    6efa:	d001      	beq.n	6f00 <_svfprintf_r+0xc28>
    6efc:	f7ff fa73 	bl	63e6 <_svfprintf_r+0x10e>
    6f00:	ab16      	add	r3, sp, #88	; 0x58
    6f02:	7fdb      	ldrb	r3, [r3, #31]
    6f04:	68bc      	ldr	r4, [r7, #8]
    6f06:	4698      	mov	r8, r3
    6f08:	ae32      	add	r6, sp, #200	; 0xc8
    6f0a:	e560      	b.n	69ce <_svfprintf_r+0x6f6>
    6f0c:	9b14      	ldr	r3, [sp, #80]	; 0x50
    6f0e:	1e5d      	subs	r5, r3, #1
    6f10:	2d00      	cmp	r5, #0
    6f12:	dc00      	bgt.n	6f16 <_svfprintf_r+0xc3e>
    6f14:	e666      	b.n	6be4 <_svfprintf_r+0x90c>
    6f16:	4b9c      	ldr	r3, [pc, #624]	; (7188 <_svfprintf_r+0xeb0>)
    6f18:	4699      	mov	r9, r3
    6f1a:	2d10      	cmp	r5, #16
    6f1c:	dd29      	ble.n	6f72 <_svfprintf_r+0xc9a>
    6f1e:	2310      	movs	r3, #16
    6f20:	0032      	movs	r2, r6
    6f22:	469a      	mov	sl, r3
    6f24:	002e      	movs	r6, r5
    6f26:	0021      	movs	r1, r4
    6f28:	4643      	mov	r3, r8
    6f2a:	9c09      	ldr	r4, [sp, #36]	; 0x24
    6f2c:	464d      	mov	r5, r9
    6f2e:	e003      	b.n	6f38 <_svfprintf_r+0xc60>
    6f30:	3e10      	subs	r6, #16
    6f32:	3208      	adds	r2, #8
    6f34:	2e10      	cmp	r6, #16
    6f36:	dd17      	ble.n	6f68 <_svfprintf_r+0xc90>
    6f38:	4650      	mov	r0, sl
    6f3a:	3110      	adds	r1, #16
    6f3c:	3301      	adds	r3, #1
    6f3e:	6015      	str	r5, [r2, #0]
    6f40:	6050      	str	r0, [r2, #4]
    6f42:	60b9      	str	r1, [r7, #8]
    6f44:	607b      	str	r3, [r7, #4]
    6f46:	2b07      	cmp	r3, #7
    6f48:	ddf2      	ble.n	6f30 <_svfprintf_r+0xc58>
    6f4a:	003a      	movs	r2, r7
    6f4c:	9906      	ldr	r1, [sp, #24]
    6f4e:	0020      	movs	r0, r4
    6f50:	f002 fd32 	bl	99b8 <__ssprint_r>
    6f54:	2800      	cmp	r0, #0
    6f56:	d001      	beq.n	6f5c <_svfprintf_r+0xc84>
    6f58:	f7ff fa45 	bl	63e6 <_svfprintf_r+0x10e>
    6f5c:	3e10      	subs	r6, #16
    6f5e:	68b9      	ldr	r1, [r7, #8]
    6f60:	687b      	ldr	r3, [r7, #4]
    6f62:	aa32      	add	r2, sp, #200	; 0xc8
    6f64:	2e10      	cmp	r6, #16
    6f66:	dce7      	bgt.n	6f38 <_svfprintf_r+0xc60>
    6f68:	46a9      	mov	r9, r5
    6f6a:	000c      	movs	r4, r1
    6f6c:	0035      	movs	r5, r6
    6f6e:	4698      	mov	r8, r3
    6f70:	0016      	movs	r6, r2
    6f72:	464b      	mov	r3, r9
    6f74:	6075      	str	r5, [r6, #4]
    6f76:	6033      	str	r3, [r6, #0]
    6f78:	1964      	adds	r4, r4, r5
    6f7a:	e629      	b.n	6bd0 <_svfprintf_r+0x8f8>
    6f7c:	9b0f      	ldr	r3, [sp, #60]	; 0x3c
    6f7e:	681a      	ldr	r2, [r3, #0]
    6f80:	f7ff fbfb 	bl	677a <_svfprintf_r+0x4a2>
    6f84:	6813      	ldr	r3, [r2, #0]
    6f86:	9307      	str	r3, [sp, #28]
    6f88:	f7ff fa82 	bl	6490 <_svfprintf_r+0x1b8>
    6f8c:	9b0f      	ldr	r3, [sp, #60]	; 0x3c
    6f8e:	681a      	ldr	r2, [r3, #0]
    6f90:	f7ff fb84 	bl	669c <_svfprintf_r+0x3c4>
    6f94:	9b0f      	ldr	r3, [sp, #60]	; 0x3c
    6f96:	681a      	ldr	r2, [r3, #0]
    6f98:	f7ff fbd1 	bl	673e <_svfprintf_r+0x466>
    6f9c:	9b19      	ldr	r3, [sp, #100]	; 0x64
    6f9e:	68ba      	ldr	r2, [r7, #8]
    6fa0:	6033      	str	r3, [r6, #0]
    6fa2:	9b18      	ldr	r3, [sp, #96]	; 0x60
    6fa4:	469c      	mov	ip, r3
    6fa6:	6073      	str	r3, [r6, #4]
    6fa8:	687b      	ldr	r3, [r7, #4]
    6faa:	4462      	add	r2, ip
    6fac:	3301      	adds	r3, #1
    6fae:	0014      	movs	r4, r2
    6fb0:	60ba      	str	r2, [r7, #8]
    6fb2:	607b      	str	r3, [r7, #4]
    6fb4:	2b07      	cmp	r3, #7
    6fb6:	dd00      	ble.n	6fba <_svfprintf_r+0xce2>
    6fb8:	e202      	b.n	73c0 <_svfprintf_r+0x10e8>
    6fba:	3608      	adds	r6, #8
    6fbc:	9b14      	ldr	r3, [sp, #80]	; 0x50
    6fbe:	1e5d      	subs	r5, r3, #1
    6fc0:	2d00      	cmp	r5, #0
    6fc2:	dc00      	bgt.n	6fc6 <_svfprintf_r+0xcee>
    6fc4:	e57e      	b.n	6ac4 <_svfprintf_r+0x7ec>
    6fc6:	4a70      	ldr	r2, [pc, #448]	; (7188 <_svfprintf_r+0xeb0>)
    6fc8:	687b      	ldr	r3, [r7, #4]
    6fca:	4691      	mov	r9, r2
    6fcc:	2d10      	cmp	r5, #16
    6fce:	dd25      	ble.n	701c <_svfprintf_r+0xd44>
    6fd0:	2210      	movs	r2, #16
    6fd2:	0021      	movs	r1, r4
    6fd4:	4690      	mov	r8, r2
    6fd6:	9c09      	ldr	r4, [sp, #36]	; 0x24
    6fd8:	0032      	movs	r2, r6
    6fda:	002e      	movs	r6, r5
    6fdc:	464d      	mov	r5, r9
    6fde:	e003      	b.n	6fe8 <_svfprintf_r+0xd10>
    6fe0:	3208      	adds	r2, #8
    6fe2:	3e10      	subs	r6, #16
    6fe4:	2e10      	cmp	r6, #16
    6fe6:	dd15      	ble.n	7014 <_svfprintf_r+0xd3c>
    6fe8:	4640      	mov	r0, r8
    6fea:	3110      	adds	r1, #16
    6fec:	3301      	adds	r3, #1
    6fee:	6015      	str	r5, [r2, #0]
    6ff0:	6050      	str	r0, [r2, #4]
    6ff2:	60b9      	str	r1, [r7, #8]
    6ff4:	607b      	str	r3, [r7, #4]
    6ff6:	2b07      	cmp	r3, #7
    6ff8:	ddf2      	ble.n	6fe0 <_svfprintf_r+0xd08>
    6ffa:	003a      	movs	r2, r7
    6ffc:	9906      	ldr	r1, [sp, #24]
    6ffe:	0020      	movs	r0, r4
    7000:	f002 fcda 	bl	99b8 <__ssprint_r>
    7004:	2800      	cmp	r0, #0
    7006:	d001      	beq.n	700c <_svfprintf_r+0xd34>
    7008:	f7ff f9ed 	bl	63e6 <_svfprintf_r+0x10e>
    700c:	68b9      	ldr	r1, [r7, #8]
    700e:	687b      	ldr	r3, [r7, #4]
    7010:	aa32      	add	r2, sp, #200	; 0xc8
    7012:	e7e6      	b.n	6fe2 <_svfprintf_r+0xd0a>
    7014:	46a9      	mov	r9, r5
    7016:	000c      	movs	r4, r1
    7018:	0035      	movs	r5, r6
    701a:	0016      	movs	r6, r2
    701c:	464a      	mov	r2, r9
    701e:	1964      	adds	r4, r4, r5
    7020:	3301      	adds	r3, #1
    7022:	6032      	str	r2, [r6, #0]
    7024:	6075      	str	r5, [r6, #4]
    7026:	60bc      	str	r4, [r7, #8]
    7028:	607b      	str	r3, [r7, #4]
    702a:	2b07      	cmp	r3, #7
    702c:	dc00      	bgt.n	7030 <_svfprintf_r+0xd58>
    702e:	e548      	b.n	6ac2 <_svfprintf_r+0x7ea>
    7030:	e5e5      	b.n	6bfe <_svfprintf_r+0x926>
    7032:	9b0c      	ldr	r3, [sp, #48]	; 0x30
    7034:	2b09      	cmp	r3, #9
    7036:	d900      	bls.n	703a <_svfprintf_r+0xd62>
    7038:	e730      	b.n	6e9c <_svfprintf_r+0xbc4>
    703a:	9c08      	ldr	r4, [sp, #32]
    703c:	2227      	movs	r2, #39	; 0x27
    703e:	9b0c      	ldr	r3, [sp, #48]	; 0x30
    7040:	a928      	add	r1, sp, #160	; 0xa0
    7042:	3330      	adds	r3, #48	; 0x30
    7044:	548b      	strb	r3, [r1, r2]
    7046:	2301      	movs	r3, #1
    7048:	aa16      	add	r2, sp, #88	; 0x58
    704a:	4694      	mov	ip, r2
    704c:	930e      	str	r3, [sp, #56]	; 0x38
    704e:	336e      	adds	r3, #110	; 0x6e
    7050:	4463      	add	r3, ip
    7052:	9408      	str	r4, [sp, #32]
    7054:	9311      	str	r3, [sp, #68]	; 0x44
    7056:	f7ff fa4f 	bl	64f8 <_svfprintf_r+0x220>
    705a:	2b30      	cmp	r3, #48	; 0x30
    705c:	d100      	bne.n	7060 <_svfprintf_r+0xd88>
    705e:	e20b      	b.n	7478 <_svfprintf_r+0x11a0>
    7060:	2330      	movs	r3, #48	; 0x30
    7062:	3a02      	subs	r2, #2
    7064:	7013      	strb	r3, [r2, #0]
    7066:	ab32      	add	r3, sp, #200	; 0xc8
    7068:	1a9b      	subs	r3, r3, r2
    706a:	930e      	str	r3, [sp, #56]	; 0x38
    706c:	9211      	str	r2, [sp, #68]	; 0x44
    706e:	f7ff fa43 	bl	64f8 <_svfprintf_r+0x220>
    7072:	46b0      	mov	r8, r6
    7074:	46a1      	mov	r9, r4
    7076:	0016      	movs	r6, r2
    7078:	000c      	movs	r4, r1
    707a:	464a      	mov	r2, r9
    707c:	6032      	str	r2, [r6, #0]
    707e:	4642      	mov	r2, r8
    7080:	4444      	add	r4, r8
    7082:	3301      	adds	r3, #1
    7084:	6072      	str	r2, [r6, #4]
    7086:	60bc      	str	r4, [r7, #8]
    7088:	607b      	str	r3, [r7, #4]
    708a:	2b07      	cmp	r3, #7
    708c:	dd00      	ble.n	7090 <_svfprintf_r+0xdb8>
    708e:	e29c      	b.n	75ca <_svfprintf_r+0x12f2>
    7090:	3608      	adds	r6, #8
    7092:	9b1f      	ldr	r3, [sp, #124]	; 0x7c
    7094:	9a14      	ldr	r2, [sp, #80]	; 0x50
    7096:	4293      	cmp	r3, r2
    7098:	db4c      	blt.n	7134 <_svfprintf_r+0xe5c>
    709a:	9a08      	ldr	r2, [sp, #32]
    709c:	07d2      	lsls	r2, r2, #31
    709e:	d449      	bmi.n	7134 <_svfprintf_r+0xe5c>
    70a0:	9a14      	ldr	r2, [sp, #80]	; 0x50
    70a2:	9913      	ldr	r1, [sp, #76]	; 0x4c
    70a4:	1ad3      	subs	r3, r2, r3
    70a6:	1a52      	subs	r2, r2, r1
    70a8:	4690      	mov	r8, r2
    70aa:	429a      	cmp	r2, r3
    70ac:	dd00      	ble.n	70b0 <_svfprintf_r+0xdd8>
    70ae:	4698      	mov	r8, r3
    70b0:	4642      	mov	r2, r8
    70b2:	2a00      	cmp	r2, #0
    70b4:	dd0f      	ble.n	70d6 <_svfprintf_r+0xdfe>
    70b6:	9913      	ldr	r1, [sp, #76]	; 0x4c
    70b8:	9a11      	ldr	r2, [sp, #68]	; 0x44
    70ba:	468c      	mov	ip, r1
    70bc:	4462      	add	r2, ip
    70be:	6032      	str	r2, [r6, #0]
    70c0:	4642      	mov	r2, r8
    70c2:	6072      	str	r2, [r6, #4]
    70c4:	687a      	ldr	r2, [r7, #4]
    70c6:	4444      	add	r4, r8
    70c8:	3201      	adds	r2, #1
    70ca:	60bc      	str	r4, [r7, #8]
    70cc:	607a      	str	r2, [r7, #4]
    70ce:	2a07      	cmp	r2, #7
    70d0:	dd00      	ble.n	70d4 <_svfprintf_r+0xdfc>
    70d2:	e286      	b.n	75e2 <_svfprintf_r+0x130a>
    70d4:	3608      	adds	r6, #8
    70d6:	4642      	mov	r2, r8
    70d8:	43d5      	mvns	r5, r2
    70da:	17ed      	asrs	r5, r5, #31
    70dc:	4015      	ands	r5, r2
    70de:	1b5d      	subs	r5, r3, r5
    70e0:	2d00      	cmp	r5, #0
    70e2:	dc00      	bgt.n	70e6 <_svfprintf_r+0xe0e>
    70e4:	e4ee      	b.n	6ac4 <_svfprintf_r+0x7ec>
    70e6:	4a28      	ldr	r2, [pc, #160]	; (7188 <_svfprintf_r+0xeb0>)
    70e8:	687b      	ldr	r3, [r7, #4]
    70ea:	4691      	mov	r9, r2
    70ec:	2d10      	cmp	r5, #16
    70ee:	dd95      	ble.n	701c <_svfprintf_r+0xd44>
    70f0:	2210      	movs	r2, #16
    70f2:	0021      	movs	r1, r4
    70f4:	4690      	mov	r8, r2
    70f6:	9c09      	ldr	r4, [sp, #36]	; 0x24
    70f8:	0032      	movs	r2, r6
    70fa:	002e      	movs	r6, r5
    70fc:	464d      	mov	r5, r9
    70fe:	e003      	b.n	7108 <_svfprintf_r+0xe30>
    7100:	3208      	adds	r2, #8
    7102:	3e10      	subs	r6, #16
    7104:	2e10      	cmp	r6, #16
    7106:	dd85      	ble.n	7014 <_svfprintf_r+0xd3c>
    7108:	4640      	mov	r0, r8
    710a:	3110      	adds	r1, #16
    710c:	3301      	adds	r3, #1
    710e:	6015      	str	r5, [r2, #0]
    7110:	6050      	str	r0, [r2, #4]
    7112:	60b9      	str	r1, [r7, #8]
    7114:	607b      	str	r3, [r7, #4]
    7116:	2b07      	cmp	r3, #7
    7118:	ddf2      	ble.n	7100 <_svfprintf_r+0xe28>
    711a:	003a      	movs	r2, r7
    711c:	9906      	ldr	r1, [sp, #24]
    711e:	0020      	movs	r0, r4
    7120:	f002 fc4a 	bl	99b8 <__ssprint_r>
    7124:	2800      	cmp	r0, #0
    7126:	d001      	beq.n	712c <_svfprintf_r+0xe54>
    7128:	f7ff f95d 	bl	63e6 <_svfprintf_r+0x10e>
    712c:	68b9      	ldr	r1, [r7, #8]
    712e:	687b      	ldr	r3, [r7, #4]
    7130:	aa32      	add	r2, sp, #200	; 0xc8
    7132:	e7e6      	b.n	7102 <_svfprintf_r+0xe2a>
    7134:	9a19      	ldr	r2, [sp, #100]	; 0x64
    7136:	6032      	str	r2, [r6, #0]
    7138:	9a18      	ldr	r2, [sp, #96]	; 0x60
    713a:	4694      	mov	ip, r2
    713c:	6072      	str	r2, [r6, #4]
    713e:	687a      	ldr	r2, [r7, #4]
    7140:	4464      	add	r4, ip
    7142:	3201      	adds	r2, #1
    7144:	60bc      	str	r4, [r7, #8]
    7146:	607a      	str	r2, [r7, #4]
    7148:	2a07      	cmp	r2, #7
    714a:	dd00      	ble.n	714e <_svfprintf_r+0xe76>
    714c:	e230      	b.n	75b0 <_svfprintf_r+0x12d8>
    714e:	3608      	adds	r6, #8
    7150:	e7a6      	b.n	70a0 <_svfprintf_r+0xdc8>
    7152:	003a      	movs	r2, r7
    7154:	9906      	ldr	r1, [sp, #24]
    7156:	9809      	ldr	r0, [sp, #36]	; 0x24
    7158:	f002 fc2e 	bl	99b8 <__ssprint_r>
    715c:	2800      	cmp	r0, #0
    715e:	d001      	beq.n	7164 <_svfprintf_r+0xe8c>
    7160:	f7ff f941 	bl	63e6 <_svfprintf_r+0x10e>
    7164:	68bc      	ldr	r4, [r7, #8]
    7166:	687b      	ldr	r3, [r7, #4]
    7168:	ae32      	add	r6, sp, #200	; 0xc8
    716a:	e513      	b.n	6b94 <_svfprintf_r+0x8bc>
    716c:	003a      	movs	r2, r7
    716e:	9906      	ldr	r1, [sp, #24]
    7170:	9809      	ldr	r0, [sp, #36]	; 0x24
    7172:	f002 fc21 	bl	99b8 <__ssprint_r>
    7176:	2800      	cmp	r0, #0
    7178:	d001      	beq.n	717e <_svfprintf_r+0xea6>
    717a:	f7ff f934 	bl	63e6 <_svfprintf_r+0x10e>
    717e:	687b      	ldr	r3, [r7, #4]
    7180:	68bc      	ldr	r4, [r7, #8]
    7182:	4698      	mov	r8, r3
    7184:	ae32      	add	r6, sp, #200	; 0xc8
    7186:	e513      	b.n	6bb0 <_svfprintf_r+0x8d8>
    7188:	0000b43c 	.word	0x0000b43c
    718c:	2307      	movs	r3, #7
    718e:	3207      	adds	r2, #7
    7190:	439a      	bics	r2, r3
    7192:	3301      	adds	r3, #1
    7194:	469c      	mov	ip, r3
    7196:	4494      	add	ip, r2
    7198:	4663      	mov	r3, ip
    719a:	930f      	str	r3, [sp, #60]	; 0x3c
    719c:	6853      	ldr	r3, [r2, #4]
    719e:	6812      	ldr	r2, [r2, #0]
    71a0:	930d      	str	r3, [sp, #52]	; 0x34
    71a2:	920c      	str	r2, [sp, #48]	; 0x30
    71a4:	2b00      	cmp	r3, #0
    71a6:	db01      	blt.n	71ac <_svfprintf_r+0xed4>
    71a8:	f7ff f97a 	bl	64a0 <_svfprintf_r+0x1c8>
    71ac:	980c      	ldr	r0, [sp, #48]	; 0x30
    71ae:	990d      	ldr	r1, [sp, #52]	; 0x34
    71b0:	2300      	movs	r3, #0
    71b2:	4242      	negs	r2, r0
    71b4:	418b      	sbcs	r3, r1
    71b6:	0011      	movs	r1, r2
    71b8:	001a      	movs	r2, r3
    71ba:	232d      	movs	r3, #45	; 0x2d
    71bc:	a816      	add	r0, sp, #88	; 0x58
    71be:	77c3      	strb	r3, [r0, #31]
    71c0:	0008      	movs	r0, r1
    71c2:	4310      	orrs	r0, r2
    71c4:	910c      	str	r1, [sp, #48]	; 0x30
    71c6:	920d      	str	r2, [sp, #52]	; 0x34
    71c8:	4698      	mov	r8, r3
    71ca:	0002      	movs	r2, r0
    71cc:	3b2c      	subs	r3, #44	; 0x2c
    71ce:	f7ff f970 	bl	64b2 <_svfprintf_r+0x1da>
    71d2:	003a      	movs	r2, r7
    71d4:	9906      	ldr	r1, [sp, #24]
    71d6:	9809      	ldr	r0, [sp, #36]	; 0x24
    71d8:	f002 fbee 	bl	99b8 <__ssprint_r>
    71dc:	2800      	cmp	r0, #0
    71de:	d001      	beq.n	71e4 <_svfprintf_r+0xf0c>
    71e0:	f7ff f901 	bl	63e6 <_svfprintf_r+0x10e>
    71e4:	68bc      	ldr	r4, [r7, #8]
    71e6:	ae32      	add	r6, sp, #200	; 0xc8
    71e8:	e418      	b.n	6a1c <_svfprintf_r+0x744>
    71ea:	9916      	ldr	r1, [sp, #88]	; 0x58
    71ec:	9d15      	ldr	r5, [sp, #84]	; 0x54
    71ee:	000a      	movs	r2, r1
    71f0:	0008      	movs	r0, r1
    71f2:	002b      	movs	r3, r5
    71f4:	0029      	movs	r1, r5
    71f6:	f003 fa57 	bl	a6a8 <__aeabi_dcmpun>
    71fa:	2800      	cmp	r0, #0
    71fc:	d000      	beq.n	7200 <_svfprintf_r+0xf28>
    71fe:	e2e6      	b.n	77ce <_svfprintf_r+0x14f6>
    7200:	4653      	mov	r3, sl
    7202:	3301      	adds	r3, #1
    7204:	d100      	bne.n	7208 <_svfprintf_r+0xf30>
    7206:	e20d      	b.n	7624 <_svfprintf_r+0x134c>
    7208:	2320      	movs	r3, #32
    720a:	9a12      	ldr	r2, [sp, #72]	; 0x48
    720c:	439a      	bics	r2, r3
    720e:	920e      	str	r2, [sp, #56]	; 0x38
    7210:	2a47      	cmp	r2, #71	; 0x47
    7212:	d100      	bne.n	7216 <_svfprintf_r+0xf3e>
    7214:	e11c      	b.n	7450 <_svfprintf_r+0x1178>
    7216:	2380      	movs	r3, #128	; 0x80
    7218:	005b      	lsls	r3, r3, #1
    721a:	4323      	orrs	r3, r4
    721c:	9308      	str	r3, [sp, #32]
    721e:	9b15      	ldr	r3, [sp, #84]	; 0x54
    7220:	2b00      	cmp	r3, #0
    7222:	da00      	bge.n	7226 <_svfprintf_r+0xf4e>
    7224:	e221      	b.n	766a <_svfprintf_r+0x1392>
    7226:	9a16      	ldr	r2, [sp, #88]	; 0x58
    7228:	9307      	str	r3, [sp, #28]
    722a:	2300      	movs	r3, #0
    722c:	4691      	mov	r9, r2
    722e:	9310      	str	r3, [sp, #64]	; 0x40
    7230:	9b12      	ldr	r3, [sp, #72]	; 0x48
    7232:	2b66      	cmp	r3, #102	; 0x66
    7234:	d100      	bne.n	7238 <_svfprintf_r+0xf60>
    7236:	e1fc      	b.n	7632 <_svfprintf_r+0x135a>
    7238:	2b46      	cmp	r3, #70	; 0x46
    723a:	d100      	bne.n	723e <_svfprintf_r+0xf66>
    723c:	e0db      	b.n	73f6 <_svfprintf_r+0x111e>
    723e:	9a0e      	ldr	r2, [sp, #56]	; 0x38
    7240:	9809      	ldr	r0, [sp, #36]	; 0x24
    7242:	3a45      	subs	r2, #69	; 0x45
    7244:	0013      	movs	r3, r2
    7246:	4259      	negs	r1, r3
    7248:	4159      	adcs	r1, r3
    724a:	ab20      	add	r3, sp, #128	; 0x80
    724c:	000d      	movs	r5, r1
    724e:	9303      	str	r3, [sp, #12]
    7250:	ab1f      	add	r3, sp, #124	; 0x7c
    7252:	9302      	str	r3, [sp, #8]
    7254:	2302      	movs	r3, #2
    7256:	aa23      	add	r2, sp, #140	; 0x8c
    7258:	4455      	add	r5, sl
    725a:	921b      	str	r2, [sp, #108]	; 0x6c
    725c:	9204      	str	r2, [sp, #16]
    725e:	9300      	str	r3, [sp, #0]
    7260:	9501      	str	r5, [sp, #4]
    7262:	9b07      	ldr	r3, [sp, #28]
    7264:	464a      	mov	r2, r9
    7266:	f000 fbf9 	bl	7a5c <_dtoa_r>
    726a:	9b12      	ldr	r3, [sp, #72]	; 0x48
    726c:	9011      	str	r0, [sp, #68]	; 0x44
    726e:	2b67      	cmp	r3, #103	; 0x67
    7270:	d000      	beq.n	7274 <_svfprintf_r+0xf9c>
    7272:	e239      	b.n	76e8 <_svfprintf_r+0x1410>
    7274:	9b11      	ldr	r3, [sp, #68]	; 0x44
    7276:	4698      	mov	r8, r3
    7278:	44a8      	add	r8, r5
    727a:	07e3      	lsls	r3, r4, #31
    727c:	d400      	bmi.n	7280 <_svfprintf_r+0xfa8>
    727e:	e28b      	b.n	7798 <_svfprintf_r+0x14c0>
    7280:	2300      	movs	r3, #0
    7282:	2200      	movs	r2, #0
    7284:	4648      	mov	r0, r9
    7286:	9907      	ldr	r1, [sp, #28]
    7288:	f7fe fddc 	bl	5e44 <__aeabi_dcmpeq>
    728c:	4643      	mov	r3, r8
    728e:	2800      	cmp	r0, #0
    7290:	d10a      	bne.n	72a8 <_svfprintf_r+0xfd0>
    7292:	9b23      	ldr	r3, [sp, #140]	; 0x8c
    7294:	4543      	cmp	r3, r8
    7296:	d207      	bcs.n	72a8 <_svfprintf_r+0xfd0>
    7298:	2130      	movs	r1, #48	; 0x30
    729a:	4640      	mov	r0, r8
    729c:	1c5a      	adds	r2, r3, #1
    729e:	9223      	str	r2, [sp, #140]	; 0x8c
    72a0:	7019      	strb	r1, [r3, #0]
    72a2:	9b23      	ldr	r3, [sp, #140]	; 0x8c
    72a4:	4298      	cmp	r0, r3
    72a6:	d8f9      	bhi.n	729c <_svfprintf_r+0xfc4>
    72a8:	9a11      	ldr	r2, [sp, #68]	; 0x44
    72aa:	1a9b      	subs	r3, r3, r2
    72ac:	9314      	str	r3, [sp, #80]	; 0x50
    72ae:	9b0e      	ldr	r3, [sp, #56]	; 0x38
    72b0:	2b47      	cmp	r3, #71	; 0x47
    72b2:	d100      	bne.n	72b6 <_svfprintf_r+0xfde>
    72b4:	e0f6      	b.n	74a4 <_svfprintf_r+0x11cc>
    72b6:	9b12      	ldr	r3, [sp, #72]	; 0x48
    72b8:	2b65      	cmp	r3, #101	; 0x65
    72ba:	dc00      	bgt.n	72be <_svfprintf_r+0xfe6>
    72bc:	e226      	b.n	770c <_svfprintf_r+0x1434>
    72be:	9b12      	ldr	r3, [sp, #72]	; 0x48
    72c0:	2b66      	cmp	r3, #102	; 0x66
    72c2:	d100      	bne.n	72c6 <_svfprintf_r+0xfee>
    72c4:	e1f4      	b.n	76b0 <_svfprintf_r+0x13d8>
    72c6:	9b1f      	ldr	r3, [sp, #124]	; 0x7c
    72c8:	9313      	str	r3, [sp, #76]	; 0x4c
    72ca:	9b14      	ldr	r3, [sp, #80]	; 0x50
    72cc:	9a13      	ldr	r2, [sp, #76]	; 0x4c
    72ce:	0019      	movs	r1, r3
    72d0:	4291      	cmp	r1, r2
    72d2:	dd00      	ble.n	72d6 <_svfprintf_r+0xffe>
    72d4:	e1d4      	b.n	7680 <_svfprintf_r+0x13a8>
    72d6:	07e3      	lsls	r3, r4, #31
    72d8:	d500      	bpl.n	72dc <_svfprintf_r+0x1004>
    72da:	e249      	b.n	7770 <_svfprintf_r+0x1498>
    72dc:	43d3      	mvns	r3, r2
    72de:	17db      	asrs	r3, r3, #31
    72e0:	0011      	movs	r1, r2
    72e2:	401a      	ands	r2, r3
    72e4:	2367      	movs	r3, #103	; 0x67
    72e6:	9207      	str	r2, [sp, #28]
    72e8:	910e      	str	r1, [sp, #56]	; 0x38
    72ea:	9312      	str	r3, [sp, #72]	; 0x48
    72ec:	9b10      	ldr	r3, [sp, #64]	; 0x40
    72ee:	2b00      	cmp	r3, #0
    72f0:	d000      	beq.n	72f4 <_svfprintf_r+0x101c>
    72f2:	e0cf      	b.n	7494 <_svfprintf_r+0x11bc>
    72f4:	ab16      	add	r3, sp, #88	; 0x58
    72f6:	7fdb      	ldrb	r3, [r3, #31]
    72f8:	4698      	mov	r8, r3
    72fa:	2300      	movs	r3, #0
    72fc:	469a      	mov	sl, r3
    72fe:	f7ff f903 	bl	6508 <_svfprintf_r+0x230>
    7302:	9a0f      	ldr	r2, [sp, #60]	; 0x3c
    7304:	990a      	ldr	r1, [sp, #40]	; 0x28
    7306:	6813      	ldr	r3, [r2, #0]
    7308:	6019      	str	r1, [r3, #0]
    730a:	0013      	movs	r3, r2
    730c:	3304      	adds	r3, #4
    730e:	930f      	str	r3, [sp, #60]	; 0x3c
    7310:	f7ff f80d 	bl	632e <_svfprintf_r+0x56>
    7314:	003a      	movs	r2, r7
    7316:	9906      	ldr	r1, [sp, #24]
    7318:	9809      	ldr	r0, [sp, #36]	; 0x24
    731a:	f002 fb4d 	bl	99b8 <__ssprint_r>
    731e:	2800      	cmp	r0, #0
    7320:	d001      	beq.n	7326 <_svfprintf_r+0x104e>
    7322:	f7ff f860 	bl	63e6 <_svfprintf_r+0x10e>
    7326:	ae32      	add	r6, sp, #200	; 0xc8
    7328:	e48e      	b.n	6c48 <_svfprintf_r+0x970>
    732a:	4bde      	ldr	r3, [pc, #888]	; (76a4 <_svfprintf_r+0x13cc>)
    732c:	3401      	adds	r4, #1
    732e:	6033      	str	r3, [r6, #0]
    7330:	2301      	movs	r3, #1
    7332:	6073      	str	r3, [r6, #4]
    7334:	687b      	ldr	r3, [r7, #4]
    7336:	60bc      	str	r4, [r7, #8]
    7338:	3301      	adds	r3, #1
    733a:	607b      	str	r3, [r7, #4]
    733c:	2b07      	cmp	r3, #7
    733e:	dc7a      	bgt.n	7436 <_svfprintf_r+0x115e>
    7340:	3608      	adds	r6, #8
    7342:	2800      	cmp	r0, #0
    7344:	d107      	bne.n	7356 <_svfprintf_r+0x107e>
    7346:	9b14      	ldr	r3, [sp, #80]	; 0x50
    7348:	2b00      	cmp	r3, #0
    734a:	d104      	bne.n	7356 <_svfprintf_r+0x107e>
    734c:	9b08      	ldr	r3, [sp, #32]
    734e:	07db      	lsls	r3, r3, #31
    7350:	d401      	bmi.n	7356 <_svfprintf_r+0x107e>
    7352:	f7ff fbb7 	bl	6ac4 <_svfprintf_r+0x7ec>
    7356:	9b19      	ldr	r3, [sp, #100]	; 0x64
    7358:	6033      	str	r3, [r6, #0]
    735a:	9b18      	ldr	r3, [sp, #96]	; 0x60
    735c:	1919      	adds	r1, r3, r4
    735e:	6073      	str	r3, [r6, #4]
    7360:	687b      	ldr	r3, [r7, #4]
    7362:	60b9      	str	r1, [r7, #8]
    7364:	3301      	adds	r3, #1
    7366:	607b      	str	r3, [r7, #4]
    7368:	2b07      	cmp	r3, #7
    736a:	dd00      	ble.n	736e <_svfprintf_r+0x1096>
    736c:	e1f2      	b.n	7754 <_svfprintf_r+0x147c>
    736e:	0032      	movs	r2, r6
    7370:	3208      	adds	r2, #8
    7372:	2800      	cmp	r0, #0
    7374:	da00      	bge.n	7378 <_svfprintf_r+0x10a0>
    7376:	e1cc      	b.n	7712 <_svfprintf_r+0x143a>
    7378:	9811      	ldr	r0, [sp, #68]	; 0x44
    737a:	3301      	adds	r3, #1
    737c:	6010      	str	r0, [r2, #0]
    737e:	9814      	ldr	r0, [sp, #80]	; 0x50
    7380:	607b      	str	r3, [r7, #4]
    7382:	1844      	adds	r4, r0, r1
    7384:	6050      	str	r0, [r2, #4]
    7386:	60bc      	str	r4, [r7, #8]
    7388:	2b07      	cmp	r3, #7
    738a:	dd00      	ble.n	738e <_svfprintf_r+0x10b6>
    738c:	e437      	b.n	6bfe <_svfprintf_r+0x926>
    738e:	3208      	adds	r2, #8
    7390:	0016      	movs	r6, r2
    7392:	f7ff fb97 	bl	6ac4 <_svfprintf_r+0x7ec>
    7396:	990f      	ldr	r1, [sp, #60]	; 0x3c
    7398:	9a0a      	ldr	r2, [sp, #40]	; 0x28
    739a:	680b      	ldr	r3, [r1, #0]
    739c:	601a      	str	r2, [r3, #0]
    739e:	17d2      	asrs	r2, r2, #31
    73a0:	605a      	str	r2, [r3, #4]
    73a2:	000b      	movs	r3, r1
    73a4:	3304      	adds	r3, #4
    73a6:	930f      	str	r3, [sp, #60]	; 0x3c
    73a8:	f7fe ffc1 	bl	632e <_svfprintf_r+0x56>
    73ac:	464b      	mov	r3, r9
    73ae:	3101      	adds	r1, #1
    73b0:	431c      	orrs	r4, r3
    73b2:	780b      	ldrb	r3, [r1, #0]
    73b4:	f7fe fff4 	bl	63a0 <_svfprintf_r+0xc8>
    73b8:	4bbb      	ldr	r3, [pc, #748]	; (76a8 <_svfprintf_r+0x13d0>)
    73ba:	9311      	str	r3, [sp, #68]	; 0x44
    73bc:	f7ff f937 	bl	662e <_svfprintf_r+0x356>
    73c0:	003a      	movs	r2, r7
    73c2:	9906      	ldr	r1, [sp, #24]
    73c4:	9809      	ldr	r0, [sp, #36]	; 0x24
    73c6:	f002 faf7 	bl	99b8 <__ssprint_r>
    73ca:	2800      	cmp	r0, #0
    73cc:	d001      	beq.n	73d2 <_svfprintf_r+0x10fa>
    73ce:	f7ff f80a 	bl	63e6 <_svfprintf_r+0x10e>
    73d2:	68bc      	ldr	r4, [r7, #8]
    73d4:	ae32      	add	r6, sp, #200	; 0xc8
    73d6:	e5f1      	b.n	6fbc <_svfprintf_r+0xce4>
    73d8:	2140      	movs	r1, #64	; 0x40
    73da:	9809      	ldr	r0, [sp, #36]	; 0x24
    73dc:	f001 fc5c 	bl	8c98 <_malloc_r>
    73e0:	9b06      	ldr	r3, [sp, #24]
    73e2:	6018      	str	r0, [r3, #0]
    73e4:	6118      	str	r0, [r3, #16]
    73e6:	2800      	cmp	r0, #0
    73e8:	d100      	bne.n	73ec <_svfprintf_r+0x1114>
    73ea:	e24f      	b.n	788c <_svfprintf_r+0x15b4>
    73ec:	2340      	movs	r3, #64	; 0x40
    73ee:	9a06      	ldr	r2, [sp, #24]
    73f0:	6153      	str	r3, [r2, #20]
    73f2:	f7fe ff8e 	bl	6312 <_svfprintf_r+0x3a>
    73f6:	ab23      	add	r3, sp, #140	; 0x8c
    73f8:	931b      	str	r3, [sp, #108]	; 0x6c
    73fa:	9304      	str	r3, [sp, #16]
    73fc:	ab20      	add	r3, sp, #128	; 0x80
    73fe:	9303      	str	r3, [sp, #12]
    7400:	ab1f      	add	r3, sp, #124	; 0x7c
    7402:	9302      	str	r3, [sp, #8]
    7404:	4653      	mov	r3, sl
    7406:	9301      	str	r3, [sp, #4]
    7408:	2303      	movs	r3, #3
    740a:	464a      	mov	r2, r9
    740c:	9300      	str	r3, [sp, #0]
    740e:	9809      	ldr	r0, [sp, #36]	; 0x24
    7410:	9b07      	ldr	r3, [sp, #28]
    7412:	f000 fb23 	bl	7a5c <_dtoa_r>
    7416:	4655      	mov	r5, sl
    7418:	9011      	str	r0, [sp, #68]	; 0x44
    741a:	9b11      	ldr	r3, [sp, #68]	; 0x44
    741c:	4698      	mov	r8, r3
    741e:	9b12      	ldr	r3, [sp, #72]	; 0x48
    7420:	44a8      	add	r8, r5
    7422:	2b46      	cmp	r3, #70	; 0x46
    7424:	d000      	beq.n	7428 <_svfprintf_r+0x1150>
    7426:	e72b      	b.n	7280 <_svfprintf_r+0xfa8>
    7428:	9b11      	ldr	r3, [sp, #68]	; 0x44
    742a:	781b      	ldrb	r3, [r3, #0]
    742c:	2b30      	cmp	r3, #48	; 0x30
    742e:	d016      	beq.n	745e <_svfprintf_r+0x1186>
    7430:	9b1f      	ldr	r3, [sp, #124]	; 0x7c
    7432:	4498      	add	r8, r3
    7434:	e724      	b.n	7280 <_svfprintf_r+0xfa8>
    7436:	003a      	movs	r2, r7
    7438:	9906      	ldr	r1, [sp, #24]
    743a:	9809      	ldr	r0, [sp, #36]	; 0x24
    743c:	f002 fabc 	bl	99b8 <__ssprint_r>
    7440:	2800      	cmp	r0, #0
    7442:	d001      	beq.n	7448 <_svfprintf_r+0x1170>
    7444:	f7fe ffcf 	bl	63e6 <_svfprintf_r+0x10e>
    7448:	981f      	ldr	r0, [sp, #124]	; 0x7c
    744a:	68bc      	ldr	r4, [r7, #8]
    744c:	ae32      	add	r6, sp, #200	; 0xc8
    744e:	e778      	b.n	7342 <_svfprintf_r+0x106a>
    7450:	4653      	mov	r3, sl
    7452:	2b00      	cmp	r3, #0
    7454:	d000      	beq.n	7458 <_svfprintf_r+0x1180>
    7456:	e6de      	b.n	7216 <_svfprintf_r+0xf3e>
    7458:	3301      	adds	r3, #1
    745a:	469a      	mov	sl, r3
    745c:	e6db      	b.n	7216 <_svfprintf_r+0xf3e>
    745e:	2200      	movs	r2, #0
    7460:	2300      	movs	r3, #0
    7462:	4648      	mov	r0, r9
    7464:	9907      	ldr	r1, [sp, #28]
    7466:	f7fe fced 	bl	5e44 <__aeabi_dcmpeq>
    746a:	2800      	cmp	r0, #0
    746c:	d1e0      	bne.n	7430 <_svfprintf_r+0x1158>
    746e:	2301      	movs	r3, #1
    7470:	1b5b      	subs	r3, r3, r5
    7472:	931f      	str	r3, [sp, #124]	; 0x7c
    7474:	4498      	add	r8, r3
    7476:	e703      	b.n	7280 <_svfprintf_r+0xfa8>
    7478:	9a11      	ldr	r2, [sp, #68]	; 0x44
    747a:	ab32      	add	r3, sp, #200	; 0xc8
    747c:	1a9b      	subs	r3, r3, r2
    747e:	930e      	str	r3, [sp, #56]	; 0x38
    7480:	f7ff f83a 	bl	64f8 <_svfprintf_r+0x220>
    7484:	9811      	ldr	r0, [sp, #68]	; 0x44
    7486:	f002 fa65 	bl	9954 <strlen>
    748a:	0002      	movs	r2, r0
    748c:	900e      	str	r0, [sp, #56]	; 0x38
    748e:	0003      	movs	r3, r0
    7490:	f7ff f9cd 	bl	682e <_svfprintf_r+0x556>
    7494:	232d      	movs	r3, #45	; 0x2d
    7496:	aa16      	add	r2, sp, #88	; 0x58
    7498:	77d3      	strb	r3, [r2, #31]
    749a:	4698      	mov	r8, r3
    749c:	2300      	movs	r3, #0
    749e:	469a      	mov	sl, r3
    74a0:	f7ff f835 	bl	650e <_svfprintf_r+0x236>
    74a4:	9b1f      	ldr	r3, [sp, #124]	; 0x7c
    74a6:	9313      	str	r3, [sp, #76]	; 0x4c
    74a8:	1cda      	adds	r2, r3, #3
    74aa:	db02      	blt.n	74b2 <_svfprintf_r+0x11da>
    74ac:	459a      	cmp	sl, r3
    74ae:	db00      	blt.n	74b2 <_svfprintf_r+0x11da>
    74b0:	e70b      	b.n	72ca <_svfprintf_r+0xff2>
    74b2:	9b12      	ldr	r3, [sp, #72]	; 0x48
    74b4:	3b02      	subs	r3, #2
    74b6:	9312      	str	r3, [sp, #72]	; 0x48
    74b8:	222c      	movs	r2, #44	; 0x2c
    74ba:	9b13      	ldr	r3, [sp, #76]	; 0x4c
    74bc:	2148      	movs	r1, #72	; 0x48
    74be:	1e5d      	subs	r5, r3, #1
    74c0:	ab16      	add	r3, sp, #88	; 0x58
    74c2:	189b      	adds	r3, r3, r2
    74c4:	466a      	mov	r2, sp
    74c6:	1852      	adds	r2, r2, r1
    74c8:	7812      	ldrb	r2, [r2, #0]
    74ca:	951f      	str	r5, [sp, #124]	; 0x7c
    74cc:	701a      	strb	r2, [r3, #0]
    74ce:	2d00      	cmp	r5, #0
    74d0:	da00      	bge.n	74d4 <_svfprintf_r+0x11fc>
    74d2:	e1a4      	b.n	781e <_svfprintf_r+0x1546>
    74d4:	212d      	movs	r1, #45	; 0x2d
    74d6:	232b      	movs	r3, #43	; 0x2b
    74d8:	aa16      	add	r2, sp, #88	; 0x58
    74da:	1852      	adds	r2, r2, r1
    74dc:	7013      	strb	r3, [r2, #0]
    74de:	2d09      	cmp	r5, #9
    74e0:	dc00      	bgt.n	74e4 <_svfprintf_r+0x120c>
    74e2:	e14c      	b.n	777e <_svfprintf_r+0x14a6>
    74e4:	aa16      	add	r2, sp, #88	; 0x58
    74e6:	233b      	movs	r3, #59	; 0x3b
    74e8:	4694      	mov	ip, r2
    74ea:	4463      	add	r3, ip
    74ec:	469a      	mov	sl, r3
    74ee:	46b1      	mov	r9, r6
    74f0:	46a0      	mov	r8, r4
    74f2:	4656      	mov	r6, sl
    74f4:	e000      	b.n	74f8 <_svfprintf_r+0x1220>
    74f6:	0026      	movs	r6, r4
    74f8:	0028      	movs	r0, r5
    74fa:	210a      	movs	r1, #10
    74fc:	f7fc fbe6 	bl	3ccc <__aeabi_idivmod>
    7500:	1e74      	subs	r4, r6, #1
    7502:	3130      	adds	r1, #48	; 0x30
    7504:	7021      	strb	r1, [r4, #0]
    7506:	0028      	movs	r0, r5
    7508:	210a      	movs	r1, #10
    750a:	f7fc faf9 	bl	3b00 <__divsi3>
    750e:	0005      	movs	r5, r0
    7510:	2809      	cmp	r0, #9
    7512:	dcf0      	bgt.n	74f6 <_svfprintf_r+0x121e>
    7514:	0023      	movs	r3, r4
    7516:	4644      	mov	r4, r8
    7518:	46b0      	mov	r8, r6
    751a:	464e      	mov	r6, r9
    751c:	4699      	mov	r9, r3
    751e:	0003      	movs	r3, r0
    7520:	3330      	adds	r3, #48	; 0x30
    7522:	b2d8      	uxtb	r0, r3
    7524:	4643      	mov	r3, r8
    7526:	3b02      	subs	r3, #2
    7528:	7018      	strb	r0, [r3, #0]
    752a:	459a      	cmp	sl, r3
    752c:	d800      	bhi.n	7530 <_svfprintf_r+0x1258>
    752e:	e1b4      	b.n	789a <_svfprintf_r+0x15c2>
    7530:	4642      	mov	r2, r8
    7532:	9b1b      	ldr	r3, [sp, #108]	; 0x6c
    7534:	4645      	mov	r5, r8
    7536:	1a99      	subs	r1, r3, r2
    7538:	2301      	movs	r3, #1
    753a:	3107      	adds	r1, #7
    753c:	425b      	negs	r3, r3
    753e:	e001      	b.n	7544 <_svfprintf_r+0x126c>
    7540:	5ce8      	ldrb	r0, [r5, r3]
    7542:	3301      	adds	r3, #1
    7544:	aa21      	add	r2, sp, #132	; 0x84
    7546:	18d2      	adds	r2, r2, r3
    7548:	70d0      	strb	r0, [r2, #3]
    754a:	428b      	cmp	r3, r1
    754c:	d1f8      	bne.n	7540 <_svfprintf_r+0x1268>
    754e:	a916      	add	r1, sp, #88	; 0x58
    7550:	468c      	mov	ip, r1
    7552:	222e      	movs	r2, #46	; 0x2e
    7554:	464b      	mov	r3, r9
    7556:	4462      	add	r2, ip
    7558:	4694      	mov	ip, r2
    755a:	1afb      	subs	r3, r7, r3
    755c:	4463      	add	r3, ip
    755e:	aa21      	add	r2, sp, #132	; 0x84
    7560:	9914      	ldr	r1, [sp, #80]	; 0x50
    7562:	1a9b      	subs	r3, r3, r2
    7564:	469c      	mov	ip, r3
    7566:	000a      	movs	r2, r1
    7568:	4462      	add	r2, ip
    756a:	931a      	str	r3, [sp, #104]	; 0x68
    756c:	920e      	str	r2, [sp, #56]	; 0x38
    756e:	2901      	cmp	r1, #1
    7570:	dc00      	bgt.n	7574 <_svfprintf_r+0x129c>
    7572:	e145      	b.n	7800 <_svfprintf_r+0x1528>
    7574:	9a18      	ldr	r2, [sp, #96]	; 0x60
    7576:	9b0e      	ldr	r3, [sp, #56]	; 0x38
    7578:	4694      	mov	ip, r2
    757a:	4463      	add	r3, ip
    757c:	001a      	movs	r2, r3
    757e:	930e      	str	r3, [sp, #56]	; 0x38
    7580:	43db      	mvns	r3, r3
    7582:	17db      	asrs	r3, r3, #31
    7584:	401a      	ands	r2, r3
    7586:	2300      	movs	r3, #0
    7588:	9207      	str	r2, [sp, #28]
    758a:	9313      	str	r3, [sp, #76]	; 0x4c
    758c:	e6ae      	b.n	72ec <_svfprintf_r+0x1014>
    758e:	2301      	movs	r3, #1
    7590:	425b      	negs	r3, r3
    7592:	930a      	str	r3, [sp, #40]	; 0x28
    7594:	f7fe ff2d 	bl	63f2 <_svfprintf_r+0x11a>
    7598:	003a      	movs	r2, r7
    759a:	9906      	ldr	r1, [sp, #24]
    759c:	9809      	ldr	r0, [sp, #36]	; 0x24
    759e:	f002 fa0b 	bl	99b8 <__ssprint_r>
    75a2:	2800      	cmp	r0, #0
    75a4:	d001      	beq.n	75aa <_svfprintf_r+0x12d2>
    75a6:	f7fe ff1e 	bl	63e6 <_svfprintf_r+0x10e>
    75aa:	68bc      	ldr	r4, [r7, #8]
    75ac:	ae32      	add	r6, sp, #200	; 0xc8
    75ae:	e43c      	b.n	6e2a <_svfprintf_r+0xb52>
    75b0:	003a      	movs	r2, r7
    75b2:	9906      	ldr	r1, [sp, #24]
    75b4:	9809      	ldr	r0, [sp, #36]	; 0x24
    75b6:	f002 f9ff 	bl	99b8 <__ssprint_r>
    75ba:	2800      	cmp	r0, #0
    75bc:	d001      	beq.n	75c2 <_svfprintf_r+0x12ea>
    75be:	f7fe ff12 	bl	63e6 <_svfprintf_r+0x10e>
    75c2:	9b1f      	ldr	r3, [sp, #124]	; 0x7c
    75c4:	68bc      	ldr	r4, [r7, #8]
    75c6:	ae32      	add	r6, sp, #200	; 0xc8
    75c8:	e56a      	b.n	70a0 <_svfprintf_r+0xdc8>
    75ca:	003a      	movs	r2, r7
    75cc:	9906      	ldr	r1, [sp, #24]
    75ce:	9809      	ldr	r0, [sp, #36]	; 0x24
    75d0:	f002 f9f2 	bl	99b8 <__ssprint_r>
    75d4:	2800      	cmp	r0, #0
    75d6:	d001      	beq.n	75dc <_svfprintf_r+0x1304>
    75d8:	f7fe ff05 	bl	63e6 <_svfprintf_r+0x10e>
    75dc:	68bc      	ldr	r4, [r7, #8]
    75de:	ae32      	add	r6, sp, #200	; 0xc8
    75e0:	e557      	b.n	7092 <_svfprintf_r+0xdba>
    75e2:	003a      	movs	r2, r7
    75e4:	9906      	ldr	r1, [sp, #24]
    75e6:	9809      	ldr	r0, [sp, #36]	; 0x24
    75e8:	f002 f9e6 	bl	99b8 <__ssprint_r>
    75ec:	2800      	cmp	r0, #0
    75ee:	d001      	beq.n	75f4 <_svfprintf_r+0x131c>
    75f0:	f7fe fef9 	bl	63e6 <_svfprintf_r+0x10e>
    75f4:	9b14      	ldr	r3, [sp, #80]	; 0x50
    75f6:	9a1f      	ldr	r2, [sp, #124]	; 0x7c
    75f8:	68bc      	ldr	r4, [r7, #8]
    75fa:	1a9b      	subs	r3, r3, r2
    75fc:	ae32      	add	r6, sp, #200	; 0xc8
    75fe:	e56a      	b.n	70d6 <_svfprintf_r+0xdfe>
    7600:	4653      	mov	r3, sl
    7602:	9307      	str	r3, [sp, #28]
    7604:	2b06      	cmp	r3, #6
    7606:	d901      	bls.n	760c <_svfprintf_r+0x1334>
    7608:	2306      	movs	r3, #6
    760a:	9307      	str	r3, [sp, #28]
    760c:	9b07      	ldr	r3, [sp, #28]
    760e:	950f      	str	r5, [sp, #60]	; 0x3c
    7610:	930e      	str	r3, [sp, #56]	; 0x38
    7612:	2300      	movs	r3, #0
    7614:	4698      	mov	r8, r3
    7616:	469a      	mov	sl, r3
    7618:	9313      	str	r3, [sp, #76]	; 0x4c
    761a:	4b24      	ldr	r3, [pc, #144]	; (76ac <_svfprintf_r+0x13d4>)
    761c:	9408      	str	r4, [sp, #32]
    761e:	9311      	str	r3, [sp, #68]	; 0x44
    7620:	f7fe ff78 	bl	6514 <_svfprintf_r+0x23c>
    7624:	2320      	movs	r3, #32
    7626:	9a12      	ldr	r2, [sp, #72]	; 0x48
    7628:	439a      	bics	r2, r3
    762a:	3b1a      	subs	r3, #26
    762c:	920e      	str	r2, [sp, #56]	; 0x38
    762e:	469a      	mov	sl, r3
    7630:	e5f1      	b.n	7216 <_svfprintf_r+0xf3e>
    7632:	ab23      	add	r3, sp, #140	; 0x8c
    7634:	931b      	str	r3, [sp, #108]	; 0x6c
    7636:	9304      	str	r3, [sp, #16]
    7638:	ab20      	add	r3, sp, #128	; 0x80
    763a:	9303      	str	r3, [sp, #12]
    763c:	ab1f      	add	r3, sp, #124	; 0x7c
    763e:	9302      	str	r3, [sp, #8]
    7640:	4653      	mov	r3, sl
    7642:	9301      	str	r3, [sp, #4]
    7644:	2303      	movs	r3, #3
    7646:	464a      	mov	r2, r9
    7648:	9300      	str	r3, [sp, #0]
    764a:	9809      	ldr	r0, [sp, #36]	; 0x24
    764c:	9b07      	ldr	r3, [sp, #28]
    764e:	f000 fa05 	bl	7a5c <_dtoa_r>
    7652:	0003      	movs	r3, r0
    7654:	4453      	add	r3, sl
    7656:	9011      	str	r0, [sp, #68]	; 0x44
    7658:	4698      	mov	r8, r3
    765a:	4655      	mov	r5, sl
    765c:	e6e4      	b.n	7428 <_svfprintf_r+0x1150>
    765e:	232d      	movs	r3, #45	; 0x2d
    7660:	aa16      	add	r2, sp, #88	; 0x58
    7662:	77d3      	strb	r3, [r2, #31]
    7664:	4698      	mov	r8, r3
    7666:	f7fe ffdb 	bl	6620 <_svfprintf_r+0x348>
    766a:	2280      	movs	r2, #128	; 0x80
    766c:	0612      	lsls	r2, r2, #24
    766e:	4694      	mov	ip, r2
    7670:	9b16      	ldr	r3, [sp, #88]	; 0x58
    7672:	4699      	mov	r9, r3
    7674:	9b15      	ldr	r3, [sp, #84]	; 0x54
    7676:	4463      	add	r3, ip
    7678:	9307      	str	r3, [sp, #28]
    767a:	232d      	movs	r3, #45	; 0x2d
    767c:	9310      	str	r3, [sp, #64]	; 0x40
    767e:	e5d7      	b.n	7230 <_svfprintf_r+0xf58>
    7680:	9a18      	ldr	r2, [sp, #96]	; 0x60
    7682:	9b14      	ldr	r3, [sp, #80]	; 0x50
    7684:	4694      	mov	ip, r2
    7686:	9a13      	ldr	r2, [sp, #76]	; 0x4c
    7688:	4463      	add	r3, ip
    768a:	930e      	str	r3, [sp, #56]	; 0x38
    768c:	2a00      	cmp	r2, #0
    768e:	dc00      	bgt.n	7692 <_svfprintf_r+0x13ba>
    7690:	e0ce      	b.n	7830 <_svfprintf_r+0x1558>
    7692:	001a      	movs	r2, r3
    7694:	43db      	mvns	r3, r3
    7696:	17db      	asrs	r3, r3, #31
    7698:	401a      	ands	r2, r3
    769a:	2367      	movs	r3, #103	; 0x67
    769c:	9207      	str	r2, [sp, #28]
    769e:	9312      	str	r3, [sp, #72]	; 0x48
    76a0:	e624      	b.n	72ec <_svfprintf_r+0x1014>
    76a2:	46c0      	nop			; (mov r8, r8)
    76a4:	0000b428 	.word	0x0000b428
    76a8:	0000b3ec 	.word	0x0000b3ec
    76ac:	0000b420 	.word	0x0000b420
    76b0:	9b1f      	ldr	r3, [sp, #124]	; 0x7c
    76b2:	9313      	str	r3, [sp, #76]	; 0x4c
    76b4:	2b00      	cmp	r3, #0
    76b6:	dc00      	bgt.n	76ba <_svfprintf_r+0x13e2>
    76b8:	e0d5      	b.n	7866 <_svfprintf_r+0x158e>
    76ba:	4652      	mov	r2, sl
    76bc:	2a00      	cmp	r2, #0
    76be:	d000      	beq.n	76c2 <_svfprintf_r+0x13ea>
    76c0:	e092      	b.n	77e8 <_svfprintf_r+0x1510>
    76c2:	07e2      	lsls	r2, r4, #31
    76c4:	d500      	bpl.n	76c8 <_svfprintf_r+0x13f0>
    76c6:	e08f      	b.n	77e8 <_svfprintf_r+0x1510>
    76c8:	9307      	str	r3, [sp, #28]
    76ca:	930e      	str	r3, [sp, #56]	; 0x38
    76cc:	e60e      	b.n	72ec <_svfprintf_r+0x1014>
    76ce:	ab16      	add	r3, sp, #88	; 0x58
    76d0:	7fdb      	ldrb	r3, [r3, #31]
    76d2:	950f      	str	r5, [sp, #60]	; 0x3c
    76d4:	4698      	mov	r8, r3
    76d6:	4653      	mov	r3, sl
    76d8:	9307      	str	r3, [sp, #28]
    76da:	930e      	str	r3, [sp, #56]	; 0x38
    76dc:	2300      	movs	r3, #0
    76de:	9408      	str	r4, [sp, #32]
    76e0:	469a      	mov	sl, r3
    76e2:	9313      	str	r3, [sp, #76]	; 0x4c
    76e4:	f7fe ff10 	bl	6508 <_svfprintf_r+0x230>
    76e8:	9b11      	ldr	r3, [sp, #68]	; 0x44
    76ea:	4698      	mov	r8, r3
    76ec:	9b12      	ldr	r3, [sp, #72]	; 0x48
    76ee:	44a8      	add	r8, r5
    76f0:	2b47      	cmp	r3, #71	; 0x47
    76f2:	d000      	beq.n	76f6 <_svfprintf_r+0x141e>
    76f4:	e5c4      	b.n	7280 <_svfprintf_r+0xfa8>
    76f6:	07e3      	lsls	r3, r4, #31
    76f8:	d500      	bpl.n	76fc <_svfprintf_r+0x1424>
    76fa:	e68e      	b.n	741a <_svfprintf_r+0x1142>
    76fc:	9b23      	ldr	r3, [sp, #140]	; 0x8c
    76fe:	9a11      	ldr	r2, [sp, #68]	; 0x44
    7700:	1a9b      	subs	r3, r3, r2
    7702:	9314      	str	r3, [sp, #80]	; 0x50
    7704:	9b0e      	ldr	r3, [sp, #56]	; 0x38
    7706:	2b47      	cmp	r3, #71	; 0x47
    7708:	d100      	bne.n	770c <_svfprintf_r+0x1434>
    770a:	e6cb      	b.n	74a4 <_svfprintf_r+0x11cc>
    770c:	9b1f      	ldr	r3, [sp, #124]	; 0x7c
    770e:	9313      	str	r3, [sp, #76]	; 0x4c
    7710:	e6d2      	b.n	74b8 <_svfprintf_r+0x11e0>
    7712:	4244      	negs	r4, r0
    7714:	3010      	adds	r0, #16
    7716:	db00      	blt.n	771a <_svfprintf_r+0x1442>
    7718:	e0d0      	b.n	78bc <_svfprintf_r+0x15e4>
    771a:	486e      	ldr	r0, [pc, #440]	; (78d4 <_svfprintf_r+0x15fc>)
    771c:	2610      	movs	r6, #16
    771e:	0005      	movs	r5, r0
    7720:	e003      	b.n	772a <_svfprintf_r+0x1452>
    7722:	3208      	adds	r2, #8
    7724:	3c10      	subs	r4, #16
    7726:	2c10      	cmp	r4, #16
    7728:	dd38      	ble.n	779c <_svfprintf_r+0x14c4>
    772a:	3110      	adds	r1, #16
    772c:	3301      	adds	r3, #1
    772e:	6015      	str	r5, [r2, #0]
    7730:	6056      	str	r6, [r2, #4]
    7732:	60b9      	str	r1, [r7, #8]
    7734:	607b      	str	r3, [r7, #4]
    7736:	2b07      	cmp	r3, #7
    7738:	ddf3      	ble.n	7722 <_svfprintf_r+0x144a>
    773a:	003a      	movs	r2, r7
    773c:	9906      	ldr	r1, [sp, #24]
    773e:	9809      	ldr	r0, [sp, #36]	; 0x24
    7740:	f002 f93a 	bl	99b8 <__ssprint_r>
    7744:	2800      	cmp	r0, #0
    7746:	d001      	beq.n	774c <_svfprintf_r+0x1474>
    7748:	f7fe fe4d 	bl	63e6 <_svfprintf_r+0x10e>
    774c:	68b9      	ldr	r1, [r7, #8]
    774e:	687b      	ldr	r3, [r7, #4]
    7750:	aa32      	add	r2, sp, #200	; 0xc8
    7752:	e7e7      	b.n	7724 <_svfprintf_r+0x144c>
    7754:	003a      	movs	r2, r7
    7756:	9906      	ldr	r1, [sp, #24]
    7758:	9809      	ldr	r0, [sp, #36]	; 0x24
    775a:	f002 f92d 	bl	99b8 <__ssprint_r>
    775e:	2800      	cmp	r0, #0
    7760:	d001      	beq.n	7766 <_svfprintf_r+0x148e>
    7762:	f7fe fe40 	bl	63e6 <_svfprintf_r+0x10e>
    7766:	981f      	ldr	r0, [sp, #124]	; 0x7c
    7768:	68b9      	ldr	r1, [r7, #8]
    776a:	687b      	ldr	r3, [r7, #4]
    776c:	aa32      	add	r2, sp, #200	; 0xc8
    776e:	e600      	b.n	7372 <_svfprintf_r+0x109a>
    7770:	9a18      	ldr	r2, [sp, #96]	; 0x60
    7772:	9b13      	ldr	r3, [sp, #76]	; 0x4c
    7774:	4694      	mov	ip, r2
    7776:	4463      	add	r3, ip
    7778:	001a      	movs	r2, r3
    777a:	930e      	str	r3, [sp, #56]	; 0x38
    777c:	e78a      	b.n	7694 <_svfprintf_r+0x13bc>
    777e:	212e      	movs	r1, #46	; 0x2e
    7780:	2330      	movs	r3, #48	; 0x30
    7782:	aa16      	add	r2, sp, #88	; 0x58
    7784:	1852      	adds	r2, r2, r1
    7786:	7013      	strb	r3, [r2, #0]
    7788:	002b      	movs	r3, r5
    778a:	aa16      	add	r2, sp, #88	; 0x58
    778c:	3101      	adds	r1, #1
    778e:	3330      	adds	r3, #48	; 0x30
    7790:	1852      	adds	r2, r2, r1
    7792:	7013      	strb	r3, [r2, #0]
    7794:	ab22      	add	r3, sp, #136	; 0x88
    7796:	e6e2      	b.n	755e <_svfprintf_r+0x1286>
    7798:	9b23      	ldr	r3, [sp, #140]	; 0x8c
    779a:	e585      	b.n	72a8 <_svfprintf_r+0xfd0>
    779c:	46a9      	mov	r9, r5
    779e:	4648      	mov	r0, r9
    77a0:	1909      	adds	r1, r1, r4
    77a2:	3301      	adds	r3, #1
    77a4:	6010      	str	r0, [r2, #0]
    77a6:	6054      	str	r4, [r2, #4]
    77a8:	60b9      	str	r1, [r7, #8]
    77aa:	3208      	adds	r2, #8
    77ac:	607b      	str	r3, [r7, #4]
    77ae:	2b07      	cmp	r3, #7
    77b0:	dc00      	bgt.n	77b4 <_svfprintf_r+0x14dc>
    77b2:	e5e1      	b.n	7378 <_svfprintf_r+0x10a0>
    77b4:	003a      	movs	r2, r7
    77b6:	9906      	ldr	r1, [sp, #24]
    77b8:	9809      	ldr	r0, [sp, #36]	; 0x24
    77ba:	f002 f8fd 	bl	99b8 <__ssprint_r>
    77be:	2800      	cmp	r0, #0
    77c0:	d001      	beq.n	77c6 <_svfprintf_r+0x14ee>
    77c2:	f7fe fe10 	bl	63e6 <_svfprintf_r+0x10e>
    77c6:	68b9      	ldr	r1, [r7, #8]
    77c8:	687b      	ldr	r3, [r7, #4]
    77ca:	aa32      	add	r2, sp, #200	; 0xc8
    77cc:	e5d4      	b.n	7378 <_svfprintf_r+0x10a0>
    77ce:	9b15      	ldr	r3, [sp, #84]	; 0x54
    77d0:	2b00      	cmp	r3, #0
    77d2:	db38      	blt.n	7846 <_svfprintf_r+0x156e>
    77d4:	ab16      	add	r3, sp, #88	; 0x58
    77d6:	7fdb      	ldrb	r3, [r3, #31]
    77d8:	4698      	mov	r8, r3
    77da:	9b12      	ldr	r3, [sp, #72]	; 0x48
    77dc:	2b47      	cmp	r3, #71	; 0x47
    77de:	dc2e      	bgt.n	783e <_svfprintf_r+0x1566>
    77e0:	4b3d      	ldr	r3, [pc, #244]	; (78d8 <_svfprintf_r+0x1600>)
    77e2:	9311      	str	r3, [sp, #68]	; 0x44
    77e4:	f7fe ff23 	bl	662e <_svfprintf_r+0x356>
    77e8:	9a18      	ldr	r2, [sp, #96]	; 0x60
    77ea:	9b13      	ldr	r3, [sp, #76]	; 0x4c
    77ec:	4694      	mov	ip, r2
    77ee:	4463      	add	r3, ip
    77f0:	4453      	add	r3, sl
    77f2:	001a      	movs	r2, r3
    77f4:	930e      	str	r3, [sp, #56]	; 0x38
    77f6:	43db      	mvns	r3, r3
    77f8:	17db      	asrs	r3, r3, #31
    77fa:	401a      	ands	r2, r3
    77fc:	9207      	str	r2, [sp, #28]
    77fe:	e575      	b.n	72ec <_svfprintf_r+0x1014>
    7800:	2301      	movs	r3, #1
    7802:	4023      	ands	r3, r4
    7804:	9313      	str	r3, [sp, #76]	; 0x4c
    7806:	d000      	beq.n	780a <_svfprintf_r+0x1532>
    7808:	e6b4      	b.n	7574 <_svfprintf_r+0x129c>
    780a:	9a0e      	ldr	r2, [sp, #56]	; 0x38
    780c:	43d3      	mvns	r3, r2
    780e:	17db      	asrs	r3, r3, #31
    7810:	401a      	ands	r2, r3
    7812:	9207      	str	r2, [sp, #28]
    7814:	e56a      	b.n	72ec <_svfprintf_r+0x1014>
    7816:	4a2f      	ldr	r2, [pc, #188]	; (78d4 <_svfprintf_r+0x15fc>)
    7818:	687b      	ldr	r3, [r7, #4]
    781a:	4691      	mov	r9, r2
    781c:	e42d      	b.n	707a <_svfprintf_r+0xda2>
    781e:	2301      	movs	r3, #1
    7820:	9a13      	ldr	r2, [sp, #76]	; 0x4c
    7822:	391b      	subs	r1, #27
    7824:	1a9d      	subs	r5, r3, r2
    7826:	aa16      	add	r2, sp, #88	; 0x58
    7828:	332c      	adds	r3, #44	; 0x2c
    782a:	1852      	adds	r2, r2, r1
    782c:	7013      	strb	r3, [r2, #0]
    782e:	e656      	b.n	74de <_svfprintf_r+0x1206>
    7830:	9b0e      	ldr	r3, [sp, #56]	; 0x38
    7832:	9a13      	ldr	r2, [sp, #76]	; 0x4c
    7834:	1a98      	subs	r0, r3, r2
    7836:	1c43      	adds	r3, r0, #1
    7838:	001a      	movs	r2, r3
    783a:	930e      	str	r3, [sp, #56]	; 0x38
    783c:	e72a      	b.n	7694 <_svfprintf_r+0x13bc>
    783e:	4b27      	ldr	r3, [pc, #156]	; (78dc <_svfprintf_r+0x1604>)
    7840:	9311      	str	r3, [sp, #68]	; 0x44
    7842:	f7fe fef4 	bl	662e <_svfprintf_r+0x356>
    7846:	232d      	movs	r3, #45	; 0x2d
    7848:	aa16      	add	r2, sp, #88	; 0x58
    784a:	77d3      	strb	r3, [r2, #31]
    784c:	4698      	mov	r8, r3
    784e:	e7c4      	b.n	77da <_svfprintf_r+0x1502>
    7850:	9b0f      	ldr	r3, [sp, #60]	; 0x3c
    7852:	1d1a      	adds	r2, r3, #4
    7854:	681b      	ldr	r3, [r3, #0]
    7856:	469a      	mov	sl, r3
    7858:	2b00      	cmp	r3, #0
    785a:	db36      	blt.n	78ca <_svfprintf_r+0x15f2>
    785c:	784b      	ldrb	r3, [r1, #1]
    785e:	920f      	str	r2, [sp, #60]	; 0x3c
    7860:	4659      	mov	r1, fp
    7862:	f7fe fd9d 	bl	63a0 <_svfprintf_r+0xc8>
    7866:	4653      	mov	r3, sl
    7868:	2b00      	cmp	r3, #0
    786a:	d101      	bne.n	7870 <_svfprintf_r+0x1598>
    786c:	07e3      	lsls	r3, r4, #31
    786e:	d503      	bpl.n	7878 <_svfprintf_r+0x15a0>
    7870:	9b18      	ldr	r3, [sp, #96]	; 0x60
    7872:	1c58      	adds	r0, r3, #1
    7874:	0003      	movs	r3, r0
    7876:	e7bb      	b.n	77f0 <_svfprintf_r+0x1518>
    7878:	2301      	movs	r3, #1
    787a:	e725      	b.n	76c8 <_svfprintf_r+0x13f0>
    787c:	ab16      	add	r3, sp, #88	; 0x58
    787e:	77d8      	strb	r0, [r3, #31]
    7880:	f7fe ff6c 	bl	675c <_svfprintf_r+0x484>
    7884:	ab16      	add	r3, sp, #88	; 0x58
    7886:	77d8      	strb	r0, [r3, #31]
    7888:	f7ff f814 	bl	68b4 <_svfprintf_r+0x5dc>
    788c:	230c      	movs	r3, #12
    788e:	9a09      	ldr	r2, [sp, #36]	; 0x24
    7890:	6013      	str	r3, [r2, #0]
    7892:	3b0d      	subs	r3, #13
    7894:	930a      	str	r3, [sp, #40]	; 0x28
    7896:	f7fe fdac 	bl	63f2 <_svfprintf_r+0x11a>
    789a:	aa16      	add	r2, sp, #88	; 0x58
    789c:	232e      	movs	r3, #46	; 0x2e
    789e:	4694      	mov	ip, r2
    78a0:	4463      	add	r3, ip
    78a2:	e65c      	b.n	755e <_svfprintf_r+0x1286>
    78a4:	ab16      	add	r3, sp, #88	; 0x58
    78a6:	77d8      	strb	r0, [r3, #31]
    78a8:	f7fe fe85 	bl	65b6 <_svfprintf_r+0x2de>
    78ac:	ab16      	add	r3, sp, #88	; 0x58
    78ae:	77d8      	strb	r0, [r3, #31]
    78b0:	f7fe fddd 	bl	646e <_svfprintf_r+0x196>
    78b4:	ab16      	add	r3, sp, #88	; 0x58
    78b6:	77d8      	strb	r0, [r3, #31]
    78b8:	f7ff f87d 	bl	69b6 <_svfprintf_r+0x6de>
    78bc:	4805      	ldr	r0, [pc, #20]	; (78d4 <_svfprintf_r+0x15fc>)
    78be:	4681      	mov	r9, r0
    78c0:	e76d      	b.n	779e <_svfprintf_r+0x14c6>
    78c2:	ab16      	add	r3, sp, #88	; 0x58
    78c4:	77d8      	strb	r0, [r3, #31]
    78c6:	f7fe ff79 	bl	67bc <_svfprintf_r+0x4e4>
    78ca:	2301      	movs	r3, #1
    78cc:	425b      	negs	r3, r3
    78ce:	469a      	mov	sl, r3
    78d0:	e7c4      	b.n	785c <_svfprintf_r+0x1584>
    78d2:	46c0      	nop			; (mov r8, r8)
    78d4:	0000b43c 	.word	0x0000b43c
    78d8:	0000b3f0 	.word	0x0000b3f0
    78dc:	0000b3f4 	.word	0x0000b3f4

000078e0 <register_fini>:
    78e0:	4b03      	ldr	r3, [pc, #12]	; (78f0 <register_fini+0x10>)
    78e2:	b510      	push	{r4, lr}
    78e4:	2b00      	cmp	r3, #0
    78e6:	d002      	beq.n	78ee <register_fini+0xe>
    78e8:	4802      	ldr	r0, [pc, #8]	; (78f4 <register_fini+0x14>)
    78ea:	f000 f805 	bl	78f8 <atexit>
    78ee:	bd10      	pop	{r4, pc}
    78f0:	00000000 	.word	0x00000000
    78f4:	000089e5 	.word	0x000089e5

000078f8 <atexit>:
    78f8:	b510      	push	{r4, lr}
    78fa:	0001      	movs	r1, r0
    78fc:	2300      	movs	r3, #0
    78fe:	2200      	movs	r2, #0
    7900:	2000      	movs	r0, #0
    7902:	f002 f8e9 	bl	9ad8 <__register_exitproc>
    7906:	bd10      	pop	{r4, pc}

00007908 <quorem>:
    7908:	b5f0      	push	{r4, r5, r6, r7, lr}
    790a:	4645      	mov	r5, r8
    790c:	4680      	mov	r8, r0
    790e:	46de      	mov	lr, fp
    7910:	4657      	mov	r7, sl
    7912:	464e      	mov	r6, r9
    7914:	4642      	mov	r2, r8
    7916:	b5e0      	push	{r5, r6, r7, lr}
    7918:	690c      	ldr	r4, [r1, #16]
    791a:	6912      	ldr	r2, [r2, #16]
    791c:	b085      	sub	sp, #20
    791e:	000b      	movs	r3, r1
    7920:	9102      	str	r1, [sp, #8]
    7922:	2000      	movs	r0, #0
    7924:	4294      	cmp	r4, r2
    7926:	dd00      	ble.n	792a <quorem+0x22>
    7928:	e090      	b.n	7a4c <quorem+0x144>
    792a:	2214      	movs	r2, #20
    792c:	4694      	mov	ip, r2
    792e:	4463      	add	r3, ip
    7930:	4699      	mov	r9, r3
    7932:	464a      	mov	r2, r9
    7934:	3c01      	subs	r4, #1
    7936:	00a3      	lsls	r3, r4, #2
    7938:	18d6      	adds	r6, r2, r3
    793a:	2214      	movs	r2, #20
    793c:	4442      	add	r2, r8
    793e:	4693      	mov	fp, r2
    7940:	449b      	add	fp, r3
    7942:	6833      	ldr	r3, [r6, #0]
    7944:	0015      	movs	r5, r2
    7946:	1c59      	adds	r1, r3, #1
    7948:	465b      	mov	r3, fp
    794a:	6818      	ldr	r0, [r3, #0]
    794c:	9201      	str	r2, [sp, #4]
    794e:	f7fc f84d 	bl	39ec <__udivsi3>
    7952:	1e03      	subs	r3, r0, #0
    7954:	9000      	str	r0, [sp, #0]
    7956:	d042      	beq.n	79de <quorem+0xd6>
    7958:	0029      	movs	r1, r5
    795a:	2700      	movs	r7, #0
    795c:	464d      	mov	r5, r9
    795e:	2000      	movs	r0, #0
    7960:	46b1      	mov	r9, r6
    7962:	46a2      	mov	sl, r4
    7964:	003e      	movs	r6, r7
    7966:	0004      	movs	r4, r0
    7968:	469c      	mov	ip, r3
    796a:	002f      	movs	r7, r5
    796c:	0008      	movs	r0, r1
    796e:	9503      	str	r5, [sp, #12]
    7970:	4663      	mov	r3, ip
    7972:	cf04      	ldmia	r7!, {r2}
    7974:	0415      	lsls	r5, r2, #16
    7976:	0c2d      	lsrs	r5, r5, #16
    7978:	435d      	muls	r5, r3
    797a:	0c12      	lsrs	r2, r2, #16
    797c:	435a      	muls	r2, r3
    797e:	19ad      	adds	r5, r5, r6
    7980:	0c2b      	lsrs	r3, r5, #16
    7982:	18d2      	adds	r2, r2, r3
    7984:	6803      	ldr	r3, [r0, #0]
    7986:	042d      	lsls	r5, r5, #16
    7988:	0419      	lsls	r1, r3, #16
    798a:	0c09      	lsrs	r1, r1, #16
    798c:	1909      	adds	r1, r1, r4
    798e:	0c16      	lsrs	r6, r2, #16
    7990:	0c2d      	lsrs	r5, r5, #16
    7992:	0412      	lsls	r2, r2, #16
    7994:	1b49      	subs	r1, r1, r5
    7996:	0c12      	lsrs	r2, r2, #16
    7998:	0c1b      	lsrs	r3, r3, #16
    799a:	1a9b      	subs	r3, r3, r2
    799c:	140a      	asrs	r2, r1, #16
    799e:	189b      	adds	r3, r3, r2
    79a0:	0409      	lsls	r1, r1, #16
    79a2:	141c      	asrs	r4, r3, #16
    79a4:	0c09      	lsrs	r1, r1, #16
    79a6:	041b      	lsls	r3, r3, #16
    79a8:	4319      	orrs	r1, r3
    79aa:	c002      	stmia	r0!, {r1}
    79ac:	45b9      	cmp	r9, r7
    79ae:	d2df      	bcs.n	7970 <quorem+0x68>
    79b0:	9b03      	ldr	r3, [sp, #12]
    79b2:	464e      	mov	r6, r9
    79b4:	4699      	mov	r9, r3
    79b6:	465b      	mov	r3, fp
    79b8:	681b      	ldr	r3, [r3, #0]
    79ba:	4654      	mov	r4, sl
    79bc:	2b00      	cmp	r3, #0
    79be:	d10e      	bne.n	79de <quorem+0xd6>
    79c0:	465b      	mov	r3, fp
    79c2:	9a01      	ldr	r2, [sp, #4]
    79c4:	3b04      	subs	r3, #4
    79c6:	429a      	cmp	r2, r3
    79c8:	d304      	bcc.n	79d4 <quorem+0xcc>
    79ca:	e006      	b.n	79da <quorem+0xd2>
    79cc:	3b04      	subs	r3, #4
    79ce:	3c01      	subs	r4, #1
    79d0:	429a      	cmp	r2, r3
    79d2:	d202      	bcs.n	79da <quorem+0xd2>
    79d4:	6819      	ldr	r1, [r3, #0]
    79d6:	2900      	cmp	r1, #0
    79d8:	d0f8      	beq.n	79cc <quorem+0xc4>
    79da:	4643      	mov	r3, r8
    79dc:	611c      	str	r4, [r3, #16]
    79de:	9902      	ldr	r1, [sp, #8]
    79e0:	4640      	mov	r0, r8
    79e2:	f001 fe91 	bl	9708 <__mcmp>
    79e6:	2800      	cmp	r0, #0
    79e8:	db2f      	blt.n	7a4a <quorem+0x142>
    79ea:	464f      	mov	r7, r9
    79ec:	2000      	movs	r0, #0
    79ee:	9b00      	ldr	r3, [sp, #0]
    79f0:	9d01      	ldr	r5, [sp, #4]
    79f2:	3301      	adds	r3, #1
    79f4:	9300      	str	r3, [sp, #0]
    79f6:	682b      	ldr	r3, [r5, #0]
    79f8:	cf02      	ldmia	r7!, {r1}
    79fa:	041a      	lsls	r2, r3, #16
    79fc:	0c12      	lsrs	r2, r2, #16
    79fe:	1810      	adds	r0, r2, r0
    7a00:	040a      	lsls	r2, r1, #16
    7a02:	0c12      	lsrs	r2, r2, #16
    7a04:	1a82      	subs	r2, r0, r2
    7a06:	0c09      	lsrs	r1, r1, #16
    7a08:	0c1b      	lsrs	r3, r3, #16
    7a0a:	1a5b      	subs	r3, r3, r1
    7a0c:	1411      	asrs	r1, r2, #16
    7a0e:	185b      	adds	r3, r3, r1
    7a10:	0412      	lsls	r2, r2, #16
    7a12:	1418      	asrs	r0, r3, #16
    7a14:	0c12      	lsrs	r2, r2, #16
    7a16:	041b      	lsls	r3, r3, #16
    7a18:	4313      	orrs	r3, r2
    7a1a:	c508      	stmia	r5!, {r3}
    7a1c:	42be      	cmp	r6, r7
    7a1e:	d2ea      	bcs.n	79f6 <quorem+0xee>
    7a20:	9901      	ldr	r1, [sp, #4]
    7a22:	00a3      	lsls	r3, r4, #2
    7a24:	468c      	mov	ip, r1
    7a26:	4463      	add	r3, ip
    7a28:	681a      	ldr	r2, [r3, #0]
    7a2a:	2a00      	cmp	r2, #0
    7a2c:	d10d      	bne.n	7a4a <quorem+0x142>
    7a2e:	3b04      	subs	r3, #4
    7a30:	000a      	movs	r2, r1
    7a32:	4299      	cmp	r1, r3
    7a34:	d304      	bcc.n	7a40 <quorem+0x138>
    7a36:	e006      	b.n	7a46 <quorem+0x13e>
    7a38:	3b04      	subs	r3, #4
    7a3a:	3c01      	subs	r4, #1
    7a3c:	429a      	cmp	r2, r3
    7a3e:	d202      	bcs.n	7a46 <quorem+0x13e>
    7a40:	6819      	ldr	r1, [r3, #0]
    7a42:	2900      	cmp	r1, #0
    7a44:	d0f8      	beq.n	7a38 <quorem+0x130>
    7a46:	4643      	mov	r3, r8
    7a48:	611c      	str	r4, [r3, #16]
    7a4a:	9800      	ldr	r0, [sp, #0]
    7a4c:	b005      	add	sp, #20
    7a4e:	bc3c      	pop	{r2, r3, r4, r5}
    7a50:	4690      	mov	r8, r2
    7a52:	4699      	mov	r9, r3
    7a54:	46a2      	mov	sl, r4
    7a56:	46ab      	mov	fp, r5
    7a58:	bdf0      	pop	{r4, r5, r6, r7, pc}
    7a5a:	46c0      	nop			; (mov r8, r8)

00007a5c <_dtoa_r>:
    7a5c:	b5f0      	push	{r4, r5, r6, r7, lr}
    7a5e:	4657      	mov	r7, sl
    7a60:	464e      	mov	r6, r9
    7a62:	4645      	mov	r5, r8
    7a64:	46de      	mov	lr, fp
    7a66:	b5e0      	push	{r5, r6, r7, lr}
    7a68:	6c01      	ldr	r1, [r0, #64]	; 0x40
    7a6a:	b099      	sub	sp, #100	; 0x64
    7a6c:	4682      	mov	sl, r0
    7a6e:	001d      	movs	r5, r3
    7a70:	0016      	movs	r6, r2
    7a72:	001f      	movs	r7, r3
    7a74:	2900      	cmp	r1, #0
    7a76:	d009      	beq.n	7a8c <_dtoa_r+0x30>
    7a78:	2301      	movs	r3, #1
    7a7a:	6c42      	ldr	r2, [r0, #68]	; 0x44
    7a7c:	4093      	lsls	r3, r2
    7a7e:	604a      	str	r2, [r1, #4]
    7a80:	608b      	str	r3, [r1, #8]
    7a82:	f001 fc35 	bl	92f0 <_Bfree>
    7a86:	2300      	movs	r3, #0
    7a88:	4652      	mov	r2, sl
    7a8a:	6413      	str	r3, [r2, #64]	; 0x40
    7a8c:	46b8      	mov	r8, r7
    7a8e:	2f00      	cmp	r7, #0
    7a90:	db37      	blt.n	7b02 <_dtoa_r+0xa6>
    7a92:	2300      	movs	r3, #0
    7a94:	9a25      	ldr	r2, [sp, #148]	; 0x94
    7a96:	6013      	str	r3, [r2, #0]
    7a98:	4642      	mov	r2, r8
    7a9a:	4bd6      	ldr	r3, [pc, #856]	; (7df4 <_dtoa_r+0x398>)
    7a9c:	401a      	ands	r2, r3
    7a9e:	429a      	cmp	r2, r3
    7aa0:	d018      	beq.n	7ad4 <_dtoa_r+0x78>
    7aa2:	2200      	movs	r2, #0
    7aa4:	2300      	movs	r3, #0
    7aa6:	0030      	movs	r0, r6
    7aa8:	0039      	movs	r1, r7
    7aaa:	f7fe f9cb 	bl	5e44 <__aeabi_dcmpeq>
    7aae:	2800      	cmp	r0, #0
    7ab0:	d02f      	beq.n	7b12 <_dtoa_r+0xb6>
    7ab2:	2301      	movs	r3, #1
    7ab4:	9a24      	ldr	r2, [sp, #144]	; 0x90
    7ab6:	6013      	str	r3, [r2, #0]
    7ab8:	9b26      	ldr	r3, [sp, #152]	; 0x98
    7aba:	2b00      	cmp	r3, #0
    7abc:	d100      	bne.n	7ac0 <_dtoa_r+0x64>
    7abe:	e22a      	b.n	7f16 <_dtoa_r+0x4ba>
    7ac0:	48cd      	ldr	r0, [pc, #820]	; (7df8 <_dtoa_r+0x39c>)
    7ac2:	6018      	str	r0, [r3, #0]
    7ac4:	3801      	subs	r0, #1
    7ac6:	b019      	add	sp, #100	; 0x64
    7ac8:	bc3c      	pop	{r2, r3, r4, r5}
    7aca:	4690      	mov	r8, r2
    7acc:	4699      	mov	r9, r3
    7ace:	46a2      	mov	sl, r4
    7ad0:	46ab      	mov	fp, r5
    7ad2:	bdf0      	pop	{r4, r5, r6, r7, pc}
    7ad4:	4bc9      	ldr	r3, [pc, #804]	; (7dfc <_dtoa_r+0x3a0>)
    7ad6:	9a24      	ldr	r2, [sp, #144]	; 0x90
    7ad8:	6013      	str	r3, [r2, #0]
    7ada:	2e00      	cmp	r6, #0
    7adc:	d10b      	bne.n	7af6 <_dtoa_r+0x9a>
    7ade:	4643      	mov	r3, r8
    7ae0:	0318      	lsls	r0, r3, #12
    7ae2:	d108      	bne.n	7af6 <_dtoa_r+0x9a>
    7ae4:	9b26      	ldr	r3, [sp, #152]	; 0x98
    7ae6:	48c6      	ldr	r0, [pc, #792]	; (7e00 <_dtoa_r+0x3a4>)
    7ae8:	2b00      	cmp	r3, #0
    7aea:	d0ec      	beq.n	7ac6 <_dtoa_r+0x6a>
    7aec:	0003      	movs	r3, r0
    7aee:	3308      	adds	r3, #8
    7af0:	9a26      	ldr	r2, [sp, #152]	; 0x98
    7af2:	6013      	str	r3, [r2, #0]
    7af4:	e7e7      	b.n	7ac6 <_dtoa_r+0x6a>
    7af6:	9b26      	ldr	r3, [sp, #152]	; 0x98
    7af8:	48c2      	ldr	r0, [pc, #776]	; (7e04 <_dtoa_r+0x3a8>)
    7afa:	2b00      	cmp	r3, #0
    7afc:	d0e3      	beq.n	7ac6 <_dtoa_r+0x6a>
    7afe:	1cc3      	adds	r3, r0, #3
    7b00:	e7f6      	b.n	7af0 <_dtoa_r+0x94>
    7b02:	2301      	movs	r3, #1
    7b04:	9a25      	ldr	r2, [sp, #148]	; 0x94
    7b06:	0068      	lsls	r0, r5, #1
    7b08:	6013      	str	r3, [r2, #0]
    7b0a:	0843      	lsrs	r3, r0, #1
    7b0c:	4698      	mov	r8, r3
    7b0e:	001f      	movs	r7, r3
    7b10:	e7c2      	b.n	7a98 <_dtoa_r+0x3c>
    7b12:	ab16      	add	r3, sp, #88	; 0x58
    7b14:	9301      	str	r3, [sp, #4]
    7b16:	ab17      	add	r3, sp, #92	; 0x5c
    7b18:	9300      	str	r3, [sp, #0]
    7b1a:	0032      	movs	r2, r6
    7b1c:	003b      	movs	r3, r7
    7b1e:	4650      	mov	r0, sl
    7b20:	f001 fea8 	bl	9874 <__d2b>
    7b24:	4643      	mov	r3, r8
    7b26:	4683      	mov	fp, r0
    7b28:	0d1a      	lsrs	r2, r3, #20
    7b2a:	d100      	bne.n	7b2e <_dtoa_r+0xd2>
    7b2c:	e1d6      	b.n	7edc <_dtoa_r+0x480>
    7b2e:	033b      	lsls	r3, r7, #12
    7b30:	4cb5      	ldr	r4, [pc, #724]	; (7e08 <_dtoa_r+0x3ac>)
    7b32:	0b1b      	lsrs	r3, r3, #12
    7b34:	431c      	orrs	r4, r3
    7b36:	4bb5      	ldr	r3, [pc, #724]	; (7e0c <_dtoa_r+0x3b0>)
    7b38:	0030      	movs	r0, r6
    7b3a:	4698      	mov	r8, r3
    7b3c:	9b16      	ldr	r3, [sp, #88]	; 0x58
    7b3e:	0021      	movs	r1, r4
    7b40:	4699      	mov	r9, r3
    7b42:	2300      	movs	r3, #0
    7b44:	4490      	add	r8, r2
    7b46:	930f      	str	r3, [sp, #60]	; 0x3c
    7b48:	2200      	movs	r2, #0
    7b4a:	4bb1      	ldr	r3, [pc, #708]	; (7e10 <_dtoa_r+0x3b4>)
    7b4c:	f7fd fcca 	bl	54e4 <__aeabi_dsub>
    7b50:	4ab0      	ldr	r2, [pc, #704]	; (7e14 <_dtoa_r+0x3b8>)
    7b52:	4bb1      	ldr	r3, [pc, #708]	; (7e18 <_dtoa_r+0x3bc>)
    7b54:	f7fd fa46 	bl	4fe4 <__aeabi_dmul>
    7b58:	4ab0      	ldr	r2, [pc, #704]	; (7e1c <_dtoa_r+0x3c0>)
    7b5a:	4bb1      	ldr	r3, [pc, #708]	; (7e20 <_dtoa_r+0x3c4>)
    7b5c:	f002 fa94 	bl	a088 <__aeabi_dadd>
    7b60:	0004      	movs	r4, r0
    7b62:	4640      	mov	r0, r8
    7b64:	000d      	movs	r5, r1
    7b66:	f7fe f807 	bl	5b78 <__aeabi_i2d>
    7b6a:	4aae      	ldr	r2, [pc, #696]	; (7e24 <_dtoa_r+0x3c8>)
    7b6c:	4bae      	ldr	r3, [pc, #696]	; (7e28 <_dtoa_r+0x3cc>)
    7b6e:	f7fd fa39 	bl	4fe4 <__aeabi_dmul>
    7b72:	0002      	movs	r2, r0
    7b74:	000b      	movs	r3, r1
    7b76:	0020      	movs	r0, r4
    7b78:	0029      	movs	r1, r5
    7b7a:	f002 fa85 	bl	a088 <__aeabi_dadd>
    7b7e:	0004      	movs	r4, r0
    7b80:	000d      	movs	r5, r1
    7b82:	f7fd ffc5 	bl	5b10 <__aeabi_d2iz>
    7b86:	2200      	movs	r2, #0
    7b88:	9003      	str	r0, [sp, #12]
    7b8a:	2300      	movs	r3, #0
    7b8c:	0020      	movs	r0, r4
    7b8e:	0029      	movs	r1, r5
    7b90:	f7fe f95e 	bl	5e50 <__aeabi_dcmplt>
    7b94:	2800      	cmp	r0, #0
    7b96:	d000      	beq.n	7b9a <_dtoa_r+0x13e>
    7b98:	e2b1      	b.n	80fe <_dtoa_r+0x6a2>
    7b9a:	2301      	movs	r3, #1
    7b9c:	9c03      	ldr	r4, [sp, #12]
    7b9e:	930c      	str	r3, [sp, #48]	; 0x30
    7ba0:	2c16      	cmp	r4, #22
    7ba2:	d810      	bhi.n	7bc6 <_dtoa_r+0x16a>
    7ba4:	49a1      	ldr	r1, [pc, #644]	; (7e2c <_dtoa_r+0x3d0>)
    7ba6:	00e3      	lsls	r3, r4, #3
    7ba8:	18c9      	adds	r1, r1, r3
    7baa:	0032      	movs	r2, r6
    7bac:	6808      	ldr	r0, [r1, #0]
    7bae:	6849      	ldr	r1, [r1, #4]
    7bb0:	003b      	movs	r3, r7
    7bb2:	f7fe f961 	bl	5e78 <__aeabi_dcmpgt>
    7bb6:	2800      	cmp	r0, #0
    7bb8:	d100      	bne.n	7bbc <_dtoa_r+0x160>
    7bba:	e31d      	b.n	81f8 <_dtoa_r+0x79c>
    7bbc:	0023      	movs	r3, r4
    7bbe:	3b01      	subs	r3, #1
    7bc0:	9303      	str	r3, [sp, #12]
    7bc2:	2300      	movs	r3, #0
    7bc4:	930c      	str	r3, [sp, #48]	; 0x30
    7bc6:	464b      	mov	r3, r9
    7bc8:	4642      	mov	r2, r8
    7bca:	1a9a      	subs	r2, r3, r2
    7bcc:	2300      	movs	r3, #0
    7bce:	9306      	str	r3, [sp, #24]
    7bd0:	0013      	movs	r3, r2
    7bd2:	3b01      	subs	r3, #1
    7bd4:	9304      	str	r3, [sp, #16]
    7bd6:	d500      	bpl.n	7bda <_dtoa_r+0x17e>
    7bd8:	e2a1      	b.n	811e <_dtoa_r+0x6c2>
    7bda:	9b03      	ldr	r3, [sp, #12]
    7bdc:	2b00      	cmp	r3, #0
    7bde:	da00      	bge.n	7be2 <_dtoa_r+0x186>
    7be0:	e284      	b.n	80ec <_dtoa_r+0x690>
    7be2:	469c      	mov	ip, r3
    7be4:	930d      	str	r3, [sp, #52]	; 0x34
    7be6:	2300      	movs	r3, #0
    7be8:	9a04      	ldr	r2, [sp, #16]
    7bea:	4699      	mov	r9, r3
    7bec:	0011      	movs	r1, r2
    7bee:	4461      	add	r1, ip
    7bf0:	9104      	str	r1, [sp, #16]
    7bf2:	9b22      	ldr	r3, [sp, #136]	; 0x88
    7bf4:	2b09      	cmp	r3, #9
    7bf6:	d900      	bls.n	7bfa <_dtoa_r+0x19e>
    7bf8:	e18f      	b.n	7f1a <_dtoa_r+0x4be>
    7bfa:	2401      	movs	r4, #1
    7bfc:	2b05      	cmp	r3, #5
    7bfe:	dd02      	ble.n	7c06 <_dtoa_r+0x1aa>
    7c00:	2400      	movs	r4, #0
    7c02:	3b04      	subs	r3, #4
    7c04:	9322      	str	r3, [sp, #136]	; 0x88
    7c06:	9b22      	ldr	r3, [sp, #136]	; 0x88
    7c08:	2b03      	cmp	r3, #3
    7c0a:	d101      	bne.n	7c10 <_dtoa_r+0x1b4>
    7c0c:	f000 fcce 	bl	85ac <_dtoa_r+0xb50>
    7c10:	dc01      	bgt.n	7c16 <_dtoa_r+0x1ba>
    7c12:	f000 fc92 	bl	853a <_dtoa_r+0xade>
    7c16:	9b22      	ldr	r3, [sp, #136]	; 0x88
    7c18:	2b04      	cmp	r3, #4
    7c1a:	d101      	bne.n	7c20 <_dtoa_r+0x1c4>
    7c1c:	f000 fc40 	bl	84a0 <_dtoa_r+0xa44>
    7c20:	2301      	movs	r3, #1
    7c22:	930b      	str	r3, [sp, #44]	; 0x2c
    7c24:	9b22      	ldr	r3, [sp, #136]	; 0x88
    7c26:	2b05      	cmp	r3, #5
    7c28:	d001      	beq.n	7c2e <_dtoa_r+0x1d2>
    7c2a:	f000 fc8b 	bl	8544 <_dtoa_r+0xae8>
    7c2e:	9a23      	ldr	r2, [sp, #140]	; 0x8c
    7c30:	9b03      	ldr	r3, [sp, #12]
    7c32:	4694      	mov	ip, r2
    7c34:	4463      	add	r3, ip
    7c36:	930e      	str	r3, [sp, #56]	; 0x38
    7c38:	3301      	adds	r3, #1
    7c3a:	9307      	str	r3, [sp, #28]
    7c3c:	1e1d      	subs	r5, r3, #0
    7c3e:	dc01      	bgt.n	7c44 <_dtoa_r+0x1e8>
    7c40:	f000 fd49 	bl	86d6 <_dtoa_r+0xc7a>
    7c44:	9b07      	ldr	r3, [sp, #28]
    7c46:	4698      	mov	r8, r3
    7c48:	2300      	movs	r3, #0
    7c4a:	4652      	mov	r2, sl
    7c4c:	2100      	movs	r1, #0
    7c4e:	6453      	str	r3, [r2, #68]	; 0x44
    7c50:	2d17      	cmp	r5, #23
    7c52:	d90a      	bls.n	7c6a <_dtoa_r+0x20e>
    7c54:	2201      	movs	r2, #1
    7c56:	3304      	adds	r3, #4
    7c58:	005b      	lsls	r3, r3, #1
    7c5a:	0018      	movs	r0, r3
    7c5c:	3014      	adds	r0, #20
    7c5e:	0011      	movs	r1, r2
    7c60:	3201      	adds	r2, #1
    7c62:	4285      	cmp	r5, r0
    7c64:	d2f8      	bcs.n	7c58 <_dtoa_r+0x1fc>
    7c66:	4653      	mov	r3, sl
    7c68:	6459      	str	r1, [r3, #68]	; 0x44
    7c6a:	4650      	mov	r0, sl
    7c6c:	f001 fb18 	bl	92a0 <_Balloc>
    7c70:	4653      	mov	r3, sl
    7c72:	6418      	str	r0, [r3, #64]	; 0x40
    7c74:	4643      	mov	r3, r8
    7c76:	900a      	str	r0, [sp, #40]	; 0x28
    7c78:	2b0e      	cmp	r3, #14
    7c7a:	d900      	bls.n	7c7e <_dtoa_r+0x222>
    7c7c:	e161      	b.n	7f42 <_dtoa_r+0x4e6>
    7c7e:	2c00      	cmp	r4, #0
    7c80:	d100      	bne.n	7c84 <_dtoa_r+0x228>
    7c82:	e15e      	b.n	7f42 <_dtoa_r+0x4e6>
    7c84:	9610      	str	r6, [sp, #64]	; 0x40
    7c86:	9711      	str	r7, [sp, #68]	; 0x44
    7c88:	9e03      	ldr	r6, [sp, #12]
    7c8a:	2e00      	cmp	r6, #0
    7c8c:	dc01      	bgt.n	7c92 <_dtoa_r+0x236>
    7c8e:	f000 fd25 	bl	86dc <_dtoa_r+0xc80>
    7c92:	0032      	movs	r2, r6
    7c94:	210f      	movs	r1, #15
    7c96:	4b65      	ldr	r3, [pc, #404]	; (7e2c <_dtoa_r+0x3d0>)
    7c98:	400a      	ands	r2, r1
    7c9a:	00d2      	lsls	r2, r2, #3
    7c9c:	189b      	adds	r3, r3, r2
    7c9e:	1136      	asrs	r6, r6, #4
    7ca0:	681c      	ldr	r4, [r3, #0]
    7ca2:	685d      	ldr	r5, [r3, #4]
    7ca4:	06f3      	lsls	r3, r6, #27
    7ca6:	d401      	bmi.n	7cac <_dtoa_r+0x250>
    7ca8:	f000 fcca 	bl	8640 <_dtoa_r+0xbe4>
    7cac:	4b60      	ldr	r3, [pc, #384]	; (7e30 <_dtoa_r+0x3d4>)
    7cae:	400e      	ands	r6, r1
    7cb0:	6a1a      	ldr	r2, [r3, #32]
    7cb2:	6a5b      	ldr	r3, [r3, #36]	; 0x24
    7cb4:	9810      	ldr	r0, [sp, #64]	; 0x40
    7cb6:	9911      	ldr	r1, [sp, #68]	; 0x44
    7cb8:	f7fc fe60 	bl	497c <__aeabi_ddiv>
    7cbc:	2303      	movs	r3, #3
    7cbe:	4698      	mov	r8, r3
    7cc0:	9008      	str	r0, [sp, #32]
    7cc2:	9109      	str	r1, [sp, #36]	; 0x24
    7cc4:	2e00      	cmp	r6, #0
    7cc6:	d011      	beq.n	7cec <_dtoa_r+0x290>
    7cc8:	4f59      	ldr	r7, [pc, #356]	; (7e30 <_dtoa_r+0x3d4>)
    7cca:	2301      	movs	r3, #1
    7ccc:	4233      	tst	r3, r6
    7cce:	d009      	beq.n	7ce4 <_dtoa_r+0x288>
    7cd0:	469c      	mov	ip, r3
    7cd2:	683a      	ldr	r2, [r7, #0]
    7cd4:	687b      	ldr	r3, [r7, #4]
    7cd6:	0020      	movs	r0, r4
    7cd8:	0029      	movs	r1, r5
    7cda:	44e0      	add	r8, ip
    7cdc:	f7fd f982 	bl	4fe4 <__aeabi_dmul>
    7ce0:	0004      	movs	r4, r0
    7ce2:	000d      	movs	r5, r1
    7ce4:	1076      	asrs	r6, r6, #1
    7ce6:	3708      	adds	r7, #8
    7ce8:	2e00      	cmp	r6, #0
    7cea:	d1ee      	bne.n	7cca <_dtoa_r+0x26e>
    7cec:	0022      	movs	r2, r4
    7cee:	9808      	ldr	r0, [sp, #32]
    7cf0:	9909      	ldr	r1, [sp, #36]	; 0x24
    7cf2:	002b      	movs	r3, r5
    7cf4:	f7fc fe42 	bl	497c <__aeabi_ddiv>
    7cf8:	0006      	movs	r6, r0
    7cfa:	000f      	movs	r7, r1
    7cfc:	9b0c      	ldr	r3, [sp, #48]	; 0x30
    7cfe:	2b00      	cmp	r3, #0
    7d00:	d009      	beq.n	7d16 <_dtoa_r+0x2ba>
    7d02:	2200      	movs	r2, #0
    7d04:	4b40      	ldr	r3, [pc, #256]	; (7e08 <_dtoa_r+0x3ac>)
    7d06:	0030      	movs	r0, r6
    7d08:	0039      	movs	r1, r7
    7d0a:	f7fe f8a1 	bl	5e50 <__aeabi_dcmplt>
    7d0e:	2800      	cmp	r0, #0
    7d10:	d001      	beq.n	7d16 <_dtoa_r+0x2ba>
    7d12:	f000 fdc2 	bl	889a <_dtoa_r+0xe3e>
    7d16:	4640      	mov	r0, r8
    7d18:	f7fd ff2e 	bl	5b78 <__aeabi_i2d>
    7d1c:	0032      	movs	r2, r6
    7d1e:	003b      	movs	r3, r7
    7d20:	f7fd f960 	bl	4fe4 <__aeabi_dmul>
    7d24:	2200      	movs	r2, #0
    7d26:	4b43      	ldr	r3, [pc, #268]	; (7e34 <_dtoa_r+0x3d8>)
    7d28:	f002 f9ae 	bl	a088 <__aeabi_dadd>
    7d2c:	4a42      	ldr	r2, [pc, #264]	; (7e38 <_dtoa_r+0x3dc>)
    7d2e:	000b      	movs	r3, r1
    7d30:	4694      	mov	ip, r2
    7d32:	4463      	add	r3, ip
    7d34:	9008      	str	r0, [sp, #32]
    7d36:	9109      	str	r1, [sp, #36]	; 0x24
    7d38:	9309      	str	r3, [sp, #36]	; 0x24
    7d3a:	9b07      	ldr	r3, [sp, #28]
    7d3c:	2b00      	cmp	r3, #0
    7d3e:	d101      	bne.n	7d44 <_dtoa_r+0x2e8>
    7d40:	f000 fc50 	bl	85e4 <_dtoa_r+0xb88>
    7d44:	9b03      	ldr	r3, [sp, #12]
    7d46:	9313      	str	r3, [sp, #76]	; 0x4c
    7d48:	9b07      	ldr	r3, [sp, #28]
    7d4a:	9312      	str	r3, [sp, #72]	; 0x48
    7d4c:	9b0b      	ldr	r3, [sp, #44]	; 0x2c
    7d4e:	2b00      	cmp	r3, #0
    7d50:	d101      	bne.n	7d56 <_dtoa_r+0x2fa>
    7d52:	f000 fd1d 	bl	8790 <_dtoa_r+0xd34>
    7d56:	9b12      	ldr	r3, [sp, #72]	; 0x48
    7d58:	2000      	movs	r0, #0
    7d5a:	1e5a      	subs	r2, r3, #1
    7d5c:	4b33      	ldr	r3, [pc, #204]	; (7e2c <_dtoa_r+0x3d0>)
    7d5e:	00d2      	lsls	r2, r2, #3
    7d60:	189b      	adds	r3, r3, r2
    7d62:	681a      	ldr	r2, [r3, #0]
    7d64:	685b      	ldr	r3, [r3, #4]
    7d66:	4935      	ldr	r1, [pc, #212]	; (7e3c <_dtoa_r+0x3e0>)
    7d68:	f7fc fe08 	bl	497c <__aeabi_ddiv>
    7d6c:	9a08      	ldr	r2, [sp, #32]
    7d6e:	9b09      	ldr	r3, [sp, #36]	; 0x24
    7d70:	f7fd fbb8 	bl	54e4 <__aeabi_dsub>
    7d74:	9008      	str	r0, [sp, #32]
    7d76:	9109      	str	r1, [sp, #36]	; 0x24
    7d78:	0039      	movs	r1, r7
    7d7a:	0030      	movs	r0, r6
    7d7c:	f7fd fec8 	bl	5b10 <__aeabi_d2iz>
    7d80:	0004      	movs	r4, r0
    7d82:	f7fd fef9 	bl	5b78 <__aeabi_i2d>
    7d86:	0002      	movs	r2, r0
    7d88:	000b      	movs	r3, r1
    7d8a:	0030      	movs	r0, r6
    7d8c:	0039      	movs	r1, r7
    7d8e:	f7fd fba9 	bl	54e4 <__aeabi_dsub>
    7d92:	0005      	movs	r5, r0
    7d94:	000e      	movs	r6, r1
    7d96:	9a0a      	ldr	r2, [sp, #40]	; 0x28
    7d98:	3430      	adds	r4, #48	; 0x30
    7d9a:	1c51      	adds	r1, r2, #1
    7d9c:	b2e7      	uxtb	r7, r4
    7d9e:	9114      	str	r1, [sp, #80]	; 0x50
    7da0:	7017      	strb	r7, [r2, #0]
    7da2:	0033      	movs	r3, r6
    7da4:	9808      	ldr	r0, [sp, #32]
    7da6:	9909      	ldr	r1, [sp, #36]	; 0x24
    7da8:	002a      	movs	r2, r5
    7daa:	f7fe f865 	bl	5e78 <__aeabi_dcmpgt>
    7dae:	2800      	cmp	r0, #0
    7db0:	d001      	beq.n	7db6 <_dtoa_r+0x35a>
    7db2:	f000 fdfe 	bl	89b2 <_dtoa_r+0xf56>
    7db6:	002a      	movs	r2, r5
    7db8:	0033      	movs	r3, r6
    7dba:	2000      	movs	r0, #0
    7dbc:	4912      	ldr	r1, [pc, #72]	; (7e08 <_dtoa_r+0x3ac>)
    7dbe:	f7fd fb91 	bl	54e4 <__aeabi_dsub>
    7dc2:	0002      	movs	r2, r0
    7dc4:	000b      	movs	r3, r1
    7dc6:	9808      	ldr	r0, [sp, #32]
    7dc8:	9909      	ldr	r1, [sp, #36]	; 0x24
    7dca:	f7fe f855 	bl	5e78 <__aeabi_dcmpgt>
    7dce:	2800      	cmp	r0, #0
    7dd0:	d001      	beq.n	7dd6 <_dtoa_r+0x37a>
    7dd2:	f000 fde7 	bl	89a4 <_dtoa_r+0xf48>
    7dd6:	9b12      	ldr	r3, [sp, #72]	; 0x48
    7dd8:	2b01      	cmp	r3, #1
    7dda:	d101      	bne.n	7de0 <_dtoa_r+0x384>
    7ddc:	f000 fc78 	bl	86d0 <_dtoa_r+0xc74>
    7de0:	9a0a      	ldr	r2, [sp, #40]	; 0x28
    7de2:	9b12      	ldr	r3, [sp, #72]	; 0x48
    7de4:	4694      	mov	ip, r2
    7de6:	4463      	add	r3, ip
    7de8:	4698      	mov	r8, r3
    7dea:	464b      	mov	r3, r9
    7dec:	9312      	str	r3, [sp, #72]	; 0x48
    7dee:	9b14      	ldr	r3, [sp, #80]	; 0x50
    7df0:	4699      	mov	r9, r3
    7df2:	e038      	b.n	7e66 <_dtoa_r+0x40a>
    7df4:	7ff00000 	.word	0x7ff00000
    7df8:	0000b429 	.word	0x0000b429
    7dfc:	0000270f 	.word	0x0000270f
    7e00:	0000b44c 	.word	0x0000b44c
    7e04:	0000b458 	.word	0x0000b458
    7e08:	3ff00000 	.word	0x3ff00000
    7e0c:	fffffc01 	.word	0xfffffc01
    7e10:	3ff80000 	.word	0x3ff80000
    7e14:	636f4361 	.word	0x636f4361
    7e18:	3fd287a7 	.word	0x3fd287a7
    7e1c:	8b60c8b3 	.word	0x8b60c8b3
    7e20:	3fc68a28 	.word	0x3fc68a28
    7e24:	509f79fb 	.word	0x509f79fb
    7e28:	3fd34413 	.word	0x3fd34413
    7e2c:	0000b488 	.word	0x0000b488
    7e30:	0000b460 	.word	0x0000b460
    7e34:	401c0000 	.word	0x401c0000
    7e38:	fcc00000 	.word	0xfcc00000
    7e3c:	3fe00000 	.word	0x3fe00000
    7e40:	002a      	movs	r2, r5
    7e42:	0033      	movs	r3, r6
    7e44:	2000      	movs	r0, #0
    7e46:	49b9      	ldr	r1, [pc, #740]	; (812c <_dtoa_r+0x6d0>)
    7e48:	f7fd fb4c 	bl	54e4 <__aeabi_dsub>
    7e4c:	9a08      	ldr	r2, [sp, #32]
    7e4e:	9b09      	ldr	r3, [sp, #36]	; 0x24
    7e50:	f7fd fffe 	bl	5e50 <__aeabi_dcmplt>
    7e54:	2800      	cmp	r0, #0
    7e56:	d001      	beq.n	7e5c <_dtoa_r+0x400>
    7e58:	f000 fd74 	bl	8944 <_dtoa_r+0xee8>
    7e5c:	46a1      	mov	r9, r4
    7e5e:	4544      	cmp	r4, r8
    7e60:	d101      	bne.n	7e66 <_dtoa_r+0x40a>
    7e62:	f000 fc33 	bl	86cc <_dtoa_r+0xc70>
    7e66:	9808      	ldr	r0, [sp, #32]
    7e68:	9909      	ldr	r1, [sp, #36]	; 0x24
    7e6a:	2200      	movs	r2, #0
    7e6c:	4bb0      	ldr	r3, [pc, #704]	; (8130 <_dtoa_r+0x6d4>)
    7e6e:	f7fd f8b9 	bl	4fe4 <__aeabi_dmul>
    7e72:	2200      	movs	r2, #0
    7e74:	4bae      	ldr	r3, [pc, #696]	; (8130 <_dtoa_r+0x6d4>)
    7e76:	9008      	str	r0, [sp, #32]
    7e78:	9109      	str	r1, [sp, #36]	; 0x24
    7e7a:	0028      	movs	r0, r5
    7e7c:	0031      	movs	r1, r6
    7e7e:	f7fd f8b1 	bl	4fe4 <__aeabi_dmul>
    7e82:	000d      	movs	r5, r1
    7e84:	0004      	movs	r4, r0
    7e86:	f7fd fe43 	bl	5b10 <__aeabi_d2iz>
    7e8a:	0007      	movs	r7, r0
    7e8c:	f7fd fe74 	bl	5b78 <__aeabi_i2d>
    7e90:	0002      	movs	r2, r0
    7e92:	000b      	movs	r3, r1
    7e94:	0020      	movs	r0, r4
    7e96:	0029      	movs	r1, r5
    7e98:	f7fd fb24 	bl	54e4 <__aeabi_dsub>
    7e9c:	464b      	mov	r3, r9
    7e9e:	3730      	adds	r7, #48	; 0x30
    7ea0:	b2ff      	uxtb	r7, r7
    7ea2:	1c5c      	adds	r4, r3, #1
    7ea4:	701f      	strb	r7, [r3, #0]
    7ea6:	9a08      	ldr	r2, [sp, #32]
    7ea8:	9b09      	ldr	r3, [sp, #36]	; 0x24
    7eaa:	0005      	movs	r5, r0
    7eac:	000e      	movs	r6, r1
    7eae:	f7fd ffcf 	bl	5e50 <__aeabi_dcmplt>
    7eb2:	2800      	cmp	r0, #0
    7eb4:	d0c4      	beq.n	7e40 <_dtoa_r+0x3e4>
    7eb6:	9b13      	ldr	r3, [sp, #76]	; 0x4c
    7eb8:	9303      	str	r3, [sp, #12]
    7eba:	4659      	mov	r1, fp
    7ebc:	4650      	mov	r0, sl
    7ebe:	f001 fa17 	bl	92f0 <_Bfree>
    7ec2:	2300      	movs	r3, #0
    7ec4:	7023      	strb	r3, [r4, #0]
    7ec6:	9b03      	ldr	r3, [sp, #12]
    7ec8:	9a24      	ldr	r2, [sp, #144]	; 0x90
    7eca:	3301      	adds	r3, #1
    7ecc:	6013      	str	r3, [r2, #0]
    7ece:	9b26      	ldr	r3, [sp, #152]	; 0x98
    7ed0:	2b00      	cmp	r3, #0
    7ed2:	d100      	bne.n	7ed6 <_dtoa_r+0x47a>
    7ed4:	e3a8      	b.n	8628 <_dtoa_r+0xbcc>
    7ed6:	601c      	str	r4, [r3, #0]
    7ed8:	980a      	ldr	r0, [sp, #40]	; 0x28
    7eda:	e5f4      	b.n	7ac6 <_dtoa_r+0x6a>
    7edc:	9b16      	ldr	r3, [sp, #88]	; 0x58
    7ede:	4699      	mov	r9, r3
    7ee0:	9b17      	ldr	r3, [sp, #92]	; 0x5c
    7ee2:	444b      	add	r3, r9
    7ee4:	001c      	movs	r4, r3
    7ee6:	4b93      	ldr	r3, [pc, #588]	; (8134 <_dtoa_r+0x6d8>)
    7ee8:	18e3      	adds	r3, r4, r3
    7eea:	2b20      	cmp	r3, #32
    7eec:	dc00      	bgt.n	7ef0 <_dtoa_r+0x494>
    7eee:	e17e      	b.n	81ee <_dtoa_r+0x792>
    7ef0:	0031      	movs	r1, r6
    7ef2:	4a91      	ldr	r2, [pc, #580]	; (8138 <_dtoa_r+0x6dc>)
    7ef4:	4640      	mov	r0, r8
    7ef6:	18a2      	adds	r2, r4, r2
    7ef8:	40d1      	lsrs	r1, r2
    7efa:	000a      	movs	r2, r1
    7efc:	2140      	movs	r1, #64	; 0x40
    7efe:	1acb      	subs	r3, r1, r3
    7f00:	4098      	lsls	r0, r3
    7f02:	4310      	orrs	r0, r2
    7f04:	f7fd fe7a 	bl	5bfc <__aeabi_ui2d>
    7f08:	1e63      	subs	r3, r4, #1
    7f0a:	4698      	mov	r8, r3
    7f0c:	2301      	movs	r3, #1
    7f0e:	4d8b      	ldr	r5, [pc, #556]	; (813c <_dtoa_r+0x6e0>)
    7f10:	930f      	str	r3, [sp, #60]	; 0x3c
    7f12:	1949      	adds	r1, r1, r5
    7f14:	e618      	b.n	7b48 <_dtoa_r+0xec>
    7f16:	488a      	ldr	r0, [pc, #552]	; (8140 <_dtoa_r+0x6e4>)
    7f18:	e5d5      	b.n	7ac6 <_dtoa_r+0x6a>
    7f1a:	2300      	movs	r3, #0
    7f1c:	4652      	mov	r2, sl
    7f1e:	2100      	movs	r1, #0
    7f20:	6453      	str	r3, [r2, #68]	; 0x44
    7f22:	4650      	mov	r0, sl
    7f24:	f001 f9bc 	bl	92a0 <_Balloc>
    7f28:	4653      	mov	r3, sl
    7f2a:	6418      	str	r0, [r3, #64]	; 0x40
    7f2c:	2301      	movs	r3, #1
    7f2e:	425b      	negs	r3, r3
    7f30:	9307      	str	r3, [sp, #28]
    7f32:	930e      	str	r3, [sp, #56]	; 0x38
    7f34:	3302      	adds	r3, #2
    7f36:	2200      	movs	r2, #0
    7f38:	930b      	str	r3, [sp, #44]	; 0x2c
    7f3a:	2300      	movs	r3, #0
    7f3c:	900a      	str	r0, [sp, #40]	; 0x28
    7f3e:	9223      	str	r2, [sp, #140]	; 0x8c
    7f40:	9322      	str	r3, [sp, #136]	; 0x88
    7f42:	9b17      	ldr	r3, [sp, #92]	; 0x5c
    7f44:	2b00      	cmp	r3, #0
    7f46:	da00      	bge.n	7f4a <_dtoa_r+0x4ee>
    7f48:	e0ab      	b.n	80a2 <_dtoa_r+0x646>
    7f4a:	9a03      	ldr	r2, [sp, #12]
    7f4c:	2a0e      	cmp	r2, #14
    7f4e:	dd00      	ble.n	7f52 <_dtoa_r+0x4f6>
    7f50:	e0a7      	b.n	80a2 <_dtoa_r+0x646>
    7f52:	4b7c      	ldr	r3, [pc, #496]	; (8144 <_dtoa_r+0x6e8>)
    7f54:	00d2      	lsls	r2, r2, #3
    7f56:	189b      	adds	r3, r3, r2
    7f58:	685c      	ldr	r4, [r3, #4]
    7f5a:	681b      	ldr	r3, [r3, #0]
    7f5c:	9304      	str	r3, [sp, #16]
    7f5e:	9405      	str	r4, [sp, #20]
    7f60:	9b23      	ldr	r3, [sp, #140]	; 0x8c
    7f62:	2b00      	cmp	r3, #0
    7f64:	da00      	bge.n	7f68 <_dtoa_r+0x50c>
    7f66:	e2a7      	b.n	84b8 <_dtoa_r+0xa5c>
    7f68:	9c04      	ldr	r4, [sp, #16]
    7f6a:	9d05      	ldr	r5, [sp, #20]
    7f6c:	0030      	movs	r0, r6
    7f6e:	0022      	movs	r2, r4
    7f70:	002b      	movs	r3, r5
    7f72:	0039      	movs	r1, r7
    7f74:	f7fc fd02 	bl	497c <__aeabi_ddiv>
    7f78:	f7fd fdca 	bl	5b10 <__aeabi_d2iz>
    7f7c:	4680      	mov	r8, r0
    7f7e:	f7fd fdfb 	bl	5b78 <__aeabi_i2d>
    7f82:	0022      	movs	r2, r4
    7f84:	002b      	movs	r3, r5
    7f86:	f7fd f82d 	bl	4fe4 <__aeabi_dmul>
    7f8a:	0002      	movs	r2, r0
    7f8c:	000b      	movs	r3, r1
    7f8e:	0030      	movs	r0, r6
    7f90:	0039      	movs	r1, r7
    7f92:	f7fd faa7 	bl	54e4 <__aeabi_dsub>
    7f96:	4643      	mov	r3, r8
    7f98:	9a0a      	ldr	r2, [sp, #40]	; 0x28
    7f9a:	3330      	adds	r3, #48	; 0x30
    7f9c:	7013      	strb	r3, [r2, #0]
    7f9e:	9b07      	ldr	r3, [sp, #28]
    7fa0:	0006      	movs	r6, r0
    7fa2:	000f      	movs	r7, r1
    7fa4:	1c54      	adds	r4, r2, #1
    7fa6:	2b01      	cmp	r3, #1
    7fa8:	d04e      	beq.n	8048 <_dtoa_r+0x5ec>
    7faa:	2200      	movs	r2, #0
    7fac:	4b60      	ldr	r3, [pc, #384]	; (8130 <_dtoa_r+0x6d4>)
    7fae:	f7fd f819 	bl	4fe4 <__aeabi_dmul>
    7fb2:	2200      	movs	r2, #0
    7fb4:	2300      	movs	r3, #0
    7fb6:	0006      	movs	r6, r0
    7fb8:	000f      	movs	r7, r1
    7fba:	f7fd ff43 	bl	5e44 <__aeabi_dcmpeq>
    7fbe:	2800      	cmp	r0, #0
    7fc0:	d000      	beq.n	7fc4 <_dtoa_r+0x568>
    7fc2:	e77a      	b.n	7eba <_dtoa_r+0x45e>
    7fc4:	9b0a      	ldr	r3, [sp, #40]	; 0x28
    7fc6:	9a07      	ldr	r2, [sp, #28]
    7fc8:	1c9d      	adds	r5, r3, #2
    7fca:	469c      	mov	ip, r3
    7fcc:	465b      	mov	r3, fp
    7fce:	9306      	str	r3, [sp, #24]
    7fd0:	4653      	mov	r3, sl
    7fd2:	4462      	add	r2, ip
    7fd4:	46aa      	mov	sl, r5
    7fd6:	9c04      	ldr	r4, [sp, #16]
    7fd8:	9d05      	ldr	r5, [sp, #20]
    7fda:	4691      	mov	r9, r2
    7fdc:	9307      	str	r3, [sp, #28]
    7fde:	e00f      	b.n	8000 <_dtoa_r+0x5a4>
    7fe0:	2200      	movs	r2, #0
    7fe2:	4b53      	ldr	r3, [pc, #332]	; (8130 <_dtoa_r+0x6d4>)
    7fe4:	f7fc fffe 	bl	4fe4 <__aeabi_dmul>
    7fe8:	2301      	movs	r3, #1
    7fea:	469c      	mov	ip, r3
    7fec:	2200      	movs	r2, #0
    7fee:	2300      	movs	r3, #0
    7ff0:	0006      	movs	r6, r0
    7ff2:	000f      	movs	r7, r1
    7ff4:	44e2      	add	sl, ip
    7ff6:	f7fd ff25 	bl	5e44 <__aeabi_dcmpeq>
    7ffa:	2800      	cmp	r0, #0
    7ffc:	d000      	beq.n	8000 <_dtoa_r+0x5a4>
    7ffe:	e2d9      	b.n	85b4 <_dtoa_r+0xb58>
    8000:	0022      	movs	r2, r4
    8002:	002b      	movs	r3, r5
    8004:	0030      	movs	r0, r6
    8006:	0039      	movs	r1, r7
    8008:	f7fc fcb8 	bl	497c <__aeabi_ddiv>
    800c:	f7fd fd80 	bl	5b10 <__aeabi_d2iz>
    8010:	4680      	mov	r8, r0
    8012:	f7fd fdb1 	bl	5b78 <__aeabi_i2d>
    8016:	0022      	movs	r2, r4
    8018:	002b      	movs	r3, r5
    801a:	f7fc ffe3 	bl	4fe4 <__aeabi_dmul>
    801e:	0002      	movs	r2, r0
    8020:	000b      	movs	r3, r1
    8022:	0030      	movs	r0, r6
    8024:	0039      	movs	r1, r7
    8026:	f7fd fa5d 	bl	54e4 <__aeabi_dsub>
    802a:	4653      	mov	r3, sl
    802c:	4642      	mov	r2, r8
    802e:	3b01      	subs	r3, #1
    8030:	3230      	adds	r2, #48	; 0x30
    8032:	0006      	movs	r6, r0
    8034:	000f      	movs	r7, r1
    8036:	46d3      	mov	fp, sl
    8038:	701a      	strb	r2, [r3, #0]
    803a:	45d1      	cmp	r9, sl
    803c:	d1d0      	bne.n	7fe0 <_dtoa_r+0x584>
    803e:	9b06      	ldr	r3, [sp, #24]
    8040:	4654      	mov	r4, sl
    8042:	469b      	mov	fp, r3
    8044:	9b07      	ldr	r3, [sp, #28]
    8046:	469a      	mov	sl, r3
    8048:	0032      	movs	r2, r6
    804a:	003b      	movs	r3, r7
    804c:	0030      	movs	r0, r6
    804e:	0039      	movs	r1, r7
    8050:	f002 f81a 	bl	a088 <__aeabi_dadd>
    8054:	0006      	movs	r6, r0
    8056:	000f      	movs	r7, r1
    8058:	0002      	movs	r2, r0
    805a:	000b      	movs	r3, r1
    805c:	9804      	ldr	r0, [sp, #16]
    805e:	9905      	ldr	r1, [sp, #20]
    8060:	f7fd fef6 	bl	5e50 <__aeabi_dcmplt>
    8064:	2800      	cmp	r0, #0
    8066:	d10c      	bne.n	8082 <_dtoa_r+0x626>
    8068:	9804      	ldr	r0, [sp, #16]
    806a:	9905      	ldr	r1, [sp, #20]
    806c:	0032      	movs	r2, r6
    806e:	003b      	movs	r3, r7
    8070:	f7fd fee8 	bl	5e44 <__aeabi_dcmpeq>
    8074:	2800      	cmp	r0, #0
    8076:	d100      	bne.n	807a <_dtoa_r+0x61e>
    8078:	e71f      	b.n	7eba <_dtoa_r+0x45e>
    807a:	4643      	mov	r3, r8
    807c:	07db      	lsls	r3, r3, #31
    807e:	d400      	bmi.n	8082 <_dtoa_r+0x626>
    8080:	e71b      	b.n	7eba <_dtoa_r+0x45e>
    8082:	1e65      	subs	r5, r4, #1
    8084:	782f      	ldrb	r7, [r5, #0]
    8086:	9b0a      	ldr	r3, [sp, #40]	; 0x28
    8088:	e006      	b.n	8098 <_dtoa_r+0x63c>
    808a:	429d      	cmp	r5, r3
    808c:	d100      	bne.n	8090 <_dtoa_r+0x634>
    808e:	e351      	b.n	8734 <_dtoa_r+0xcd8>
    8090:	3c02      	subs	r4, #2
    8092:	7827      	ldrb	r7, [r4, #0]
    8094:	002c      	movs	r4, r5
    8096:	3d01      	subs	r5, #1
    8098:	2f39      	cmp	r7, #57	; 0x39
    809a:	d0f6      	beq.n	808a <_dtoa_r+0x62e>
    809c:	3701      	adds	r7, #1
    809e:	702f      	strb	r7, [r5, #0]
    80a0:	e70b      	b.n	7eba <_dtoa_r+0x45e>
    80a2:	9a0b      	ldr	r2, [sp, #44]	; 0x2c
    80a4:	2a00      	cmp	r2, #0
    80a6:	d04f      	beq.n	8148 <_dtoa_r+0x6ec>
    80a8:	9a22      	ldr	r2, [sp, #136]	; 0x88
    80aa:	2a01      	cmp	r2, #1
    80ac:	dc00      	bgt.n	80b0 <_dtoa_r+0x654>
    80ae:	e22c      	b.n	850a <_dtoa_r+0xaae>
    80b0:	9b07      	ldr	r3, [sp, #28]
    80b2:	1e5c      	subs	r4, r3, #1
    80b4:	464b      	mov	r3, r9
    80b6:	45a1      	cmp	r9, r4
    80b8:	da00      	bge.n	80bc <_dtoa_r+0x660>
    80ba:	e2b8      	b.n	862e <_dtoa_r+0xbd2>
    80bc:	1b1c      	subs	r4, r3, r4
    80be:	9b07      	ldr	r3, [sp, #28]
    80c0:	2b00      	cmp	r3, #0
    80c2:	da00      	bge.n	80c6 <_dtoa_r+0x66a>
    80c4:	e3d4      	b.n	8870 <_dtoa_r+0xe14>
    80c6:	9b06      	ldr	r3, [sp, #24]
    80c8:	9308      	str	r3, [sp, #32]
    80ca:	9b07      	ldr	r3, [sp, #28]
    80cc:	9a06      	ldr	r2, [sp, #24]
    80ce:	2101      	movs	r1, #1
    80d0:	4694      	mov	ip, r2
    80d2:	449c      	add	ip, r3
    80d4:	4662      	mov	r2, ip
    80d6:	9206      	str	r2, [sp, #24]
    80d8:	9a04      	ldr	r2, [sp, #16]
    80da:	4650      	mov	r0, sl
    80dc:	4694      	mov	ip, r2
    80de:	449c      	add	ip, r3
    80e0:	4663      	mov	r3, ip
    80e2:	9304      	str	r3, [sp, #16]
    80e4:	f001 f99c 	bl	9420 <__i2b>
    80e8:	4680      	mov	r8, r0
    80ea:	e032      	b.n	8152 <_dtoa_r+0x6f6>
    80ec:	9a06      	ldr	r2, [sp, #24]
    80ee:	9b03      	ldr	r3, [sp, #12]
    80f0:	1ad2      	subs	r2, r2, r3
    80f2:	425b      	negs	r3, r3
    80f4:	4699      	mov	r9, r3
    80f6:	2300      	movs	r3, #0
    80f8:	9206      	str	r2, [sp, #24]
    80fa:	930d      	str	r3, [sp, #52]	; 0x34
    80fc:	e579      	b.n	7bf2 <_dtoa_r+0x196>
    80fe:	9803      	ldr	r0, [sp, #12]
    8100:	f7fd fd3a 	bl	5b78 <__aeabi_i2d>
    8104:	000b      	movs	r3, r1
    8106:	0002      	movs	r2, r0
    8108:	0029      	movs	r1, r5
    810a:	0020      	movs	r0, r4
    810c:	f7fd fe9a 	bl	5e44 <__aeabi_dcmpeq>
    8110:	0002      	movs	r2, r0
    8112:	4250      	negs	r0, r2
    8114:	4150      	adcs	r0, r2
    8116:	9b03      	ldr	r3, [sp, #12]
    8118:	1a1b      	subs	r3, r3, r0
    811a:	9303      	str	r3, [sp, #12]
    811c:	e53d      	b.n	7b9a <_dtoa_r+0x13e>
    811e:	2301      	movs	r3, #1
    8120:	1a9b      	subs	r3, r3, r2
    8122:	9306      	str	r3, [sp, #24]
    8124:	2300      	movs	r3, #0
    8126:	9304      	str	r3, [sp, #16]
    8128:	e557      	b.n	7bda <_dtoa_r+0x17e>
    812a:	46c0      	nop			; (mov r8, r8)
    812c:	3ff00000 	.word	0x3ff00000
    8130:	40240000 	.word	0x40240000
    8134:	00000432 	.word	0x00000432
    8138:	00000412 	.word	0x00000412
    813c:	fe100000 	.word	0xfe100000
    8140:	0000b428 	.word	0x0000b428
    8144:	0000b488 	.word	0x0000b488
    8148:	9b06      	ldr	r3, [sp, #24]
    814a:	464c      	mov	r4, r9
    814c:	9308      	str	r3, [sp, #32]
    814e:	2300      	movs	r3, #0
    8150:	4698      	mov	r8, r3
    8152:	9908      	ldr	r1, [sp, #32]
    8154:	1e0b      	subs	r3, r1, #0
    8156:	dd0e      	ble.n	8176 <_dtoa_r+0x71a>
    8158:	9a04      	ldr	r2, [sp, #16]
    815a:	2a00      	cmp	r2, #0
    815c:	dd0b      	ble.n	8176 <_dtoa_r+0x71a>
    815e:	4293      	cmp	r3, r2
    8160:	dd00      	ble.n	8164 <_dtoa_r+0x708>
    8162:	e187      	b.n	8474 <_dtoa_r+0xa18>
    8164:	9a06      	ldr	r2, [sp, #24]
    8166:	1ad2      	subs	r2, r2, r3
    8168:	9206      	str	r2, [sp, #24]
    816a:	9a08      	ldr	r2, [sp, #32]
    816c:	1ad2      	subs	r2, r2, r3
    816e:	9208      	str	r2, [sp, #32]
    8170:	9a04      	ldr	r2, [sp, #16]
    8172:	1ad3      	subs	r3, r2, r3
    8174:	9304      	str	r3, [sp, #16]
    8176:	464b      	mov	r3, r9
    8178:	2b00      	cmp	r3, #0
    817a:	d01a      	beq.n	81b2 <_dtoa_r+0x756>
    817c:	9b0b      	ldr	r3, [sp, #44]	; 0x2c
    817e:	2b00      	cmp	r3, #0
    8180:	d100      	bne.n	8184 <_dtoa_r+0x728>
    8182:	e1bb      	b.n	84fc <_dtoa_r+0xaa0>
    8184:	2c00      	cmp	r4, #0
    8186:	dd10      	ble.n	81aa <_dtoa_r+0x74e>
    8188:	4641      	mov	r1, r8
    818a:	0022      	movs	r2, r4
    818c:	4650      	mov	r0, sl
    818e:	f001 f9fb 	bl	9588 <__pow5mult>
    8192:	465a      	mov	r2, fp
    8194:	0001      	movs	r1, r0
    8196:	4680      	mov	r8, r0
    8198:	4650      	mov	r0, sl
    819a:	f001 f94b 	bl	9434 <__multiply>
    819e:	0005      	movs	r5, r0
    81a0:	4659      	mov	r1, fp
    81a2:	4650      	mov	r0, sl
    81a4:	f001 f8a4 	bl	92f0 <_Bfree>
    81a8:	46ab      	mov	fp, r5
    81aa:	464b      	mov	r3, r9
    81ac:	1b1a      	subs	r2, r3, r4
    81ae:	d000      	beq.n	81b2 <_dtoa_r+0x756>
    81b0:	e1a5      	b.n	84fe <_dtoa_r+0xaa2>
    81b2:	2101      	movs	r1, #1
    81b4:	4650      	mov	r0, sl
    81b6:	f001 f933 	bl	9420 <__i2b>
    81ba:	9b0d      	ldr	r3, [sp, #52]	; 0x34
    81bc:	4681      	mov	r9, r0
    81be:	2b00      	cmp	r3, #0
    81c0:	dd1d      	ble.n	81fe <_dtoa_r+0x7a2>
    81c2:	001a      	movs	r2, r3
    81c4:	0001      	movs	r1, r0
    81c6:	4650      	mov	r0, sl
    81c8:	f001 f9de 	bl	9588 <__pow5mult>
    81cc:	9b22      	ldr	r3, [sp, #136]	; 0x88
    81ce:	4681      	mov	r9, r0
    81d0:	2b01      	cmp	r3, #1
    81d2:	dc00      	bgt.n	81d6 <_dtoa_r+0x77a>
    81d4:	e150      	b.n	8478 <_dtoa_r+0xa1c>
    81d6:	2400      	movs	r4, #0
    81d8:	464b      	mov	r3, r9
    81da:	691b      	ldr	r3, [r3, #16]
    81dc:	3303      	adds	r3, #3
    81de:	009b      	lsls	r3, r3, #2
    81e0:	444b      	add	r3, r9
    81e2:	6858      	ldr	r0, [r3, #4]
    81e4:	f001 f8d4 	bl	9390 <__hi0bits>
    81e8:	2320      	movs	r3, #32
    81ea:	1a1b      	subs	r3, r3, r0
    81ec:	e010      	b.n	8210 <_dtoa_r+0x7b4>
    81ee:	2220      	movs	r2, #32
    81f0:	0030      	movs	r0, r6
    81f2:	1ad3      	subs	r3, r2, r3
    81f4:	4098      	lsls	r0, r3
    81f6:	e685      	b.n	7f04 <_dtoa_r+0x4a8>
    81f8:	2300      	movs	r3, #0
    81fa:	930c      	str	r3, [sp, #48]	; 0x30
    81fc:	e4e3      	b.n	7bc6 <_dtoa_r+0x16a>
    81fe:	9b22      	ldr	r3, [sp, #136]	; 0x88
    8200:	2400      	movs	r4, #0
    8202:	2b01      	cmp	r3, #1
    8204:	dc00      	bgt.n	8208 <_dtoa_r+0x7ac>
    8206:	e18b      	b.n	8520 <_dtoa_r+0xac4>
    8208:	9a0d      	ldr	r2, [sp, #52]	; 0x34
    820a:	2301      	movs	r3, #1
    820c:	2a00      	cmp	r2, #0
    820e:	d1e3      	bne.n	81d8 <_dtoa_r+0x77c>
    8210:	9904      	ldr	r1, [sp, #16]
    8212:	201f      	movs	r0, #31
    8214:	468c      	mov	ip, r1
    8216:	4463      	add	r3, ip
    8218:	4018      	ands	r0, r3
    821a:	d100      	bne.n	821e <_dtoa_r+0x7c2>
    821c:	e0ae      	b.n	837c <_dtoa_r+0x920>
    821e:	2320      	movs	r3, #32
    8220:	1a1b      	subs	r3, r3, r0
    8222:	2b04      	cmp	r3, #4
    8224:	dc00      	bgt.n	8228 <_dtoa_r+0x7cc>
    8226:	e3cc      	b.n	89c2 <_dtoa_r+0xf66>
    8228:	231c      	movs	r3, #28
    822a:	1a18      	subs	r0, r3, r0
    822c:	9b06      	ldr	r3, [sp, #24]
    822e:	469c      	mov	ip, r3
    8230:	4484      	add	ip, r0
    8232:	4663      	mov	r3, ip
    8234:	9306      	str	r3, [sp, #24]
    8236:	9b08      	ldr	r3, [sp, #32]
    8238:	469c      	mov	ip, r3
    823a:	4484      	add	ip, r0
    823c:	4663      	mov	r3, ip
    823e:	468c      	mov	ip, r1
    8240:	4484      	add	ip, r0
    8242:	9308      	str	r3, [sp, #32]
    8244:	4663      	mov	r3, ip
    8246:	9304      	str	r3, [sp, #16]
    8248:	9b06      	ldr	r3, [sp, #24]
    824a:	2b00      	cmp	r3, #0
    824c:	dd05      	ble.n	825a <_dtoa_r+0x7fe>
    824e:	4659      	mov	r1, fp
    8250:	001a      	movs	r2, r3
    8252:	4650      	mov	r0, sl
    8254:	f001 f9f8 	bl	9648 <__lshift>
    8258:	4683      	mov	fp, r0
    825a:	9b04      	ldr	r3, [sp, #16]
    825c:	2b00      	cmp	r3, #0
    825e:	dd05      	ble.n	826c <_dtoa_r+0x810>
    8260:	4649      	mov	r1, r9
    8262:	001a      	movs	r2, r3
    8264:	4650      	mov	r0, sl
    8266:	f001 f9ef 	bl	9648 <__lshift>
    826a:	4681      	mov	r9, r0
    826c:	9b0c      	ldr	r3, [sp, #48]	; 0x30
    826e:	2b00      	cmp	r3, #0
    8270:	d000      	beq.n	8274 <_dtoa_r+0x818>
    8272:	e094      	b.n	839e <_dtoa_r+0x942>
    8274:	9b07      	ldr	r3, [sp, #28]
    8276:	2b00      	cmp	r3, #0
    8278:	dc00      	bgt.n	827c <_dtoa_r+0x820>
    827a:	e175      	b.n	8568 <_dtoa_r+0xb0c>
    827c:	9b0b      	ldr	r3, [sp, #44]	; 0x2c
    827e:	2b00      	cmp	r3, #0
    8280:	d100      	bne.n	8284 <_dtoa_r+0x828>
    8282:	e0a6      	b.n	83d2 <_dtoa_r+0x976>
    8284:	9b08      	ldr	r3, [sp, #32]
    8286:	2b00      	cmp	r3, #0
    8288:	dd05      	ble.n	8296 <_dtoa_r+0x83a>
    828a:	4641      	mov	r1, r8
    828c:	001a      	movs	r2, r3
    828e:	4650      	mov	r0, sl
    8290:	f001 f9da 	bl	9648 <__lshift>
    8294:	4680      	mov	r8, r0
    8296:	4643      	mov	r3, r8
    8298:	930c      	str	r3, [sp, #48]	; 0x30
    829a:	2c00      	cmp	r4, #0
    829c:	d000      	beq.n	82a0 <_dtoa_r+0x844>
    829e:	e250      	b.n	8742 <_dtoa_r+0xce6>
    82a0:	9c07      	ldr	r4, [sp, #28]
    82a2:	9a0a      	ldr	r2, [sp, #40]	; 0x28
    82a4:	3c01      	subs	r4, #1
    82a6:	0023      	movs	r3, r4
    82a8:	4694      	mov	ip, r2
    82aa:	4463      	add	r3, ip
    82ac:	9308      	str	r3, [sp, #32]
    82ae:	2301      	movs	r3, #1
    82b0:	4033      	ands	r3, r6
    82b2:	9307      	str	r3, [sp, #28]
    82b4:	464b      	mov	r3, r9
    82b6:	9306      	str	r3, [sp, #24]
    82b8:	9b0c      	ldr	r3, [sp, #48]	; 0x30
    82ba:	4657      	mov	r7, sl
    82bc:	4645      	mov	r5, r8
    82be:	465e      	mov	r6, fp
    82c0:	4692      	mov	sl, r2
    82c2:	4698      	mov	r8, r3
    82c4:	9b06      	ldr	r3, [sp, #24]
    82c6:	0030      	movs	r0, r6
    82c8:	0019      	movs	r1, r3
    82ca:	4699      	mov	r9, r3
    82cc:	f7ff fb1c 	bl	7908 <quorem>
    82d0:	0003      	movs	r3, r0
    82d2:	900b      	str	r0, [sp, #44]	; 0x2c
    82d4:	3330      	adds	r3, #48	; 0x30
    82d6:	0029      	movs	r1, r5
    82d8:	0030      	movs	r0, r6
    82da:	9304      	str	r3, [sp, #16]
    82dc:	f001 fa14 	bl	9708 <__mcmp>
    82e0:	4649      	mov	r1, r9
    82e2:	0004      	movs	r4, r0
    82e4:	4642      	mov	r2, r8
    82e6:	0038      	movs	r0, r7
    82e8:	f001 fa28 	bl	973c <__mdiff>
    82ec:	68c3      	ldr	r3, [r0, #12]
    82ee:	4681      	mov	r9, r0
    82f0:	2b00      	cmp	r3, #0
    82f2:	d000      	beq.n	82f6 <_dtoa_r+0x89a>
    82f4:	e11e      	b.n	8534 <_dtoa_r+0xad8>
    82f6:	0001      	movs	r1, r0
    82f8:	0030      	movs	r0, r6
    82fa:	f001 fa05 	bl	9708 <__mcmp>
    82fe:	4683      	mov	fp, r0
    8300:	4649      	mov	r1, r9
    8302:	0038      	movs	r0, r7
    8304:	f000 fff4 	bl	92f0 <_Bfree>
    8308:	465b      	mov	r3, fp
    830a:	9a22      	ldr	r2, [sp, #136]	; 0x88
    830c:	4313      	orrs	r3, r2
    830e:	d103      	bne.n	8318 <_dtoa_r+0x8bc>
    8310:	9b07      	ldr	r3, [sp, #28]
    8312:	2b00      	cmp	r3, #0
    8314:	d100      	bne.n	8318 <_dtoa_r+0x8bc>
    8316:	e306      	b.n	8926 <_dtoa_r+0xeca>
    8318:	2c00      	cmp	r4, #0
    831a:	da00      	bge.n	831e <_dtoa_r+0x8c2>
    831c:	e1a8      	b.n	8670 <_dtoa_r+0xc14>
    831e:	9b22      	ldr	r3, [sp, #136]	; 0x88
    8320:	431c      	orrs	r4, r3
    8322:	d103      	bne.n	832c <_dtoa_r+0x8d0>
    8324:	9b07      	ldr	r3, [sp, #28]
    8326:	2b00      	cmp	r3, #0
    8328:	d100      	bne.n	832c <_dtoa_r+0x8d0>
    832a:	e1a1      	b.n	8670 <_dtoa_r+0xc14>
    832c:	465b      	mov	r3, fp
    832e:	2b00      	cmp	r3, #0
    8330:	dd00      	ble.n	8334 <_dtoa_r+0x8d8>
    8332:	e282      	b.n	883a <_dtoa_r+0xdde>
    8334:	4669      	mov	r1, sp
    8336:	4652      	mov	r2, sl
    8338:	4653      	mov	r3, sl
    833a:	7c09      	ldrb	r1, [r1, #16]
    833c:	1c5c      	adds	r4, r3, #1
    833e:	7011      	strb	r1, [r2, #0]
    8340:	9a08      	ldr	r2, [sp, #32]
    8342:	4552      	cmp	r2, sl
    8344:	d100      	bne.n	8348 <_dtoa_r+0x8ec>
    8346:	e28a      	b.n	885e <_dtoa_r+0xe02>
    8348:	0031      	movs	r1, r6
    834a:	2300      	movs	r3, #0
    834c:	220a      	movs	r2, #10
    834e:	0038      	movs	r0, r7
    8350:	f000 ffd8 	bl	9304 <__multadd>
    8354:	2300      	movs	r3, #0
    8356:	0006      	movs	r6, r0
    8358:	220a      	movs	r2, #10
    835a:	0029      	movs	r1, r5
    835c:	0038      	movs	r0, r7
    835e:	4545      	cmp	r5, r8
    8360:	d100      	bne.n	8364 <_dtoa_r+0x908>
    8362:	e0e1      	b.n	8528 <_dtoa_r+0xacc>
    8364:	f000 ffce 	bl	9304 <__multadd>
    8368:	4641      	mov	r1, r8
    836a:	0005      	movs	r5, r0
    836c:	2300      	movs	r3, #0
    836e:	220a      	movs	r2, #10
    8370:	0038      	movs	r0, r7
    8372:	f000 ffc7 	bl	9304 <__multadd>
    8376:	46a2      	mov	sl, r4
    8378:	4680      	mov	r8, r0
    837a:	e7a3      	b.n	82c4 <_dtoa_r+0x868>
    837c:	201c      	movs	r0, #28
    837e:	9b06      	ldr	r3, [sp, #24]
    8380:	469c      	mov	ip, r3
    8382:	4484      	add	ip, r0
    8384:	4663      	mov	r3, ip
    8386:	9306      	str	r3, [sp, #24]
    8388:	9b08      	ldr	r3, [sp, #32]
    838a:	469c      	mov	ip, r3
    838c:	4484      	add	ip, r0
    838e:	4663      	mov	r3, ip
    8390:	9308      	str	r3, [sp, #32]
    8392:	9b04      	ldr	r3, [sp, #16]
    8394:	469c      	mov	ip, r3
    8396:	4484      	add	ip, r0
    8398:	4663      	mov	r3, ip
    839a:	9304      	str	r3, [sp, #16]
    839c:	e754      	b.n	8248 <_dtoa_r+0x7ec>
    839e:	4649      	mov	r1, r9
    83a0:	4658      	mov	r0, fp
    83a2:	f001 f9b1 	bl	9708 <__mcmp>
    83a6:	2800      	cmp	r0, #0
    83a8:	db00      	blt.n	83ac <_dtoa_r+0x950>
    83aa:	e763      	b.n	8274 <_dtoa_r+0x818>
    83ac:	9b03      	ldr	r3, [sp, #12]
    83ae:	4659      	mov	r1, fp
    83b0:	3b01      	subs	r3, #1
    83b2:	9303      	str	r3, [sp, #12]
    83b4:	220a      	movs	r2, #10
    83b6:	2300      	movs	r3, #0
    83b8:	4650      	mov	r0, sl
    83ba:	f000 ffa3 	bl	9304 <__multadd>
    83be:	9b0b      	ldr	r3, [sp, #44]	; 0x2c
    83c0:	4683      	mov	fp, r0
    83c2:	2b00      	cmp	r3, #0
    83c4:	d000      	beq.n	83c8 <_dtoa_r+0x96c>
    83c6:	e2ca      	b.n	895e <_dtoa_r+0xf02>
    83c8:	9b0e      	ldr	r3, [sp, #56]	; 0x38
    83ca:	2b00      	cmp	r3, #0
    83cc:	dc00      	bgt.n	83d0 <_dtoa_r+0x974>
    83ce:	e2d8      	b.n	8982 <_dtoa_r+0xf26>
    83d0:	9307      	str	r3, [sp, #28]
    83d2:	9b0a      	ldr	r3, [sp, #40]	; 0x28
    83d4:	465d      	mov	r5, fp
    83d6:	2400      	movs	r4, #0
    83d8:	9f07      	ldr	r7, [sp, #28]
    83da:	469b      	mov	fp, r3
    83dc:	e006      	b.n	83ec <_dtoa_r+0x990>
    83de:	0029      	movs	r1, r5
    83e0:	2300      	movs	r3, #0
    83e2:	220a      	movs	r2, #10
    83e4:	4650      	mov	r0, sl
    83e6:	f000 ff8d 	bl	9304 <__multadd>
    83ea:	0005      	movs	r5, r0
    83ec:	4649      	mov	r1, r9
    83ee:	0028      	movs	r0, r5
    83f0:	f7ff fa8a 	bl	7908 <quorem>
    83f4:	465b      	mov	r3, fp
    83f6:	3030      	adds	r0, #48	; 0x30
    83f8:	5518      	strb	r0, [r3, r4]
    83fa:	3401      	adds	r4, #1
    83fc:	42bc      	cmp	r4, r7
    83fe:	dbee      	blt.n	83de <_dtoa_r+0x982>
    8400:	46ab      	mov	fp, r5
    8402:	0006      	movs	r6, r0
    8404:	9c07      	ldr	r4, [sp, #28]
    8406:	2c00      	cmp	r4, #0
    8408:	dc00      	bgt.n	840c <_dtoa_r+0x9b0>
    840a:	e237      	b.n	887c <_dtoa_r+0xe20>
    840c:	9b0a      	ldr	r3, [sp, #40]	; 0x28
    840e:	2700      	movs	r7, #0
    8410:	469c      	mov	ip, r3
    8412:	4464      	add	r4, ip
    8414:	4659      	mov	r1, fp
    8416:	2201      	movs	r2, #1
    8418:	4650      	mov	r0, sl
    841a:	f001 f915 	bl	9648 <__lshift>
    841e:	4649      	mov	r1, r9
    8420:	4683      	mov	fp, r0
    8422:	f001 f971 	bl	9708 <__mcmp>
    8426:	2800      	cmp	r0, #0
    8428:	dc00      	bgt.n	842c <_dtoa_r+0x9d0>
    842a:	e144      	b.n	86b6 <_dtoa_r+0xc5a>
    842c:	1e65      	subs	r5, r4, #1
    842e:	782b      	ldrb	r3, [r5, #0]
    8430:	9a0a      	ldr	r2, [sp, #40]	; 0x28
    8432:	e006      	b.n	8442 <_dtoa_r+0x9e6>
    8434:	4295      	cmp	r5, r2
    8436:	d100      	bne.n	843a <_dtoa_r+0x9de>
    8438:	e0b1      	b.n	859e <_dtoa_r+0xb42>
    843a:	3c02      	subs	r4, #2
    843c:	7823      	ldrb	r3, [r4, #0]
    843e:	002c      	movs	r4, r5
    8440:	3d01      	subs	r5, #1
    8442:	2b39      	cmp	r3, #57	; 0x39
    8444:	d0f6      	beq.n	8434 <_dtoa_r+0x9d8>
    8446:	3301      	adds	r3, #1
    8448:	702b      	strb	r3, [r5, #0]
    844a:	4649      	mov	r1, r9
    844c:	4650      	mov	r0, sl
    844e:	f000 ff4f 	bl	92f0 <_Bfree>
    8452:	4643      	mov	r3, r8
    8454:	2b00      	cmp	r3, #0
    8456:	d100      	bne.n	845a <_dtoa_r+0x9fe>
    8458:	e52f      	b.n	7eba <_dtoa_r+0x45e>
    845a:	2f00      	cmp	r7, #0
    845c:	d005      	beq.n	846a <_dtoa_r+0xa0e>
    845e:	4547      	cmp	r7, r8
    8460:	d003      	beq.n	846a <_dtoa_r+0xa0e>
    8462:	0039      	movs	r1, r7
    8464:	4650      	mov	r0, sl
    8466:	f000 ff43 	bl	92f0 <_Bfree>
    846a:	4641      	mov	r1, r8
    846c:	4650      	mov	r0, sl
    846e:	f000 ff3f 	bl	92f0 <_Bfree>
    8472:	e522      	b.n	7eba <_dtoa_r+0x45e>
    8474:	0013      	movs	r3, r2
    8476:	e675      	b.n	8164 <_dtoa_r+0x708>
    8478:	2e00      	cmp	r6, #0
    847a:	d000      	beq.n	847e <_dtoa_r+0xa22>
    847c:	e6ab      	b.n	81d6 <_dtoa_r+0x77a>
    847e:	033b      	lsls	r3, r7, #12
    8480:	2400      	movs	r4, #0
    8482:	2b00      	cmp	r3, #0
    8484:	d000      	beq.n	8488 <_dtoa_r+0xa2c>
    8486:	e6bf      	b.n	8208 <_dtoa_r+0x7ac>
    8488:	4bba      	ldr	r3, [pc, #744]	; (8774 <_dtoa_r+0xd18>)
    848a:	423b      	tst	r3, r7
    848c:	d100      	bne.n	8490 <_dtoa_r+0xa34>
    848e:	e6bb      	b.n	8208 <_dtoa_r+0x7ac>
    8490:	9b06      	ldr	r3, [sp, #24]
    8492:	3401      	adds	r4, #1
    8494:	3301      	adds	r3, #1
    8496:	9306      	str	r3, [sp, #24]
    8498:	9b04      	ldr	r3, [sp, #16]
    849a:	3301      	adds	r3, #1
    849c:	9304      	str	r3, [sp, #16]
    849e:	e6b3      	b.n	8208 <_dtoa_r+0x7ac>
    84a0:	2301      	movs	r3, #1
    84a2:	930b      	str	r3, [sp, #44]	; 0x2c
    84a4:	9b23      	ldr	r3, [sp, #140]	; 0x8c
    84a6:	2b00      	cmp	r3, #0
    84a8:	dc00      	bgt.n	84ac <_dtoa_r+0xa50>
    84aa:	e0d1      	b.n	8650 <_dtoa_r+0xbf4>
    84ac:	001d      	movs	r5, r3
    84ae:	4698      	mov	r8, r3
    84b0:	930e      	str	r3, [sp, #56]	; 0x38
    84b2:	9307      	str	r3, [sp, #28]
    84b4:	f7ff fbc8 	bl	7c48 <_dtoa_r+0x1ec>
    84b8:	9b07      	ldr	r3, [sp, #28]
    84ba:	2b00      	cmp	r3, #0
    84bc:	dd00      	ble.n	84c0 <_dtoa_r+0xa64>
    84be:	e553      	b.n	7f68 <_dtoa_r+0x50c>
    84c0:	d000      	beq.n	84c4 <_dtoa_r+0xa68>
    84c2:	e0ad      	b.n	8620 <_dtoa_r+0xbc4>
    84c4:	9804      	ldr	r0, [sp, #16]
    84c6:	9905      	ldr	r1, [sp, #20]
    84c8:	2200      	movs	r2, #0
    84ca:	4bab      	ldr	r3, [pc, #684]	; (8778 <_dtoa_r+0xd1c>)
    84cc:	f7fc fd8a 	bl	4fe4 <__aeabi_dmul>
    84d0:	003b      	movs	r3, r7
    84d2:	0032      	movs	r2, r6
    84d4:	f7fd fcda 	bl	5e8c <__aeabi_dcmpge>
    84d8:	2300      	movs	r3, #0
    84da:	4699      	mov	r9, r3
    84dc:	4698      	mov	r8, r3
    84de:	2800      	cmp	r0, #0
    84e0:	d055      	beq.n	858e <_dtoa_r+0xb32>
    84e2:	9b23      	ldr	r3, [sp, #140]	; 0x8c
    84e4:	9c0a      	ldr	r4, [sp, #40]	; 0x28
    84e6:	43db      	mvns	r3, r3
    84e8:	9303      	str	r3, [sp, #12]
    84ea:	4649      	mov	r1, r9
    84ec:	4650      	mov	r0, sl
    84ee:	f000 feff 	bl	92f0 <_Bfree>
    84f2:	4643      	mov	r3, r8
    84f4:	2b00      	cmp	r3, #0
    84f6:	d100      	bne.n	84fa <_dtoa_r+0xa9e>
    84f8:	e4df      	b.n	7eba <_dtoa_r+0x45e>
    84fa:	e7b6      	b.n	846a <_dtoa_r+0xa0e>
    84fc:	464a      	mov	r2, r9
    84fe:	4659      	mov	r1, fp
    8500:	4650      	mov	r0, sl
    8502:	f001 f841 	bl	9588 <__pow5mult>
    8506:	4683      	mov	fp, r0
    8508:	e653      	b.n	81b2 <_dtoa_r+0x756>
    850a:	9a0f      	ldr	r2, [sp, #60]	; 0x3c
    850c:	2a00      	cmp	r2, #0
    850e:	d100      	bne.n	8512 <_dtoa_r+0xab6>
    8510:	e1b6      	b.n	8880 <_dtoa_r+0xe24>
    8512:	4a9a      	ldr	r2, [pc, #616]	; (877c <_dtoa_r+0xd20>)
    8514:	464c      	mov	r4, r9
    8516:	4694      	mov	ip, r2
    8518:	9a06      	ldr	r2, [sp, #24]
    851a:	4463      	add	r3, ip
    851c:	9208      	str	r2, [sp, #32]
    851e:	e5d5      	b.n	80cc <_dtoa_r+0x670>
    8520:	2e00      	cmp	r6, #0
    8522:	d000      	beq.n	8526 <_dtoa_r+0xaca>
    8524:	e670      	b.n	8208 <_dtoa_r+0x7ac>
    8526:	e7aa      	b.n	847e <_dtoa_r+0xa22>
    8528:	f000 feec 	bl	9304 <__multadd>
    852c:	46a2      	mov	sl, r4
    852e:	0005      	movs	r5, r0
    8530:	4680      	mov	r8, r0
    8532:	e6c7      	b.n	82c4 <_dtoa_r+0x868>
    8534:	2301      	movs	r3, #1
    8536:	469b      	mov	fp, r3
    8538:	e6e2      	b.n	8300 <_dtoa_r+0x8a4>
    853a:	2300      	movs	r3, #0
    853c:	930b      	str	r3, [sp, #44]	; 0x2c
    853e:	9b22      	ldr	r3, [sp, #136]	; 0x88
    8540:	2b02      	cmp	r3, #2
    8542:	d0af      	beq.n	84a4 <_dtoa_r+0xa48>
    8544:	2400      	movs	r4, #0
    8546:	4653      	mov	r3, sl
    8548:	0021      	movs	r1, r4
    854a:	645c      	str	r4, [r3, #68]	; 0x44
    854c:	4650      	mov	r0, sl
    854e:	f000 fea7 	bl	92a0 <_Balloc>
    8552:	4653      	mov	r3, sl
    8554:	6418      	str	r0, [r3, #64]	; 0x40
    8556:	2301      	movs	r3, #1
    8558:	425b      	negs	r3, r3
    855a:	9307      	str	r3, [sp, #28]
    855c:	930e      	str	r3, [sp, #56]	; 0x38
    855e:	3302      	adds	r3, #2
    8560:	900a      	str	r0, [sp, #40]	; 0x28
    8562:	9423      	str	r4, [sp, #140]	; 0x8c
    8564:	930b      	str	r3, [sp, #44]	; 0x2c
    8566:	e4ec      	b.n	7f42 <_dtoa_r+0x4e6>
    8568:	9b22      	ldr	r3, [sp, #136]	; 0x88
    856a:	2b02      	cmp	r3, #2
    856c:	dc00      	bgt.n	8570 <_dtoa_r+0xb14>
    856e:	e685      	b.n	827c <_dtoa_r+0x820>
    8570:	9b07      	ldr	r3, [sp, #28]
    8572:	2b00      	cmp	r3, #0
    8574:	d1b5      	bne.n	84e2 <_dtoa_r+0xa86>
    8576:	4649      	mov	r1, r9
    8578:	2205      	movs	r2, #5
    857a:	4650      	mov	r0, sl
    857c:	f000 fec2 	bl	9304 <__multadd>
    8580:	4681      	mov	r9, r0
    8582:	0001      	movs	r1, r0
    8584:	4658      	mov	r0, fp
    8586:	f001 f8bf 	bl	9708 <__mcmp>
    858a:	2800      	cmp	r0, #0
    858c:	dda9      	ble.n	84e2 <_dtoa_r+0xa86>
    858e:	2331      	movs	r3, #49	; 0x31
    8590:	9a0a      	ldr	r2, [sp, #40]	; 0x28
    8592:	7013      	strb	r3, [r2, #0]
    8594:	9b03      	ldr	r3, [sp, #12]
    8596:	1c54      	adds	r4, r2, #1
    8598:	3301      	adds	r3, #1
    859a:	9303      	str	r3, [sp, #12]
    859c:	e7a5      	b.n	84ea <_dtoa_r+0xa8e>
    859e:	9b03      	ldr	r3, [sp, #12]
    85a0:	9a0a      	ldr	r2, [sp, #40]	; 0x28
    85a2:	3301      	adds	r3, #1
    85a4:	9303      	str	r3, [sp, #12]
    85a6:	2331      	movs	r3, #49	; 0x31
    85a8:	7013      	strb	r3, [r2, #0]
    85aa:	e74e      	b.n	844a <_dtoa_r+0x9ee>
    85ac:	2300      	movs	r3, #0
    85ae:	930b      	str	r3, [sp, #44]	; 0x2c
    85b0:	f7ff fb3d 	bl	7c2e <_dtoa_r+0x1d2>
    85b4:	9b06      	ldr	r3, [sp, #24]
    85b6:	465c      	mov	r4, fp
    85b8:	469b      	mov	fp, r3
    85ba:	9b07      	ldr	r3, [sp, #28]
    85bc:	469a      	mov	sl, r3
    85be:	e47c      	b.n	7eba <_dtoa_r+0x45e>
    85c0:	4640      	mov	r0, r8
    85c2:	f7fd fad9 	bl	5b78 <__aeabi_i2d>
    85c6:	0032      	movs	r2, r6
    85c8:	003b      	movs	r3, r7
    85ca:	f7fc fd0b 	bl	4fe4 <__aeabi_dmul>
    85ce:	2200      	movs	r2, #0
    85d0:	4b6b      	ldr	r3, [pc, #428]	; (8780 <_dtoa_r+0xd24>)
    85d2:	f001 fd59 	bl	a088 <__aeabi_dadd>
    85d6:	4a6b      	ldr	r2, [pc, #428]	; (8784 <_dtoa_r+0xd28>)
    85d8:	000b      	movs	r3, r1
    85da:	4694      	mov	ip, r2
    85dc:	4463      	add	r3, ip
    85de:	9008      	str	r0, [sp, #32]
    85e0:	9109      	str	r1, [sp, #36]	; 0x24
    85e2:	9309      	str	r3, [sp, #36]	; 0x24
    85e4:	2200      	movs	r2, #0
    85e6:	4b64      	ldr	r3, [pc, #400]	; (8778 <_dtoa_r+0xd1c>)
    85e8:	0030      	movs	r0, r6
    85ea:	0039      	movs	r1, r7
    85ec:	f7fc ff7a 	bl	54e4 <__aeabi_dsub>
    85f0:	9e08      	ldr	r6, [sp, #32]
    85f2:	9f09      	ldr	r7, [sp, #36]	; 0x24
    85f4:	0032      	movs	r2, r6
    85f6:	003b      	movs	r3, r7
    85f8:	0004      	movs	r4, r0
    85fa:	000d      	movs	r5, r1
    85fc:	f7fd fc3c 	bl	5e78 <__aeabi_dcmpgt>
    8600:	2800      	cmp	r0, #0
    8602:	d000      	beq.n	8606 <_dtoa_r+0xbaa>
    8604:	e0b2      	b.n	876c <_dtoa_r+0xd10>
    8606:	2080      	movs	r0, #128	; 0x80
    8608:	0600      	lsls	r0, r0, #24
    860a:	4684      	mov	ip, r0
    860c:	0039      	movs	r1, r7
    860e:	4461      	add	r1, ip
    8610:	000b      	movs	r3, r1
    8612:	0032      	movs	r2, r6
    8614:	0020      	movs	r0, r4
    8616:	0029      	movs	r1, r5
    8618:	f7fd fc1a 	bl	5e50 <__aeabi_dcmplt>
    861c:	2800      	cmp	r0, #0
    861e:	d057      	beq.n	86d0 <_dtoa_r+0xc74>
    8620:	2300      	movs	r3, #0
    8622:	4699      	mov	r9, r3
    8624:	4698      	mov	r8, r3
    8626:	e75c      	b.n	84e2 <_dtoa_r+0xa86>
    8628:	980a      	ldr	r0, [sp, #40]	; 0x28
    862a:	f7ff fa4c 	bl	7ac6 <_dtoa_r+0x6a>
    862e:	1ae2      	subs	r2, r4, r3
    8630:	9b0d      	ldr	r3, [sp, #52]	; 0x34
    8632:	46a1      	mov	r9, r4
    8634:	469c      	mov	ip, r3
    8636:	4494      	add	ip, r2
    8638:	4663      	mov	r3, ip
    863a:	2400      	movs	r4, #0
    863c:	930d      	str	r3, [sp, #52]	; 0x34
    863e:	e53e      	b.n	80be <_dtoa_r+0x662>
    8640:	9a10      	ldr	r2, [sp, #64]	; 0x40
    8642:	9b11      	ldr	r3, [sp, #68]	; 0x44
    8644:	9208      	str	r2, [sp, #32]
    8646:	9309      	str	r3, [sp, #36]	; 0x24
    8648:	2302      	movs	r3, #2
    864a:	4698      	mov	r8, r3
    864c:	f7ff fb3a 	bl	7cc4 <_dtoa_r+0x268>
    8650:	2300      	movs	r3, #0
    8652:	4652      	mov	r2, sl
    8654:	2100      	movs	r1, #0
    8656:	6453      	str	r3, [r2, #68]	; 0x44
    8658:	4650      	mov	r0, sl
    865a:	f000 fe21 	bl	92a0 <_Balloc>
    865e:	4653      	mov	r3, sl
    8660:	6418      	str	r0, [r3, #64]	; 0x40
    8662:	2301      	movs	r3, #1
    8664:	900a      	str	r0, [sp, #40]	; 0x28
    8666:	9307      	str	r3, [sp, #28]
    8668:	9323      	str	r3, [sp, #140]	; 0x8c
    866a:	930e      	str	r3, [sp, #56]	; 0x38
    866c:	f7ff fb07 	bl	7c7e <_dtoa_r+0x222>
    8670:	4643      	mov	r3, r8
    8672:	930c      	str	r3, [sp, #48]	; 0x30
    8674:	465b      	mov	r3, fp
    8676:	9a06      	ldr	r2, [sp, #24]
    8678:	46a8      	mov	r8, r5
    867a:	46b3      	mov	fp, r6
    867c:	4655      	mov	r5, sl
    867e:	9e04      	ldr	r6, [sp, #16]
    8680:	4691      	mov	r9, r2
    8682:	46ba      	mov	sl, r7
    8684:	2b00      	cmp	r3, #0
    8686:	dd10      	ble.n	86aa <_dtoa_r+0xc4e>
    8688:	4659      	mov	r1, fp
    868a:	2201      	movs	r2, #1
    868c:	0038      	movs	r0, r7
    868e:	f000 ffdb 	bl	9648 <__lshift>
    8692:	4649      	mov	r1, r9
    8694:	4683      	mov	fp, r0
    8696:	f001 f837 	bl	9708 <__mcmp>
    869a:	2800      	cmp	r0, #0
    869c:	dc00      	bgt.n	86a0 <_dtoa_r+0xc44>
    869e:	e157      	b.n	8950 <_dtoa_r+0xef4>
    86a0:	2e39      	cmp	r6, #57	; 0x39
    86a2:	d100      	bne.n	86a6 <_dtoa_r+0xc4a>
    86a4:	e122      	b.n	88ec <_dtoa_r+0xe90>
    86a6:	9e0b      	ldr	r6, [sp, #44]	; 0x2c
    86a8:	3631      	adds	r6, #49	; 0x31
    86aa:	9b0c      	ldr	r3, [sp, #48]	; 0x30
    86ac:	4647      	mov	r7, r8
    86ae:	1c6c      	adds	r4, r5, #1
    86b0:	702e      	strb	r6, [r5, #0]
    86b2:	4698      	mov	r8, r3
    86b4:	e6c9      	b.n	844a <_dtoa_r+0x9ee>
    86b6:	2800      	cmp	r0, #0
    86b8:	d103      	bne.n	86c2 <_dtoa_r+0xc66>
    86ba:	07f3      	lsls	r3, r6, #31
    86bc:	d501      	bpl.n	86c2 <_dtoa_r+0xc66>
    86be:	e6b5      	b.n	842c <_dtoa_r+0x9d0>
    86c0:	001c      	movs	r4, r3
    86c2:	1e63      	subs	r3, r4, #1
    86c4:	781a      	ldrb	r2, [r3, #0]
    86c6:	2a30      	cmp	r2, #48	; 0x30
    86c8:	d0fa      	beq.n	86c0 <_dtoa_r+0xc64>
    86ca:	e6be      	b.n	844a <_dtoa_r+0x9ee>
    86cc:	9b12      	ldr	r3, [sp, #72]	; 0x48
    86ce:	4699      	mov	r9, r3
    86d0:	9e10      	ldr	r6, [sp, #64]	; 0x40
    86d2:	9f11      	ldr	r7, [sp, #68]	; 0x44
    86d4:	e435      	b.n	7f42 <_dtoa_r+0x4e6>
    86d6:	2501      	movs	r5, #1
    86d8:	f7ff fab4 	bl	7c44 <_dtoa_r+0x1e8>
    86dc:	9b03      	ldr	r3, [sp, #12]
    86de:	2b00      	cmp	r3, #0
    86e0:	d100      	bne.n	86e4 <_dtoa_r+0xc88>
    86e2:	e0d4      	b.n	888e <_dtoa_r+0xe32>
    86e4:	9810      	ldr	r0, [sp, #64]	; 0x40
    86e6:	9911      	ldr	r1, [sp, #68]	; 0x44
    86e8:	425c      	negs	r4, r3
    86ea:	230f      	movs	r3, #15
    86ec:	4a26      	ldr	r2, [pc, #152]	; (8788 <_dtoa_r+0xd2c>)
    86ee:	4023      	ands	r3, r4
    86f0:	00db      	lsls	r3, r3, #3
    86f2:	18d3      	adds	r3, r2, r3
    86f4:	681a      	ldr	r2, [r3, #0]
    86f6:	685b      	ldr	r3, [r3, #4]
    86f8:	f7fc fc74 	bl	4fe4 <__aeabi_dmul>
    86fc:	1124      	asrs	r4, r4, #4
    86fe:	0006      	movs	r6, r0
    8700:	000f      	movs	r7, r1
    8702:	2c00      	cmp	r4, #0
    8704:	d100      	bne.n	8708 <_dtoa_r+0xcac>
    8706:	e149      	b.n	899c <_dtoa_r+0xf40>
    8708:	2302      	movs	r3, #2
    870a:	4698      	mov	r8, r3
    870c:	4d1f      	ldr	r5, [pc, #124]	; (878c <_dtoa_r+0xd30>)
    870e:	2301      	movs	r3, #1
    8710:	4223      	tst	r3, r4
    8712:	d009      	beq.n	8728 <_dtoa_r+0xccc>
    8714:	469c      	mov	ip, r3
    8716:	682a      	ldr	r2, [r5, #0]
    8718:	686b      	ldr	r3, [r5, #4]
    871a:	0030      	movs	r0, r6
    871c:	0039      	movs	r1, r7
    871e:	44e0      	add	r8, ip
    8720:	f7fc fc60 	bl	4fe4 <__aeabi_dmul>
    8724:	0006      	movs	r6, r0
    8726:	000f      	movs	r7, r1
    8728:	1064      	asrs	r4, r4, #1
    872a:	3508      	adds	r5, #8
    872c:	2c00      	cmp	r4, #0
    872e:	d1ee      	bne.n	870e <_dtoa_r+0xcb2>
    8730:	f7ff fae4 	bl	7cfc <_dtoa_r+0x2a0>
    8734:	9b03      	ldr	r3, [sp, #12]
    8736:	2730      	movs	r7, #48	; 0x30
    8738:	3301      	adds	r3, #1
    873a:	9303      	str	r3, [sp, #12]
    873c:	2330      	movs	r3, #48	; 0x30
    873e:	702b      	strb	r3, [r5, #0]
    8740:	e4ac      	b.n	809c <_dtoa_r+0x640>
    8742:	6859      	ldr	r1, [r3, #4]
    8744:	4650      	mov	r0, sl
    8746:	f000 fdab 	bl	92a0 <_Balloc>
    874a:	4643      	mov	r3, r8
    874c:	4641      	mov	r1, r8
    874e:	0004      	movs	r4, r0
    8750:	691b      	ldr	r3, [r3, #16]
    8752:	310c      	adds	r1, #12
    8754:	1c9a      	adds	r2, r3, #2
    8756:	0092      	lsls	r2, r2, #2
    8758:	300c      	adds	r0, #12
    875a:	f7fd fd0f 	bl	617c <memcpy>
    875e:	2201      	movs	r2, #1
    8760:	0021      	movs	r1, r4
    8762:	4650      	mov	r0, sl
    8764:	f000 ff70 	bl	9648 <__lshift>
    8768:	900c      	str	r0, [sp, #48]	; 0x30
    876a:	e599      	b.n	82a0 <_dtoa_r+0x844>
    876c:	2300      	movs	r3, #0
    876e:	4699      	mov	r9, r3
    8770:	4698      	mov	r8, r3
    8772:	e70c      	b.n	858e <_dtoa_r+0xb32>
    8774:	7ff00000 	.word	0x7ff00000
    8778:	40140000 	.word	0x40140000
    877c:	00000433 	.word	0x00000433
    8780:	401c0000 	.word	0x401c0000
    8784:	fcc00000 	.word	0xfcc00000
    8788:	0000b488 	.word	0x0000b488
    878c:	0000b460 	.word	0x0000b460
    8790:	9b12      	ldr	r3, [sp, #72]	; 0x48
    8792:	498f      	ldr	r1, [pc, #572]	; (89d0 <_dtoa_r+0xf74>)
    8794:	3b01      	subs	r3, #1
    8796:	00db      	lsls	r3, r3, #3
    8798:	18c9      	adds	r1, r1, r3
    879a:	6808      	ldr	r0, [r1, #0]
    879c:	6849      	ldr	r1, [r1, #4]
    879e:	9a08      	ldr	r2, [sp, #32]
    87a0:	9b09      	ldr	r3, [sp, #36]	; 0x24
    87a2:	f7fc fc1f 	bl	4fe4 <__aeabi_dmul>
    87a6:	9014      	str	r0, [sp, #80]	; 0x50
    87a8:	9115      	str	r1, [sp, #84]	; 0x54
    87aa:	0039      	movs	r1, r7
    87ac:	0030      	movs	r0, r6
    87ae:	f7fd f9af 	bl	5b10 <__aeabi_d2iz>
    87b2:	0005      	movs	r5, r0
    87b4:	f7fd f9e0 	bl	5b78 <__aeabi_i2d>
    87b8:	0002      	movs	r2, r0
    87ba:	000b      	movs	r3, r1
    87bc:	0030      	movs	r0, r6
    87be:	0039      	movs	r1, r7
    87c0:	f7fc fe90 	bl	54e4 <__aeabi_dsub>
    87c4:	9b12      	ldr	r3, [sp, #72]	; 0x48
    87c6:	9008      	str	r0, [sp, #32]
    87c8:	9109      	str	r1, [sp, #36]	; 0x24
    87ca:	990a      	ldr	r1, [sp, #40]	; 0x28
    87cc:	001a      	movs	r2, r3
    87ce:	468c      	mov	ip, r1
    87d0:	3530      	adds	r5, #48	; 0x30
    87d2:	4462      	add	r2, ip
    87d4:	1c4c      	adds	r4, r1, #1
    87d6:	700d      	strb	r5, [r1, #0]
    87d8:	4690      	mov	r8, r2
    87da:	2b01      	cmp	r3, #1
    87dc:	d01b      	beq.n	8816 <_dtoa_r+0xdba>
    87de:	9808      	ldr	r0, [sp, #32]
    87e0:	9909      	ldr	r1, [sp, #36]	; 0x24
    87e2:	0025      	movs	r5, r4
    87e4:	2200      	movs	r2, #0
    87e6:	4b7b      	ldr	r3, [pc, #492]	; (89d4 <_dtoa_r+0xf78>)
    87e8:	f7fc fbfc 	bl	4fe4 <__aeabi_dmul>
    87ec:	000f      	movs	r7, r1
    87ee:	0006      	movs	r6, r0
    87f0:	f7fd f98e 	bl	5b10 <__aeabi_d2iz>
    87f4:	0004      	movs	r4, r0
    87f6:	f7fd f9bf 	bl	5b78 <__aeabi_i2d>
    87fa:	3430      	adds	r4, #48	; 0x30
    87fc:	0002      	movs	r2, r0
    87fe:	000b      	movs	r3, r1
    8800:	0030      	movs	r0, r6
    8802:	0039      	movs	r1, r7
    8804:	f7fc fe6e 	bl	54e4 <__aeabi_dsub>
    8808:	702c      	strb	r4, [r5, #0]
    880a:	3501      	adds	r5, #1
    880c:	45a8      	cmp	r8, r5
    880e:	d1e9      	bne.n	87e4 <_dtoa_r+0xd88>
    8810:	4644      	mov	r4, r8
    8812:	9008      	str	r0, [sp, #32]
    8814:	9109      	str	r1, [sp, #36]	; 0x24
    8816:	9814      	ldr	r0, [sp, #80]	; 0x50
    8818:	9915      	ldr	r1, [sp, #84]	; 0x54
    881a:	2200      	movs	r2, #0
    881c:	4b6e      	ldr	r3, [pc, #440]	; (89d8 <_dtoa_r+0xf7c>)
    881e:	f001 fc33 	bl	a088 <__aeabi_dadd>
    8822:	9a08      	ldr	r2, [sp, #32]
    8824:	9b09      	ldr	r3, [sp, #36]	; 0x24
    8826:	f7fd fb13 	bl	5e50 <__aeabi_dcmplt>
    882a:	2800      	cmp	r0, #0
    882c:	d067      	beq.n	88fe <_dtoa_r+0xea2>
    882e:	9b13      	ldr	r3, [sp, #76]	; 0x4c
    8830:	1e65      	subs	r5, r4, #1
    8832:	9303      	str	r3, [sp, #12]
    8834:	782f      	ldrb	r7, [r5, #0]
    8836:	9b0a      	ldr	r3, [sp, #40]	; 0x28
    8838:	e42e      	b.n	8098 <_dtoa_r+0x63c>
    883a:	4643      	mov	r3, r8
    883c:	46b3      	mov	fp, r6
    883e:	930c      	str	r3, [sp, #48]	; 0x30
    8840:	9e04      	ldr	r6, [sp, #16]
    8842:	9b06      	ldr	r3, [sp, #24]
    8844:	46a8      	mov	r8, r5
    8846:	4699      	mov	r9, r3
    8848:	4655      	mov	r5, sl
    884a:	46ba      	mov	sl, r7
    884c:	2e39      	cmp	r6, #57	; 0x39
    884e:	d04d      	beq.n	88ec <_dtoa_r+0xe90>
    8850:	9b0c      	ldr	r3, [sp, #48]	; 0x30
    8852:	3601      	adds	r6, #1
    8854:	4647      	mov	r7, r8
    8856:	1c6c      	adds	r4, r5, #1
    8858:	702e      	strb	r6, [r5, #0]
    885a:	4698      	mov	r8, r3
    885c:	e5f5      	b.n	844a <_dtoa_r+0x9ee>
    885e:	4642      	mov	r2, r8
    8860:	9b06      	ldr	r3, [sp, #24]
    8862:	46b3      	mov	fp, r6
    8864:	46ba      	mov	sl, r7
    8866:	9e04      	ldr	r6, [sp, #16]
    8868:	4699      	mov	r9, r3
    886a:	002f      	movs	r7, r5
    886c:	4690      	mov	r8, r2
    886e:	e5d1      	b.n	8414 <_dtoa_r+0x9b8>
    8870:	9b06      	ldr	r3, [sp, #24]
    8872:	9a07      	ldr	r2, [sp, #28]
    8874:	1a9b      	subs	r3, r3, r2
    8876:	9308      	str	r3, [sp, #32]
    8878:	2300      	movs	r3, #0
    887a:	e427      	b.n	80cc <_dtoa_r+0x670>
    887c:	2401      	movs	r4, #1
    887e:	e5c5      	b.n	840c <_dtoa_r+0x9b0>
    8880:	2336      	movs	r3, #54	; 0x36
    8882:	9a16      	ldr	r2, [sp, #88]	; 0x58
    8884:	464c      	mov	r4, r9
    8886:	1a9b      	subs	r3, r3, r2
    8888:	9a06      	ldr	r2, [sp, #24]
    888a:	9208      	str	r2, [sp, #32]
    888c:	e41e      	b.n	80cc <_dtoa_r+0x670>
    888e:	2302      	movs	r3, #2
    8890:	9e10      	ldr	r6, [sp, #64]	; 0x40
    8892:	9f11      	ldr	r7, [sp, #68]	; 0x44
    8894:	4698      	mov	r8, r3
    8896:	f7ff fa31 	bl	7cfc <_dtoa_r+0x2a0>
    889a:	9b07      	ldr	r3, [sp, #28]
    889c:	2b00      	cmp	r3, #0
    889e:	d100      	bne.n	88a2 <_dtoa_r+0xe46>
    88a0:	e68e      	b.n	85c0 <_dtoa_r+0xb64>
    88a2:	9c0e      	ldr	r4, [sp, #56]	; 0x38
    88a4:	2c00      	cmp	r4, #0
    88a6:	dc00      	bgt.n	88aa <_dtoa_r+0xe4e>
    88a8:	e712      	b.n	86d0 <_dtoa_r+0xc74>
    88aa:	9b03      	ldr	r3, [sp, #12]
    88ac:	2200      	movs	r2, #0
    88ae:	3b01      	subs	r3, #1
    88b0:	9313      	str	r3, [sp, #76]	; 0x4c
    88b2:	0030      	movs	r0, r6
    88b4:	4b47      	ldr	r3, [pc, #284]	; (89d4 <_dtoa_r+0xf78>)
    88b6:	0039      	movs	r1, r7
    88b8:	f7fc fb94 	bl	4fe4 <__aeabi_dmul>
    88bc:	0006      	movs	r6, r0
    88be:	4640      	mov	r0, r8
    88c0:	000f      	movs	r7, r1
    88c2:	3001      	adds	r0, #1
    88c4:	f7fd f958 	bl	5b78 <__aeabi_i2d>
    88c8:	0032      	movs	r2, r6
    88ca:	003b      	movs	r3, r7
    88cc:	f7fc fb8a 	bl	4fe4 <__aeabi_dmul>
    88d0:	2200      	movs	r2, #0
    88d2:	4b42      	ldr	r3, [pc, #264]	; (89dc <_dtoa_r+0xf80>)
    88d4:	f001 fbd8 	bl	a088 <__aeabi_dadd>
    88d8:	4a41      	ldr	r2, [pc, #260]	; (89e0 <_dtoa_r+0xf84>)
    88da:	000b      	movs	r3, r1
    88dc:	4694      	mov	ip, r2
    88de:	4463      	add	r3, ip
    88e0:	9008      	str	r0, [sp, #32]
    88e2:	9109      	str	r1, [sp, #36]	; 0x24
    88e4:	9412      	str	r4, [sp, #72]	; 0x48
    88e6:	9309      	str	r3, [sp, #36]	; 0x24
    88e8:	f7ff fa30 	bl	7d4c <_dtoa_r+0x2f0>
    88ec:	2339      	movs	r3, #57	; 0x39
    88ee:	702b      	strb	r3, [r5, #0]
    88f0:	9b0c      	ldr	r3, [sp, #48]	; 0x30
    88f2:	4647      	mov	r7, r8
    88f4:	1c6c      	adds	r4, r5, #1
    88f6:	4698      	mov	r8, r3
    88f8:	9a0a      	ldr	r2, [sp, #40]	; 0x28
    88fa:	2339      	movs	r3, #57	; 0x39
    88fc:	e5a1      	b.n	8442 <_dtoa_r+0x9e6>
    88fe:	9a14      	ldr	r2, [sp, #80]	; 0x50
    8900:	9b15      	ldr	r3, [sp, #84]	; 0x54
    8902:	2000      	movs	r0, #0
    8904:	4934      	ldr	r1, [pc, #208]	; (89d8 <_dtoa_r+0xf7c>)
    8906:	f7fc fded 	bl	54e4 <__aeabi_dsub>
    890a:	9a08      	ldr	r2, [sp, #32]
    890c:	9b09      	ldr	r3, [sp, #36]	; 0x24
    890e:	f7fd fab3 	bl	5e78 <__aeabi_dcmpgt>
    8912:	2800      	cmp	r0, #0
    8914:	d101      	bne.n	891a <_dtoa_r+0xebe>
    8916:	e6db      	b.n	86d0 <_dtoa_r+0xc74>
    8918:	001c      	movs	r4, r3
    891a:	1e63      	subs	r3, r4, #1
    891c:	781a      	ldrb	r2, [r3, #0]
    891e:	2a30      	cmp	r2, #48	; 0x30
    8920:	d0fa      	beq.n	8918 <_dtoa_r+0xebc>
    8922:	f7ff fac8 	bl	7eb6 <_dtoa_r+0x45a>
    8926:	4643      	mov	r3, r8
    8928:	46b3      	mov	fp, r6
    892a:	930c      	str	r3, [sp, #48]	; 0x30
    892c:	9e04      	ldr	r6, [sp, #16]
    892e:	9b06      	ldr	r3, [sp, #24]
    8930:	46a8      	mov	r8, r5
    8932:	4699      	mov	r9, r3
    8934:	4655      	mov	r5, sl
    8936:	46ba      	mov	sl, r7
    8938:	2e39      	cmp	r6, #57	; 0x39
    893a:	d0d7      	beq.n	88ec <_dtoa_r+0xe90>
    893c:	2c00      	cmp	r4, #0
    893e:	dd00      	ble.n	8942 <_dtoa_r+0xee6>
    8940:	e6b1      	b.n	86a6 <_dtoa_r+0xc4a>
    8942:	e6b2      	b.n	86aa <_dtoa_r+0xc4e>
    8944:	9a13      	ldr	r2, [sp, #76]	; 0x4c
    8946:	464d      	mov	r5, r9
    8948:	9203      	str	r2, [sp, #12]
    894a:	9b0a      	ldr	r3, [sp, #40]	; 0x28
    894c:	f7ff fba4 	bl	8098 <_dtoa_r+0x63c>
    8950:	2800      	cmp	r0, #0
    8952:	d000      	beq.n	8956 <_dtoa_r+0xefa>
    8954:	e6a9      	b.n	86aa <_dtoa_r+0xc4e>
    8956:	07f3      	lsls	r3, r6, #31
    8958:	d400      	bmi.n	895c <_dtoa_r+0xf00>
    895a:	e6a6      	b.n	86aa <_dtoa_r+0xc4e>
    895c:	e6a0      	b.n	86a0 <_dtoa_r+0xc44>
    895e:	2300      	movs	r3, #0
    8960:	4641      	mov	r1, r8
    8962:	220a      	movs	r2, #10
    8964:	4650      	mov	r0, sl
    8966:	f000 fccd 	bl	9304 <__multadd>
    896a:	9b0e      	ldr	r3, [sp, #56]	; 0x38
    896c:	4680      	mov	r8, r0
    896e:	2b00      	cmp	r3, #0
    8970:	dd01      	ble.n	8976 <_dtoa_r+0xf1a>
    8972:	9307      	str	r3, [sp, #28]
    8974:	e486      	b.n	8284 <_dtoa_r+0x828>
    8976:	9b22      	ldr	r3, [sp, #136]	; 0x88
    8978:	2b02      	cmp	r3, #2
    897a:	dc1f      	bgt.n	89bc <_dtoa_r+0xf60>
    897c:	9b0e      	ldr	r3, [sp, #56]	; 0x38
    897e:	9307      	str	r3, [sp, #28]
    8980:	e480      	b.n	8284 <_dtoa_r+0x828>
    8982:	9b22      	ldr	r3, [sp, #136]	; 0x88
    8984:	2b02      	cmp	r3, #2
    8986:	dc19      	bgt.n	89bc <_dtoa_r+0xf60>
    8988:	4649      	mov	r1, r9
    898a:	f7fe ffbd 	bl	7908 <quorem>
    898e:	9b0a      	ldr	r3, [sp, #40]	; 0x28
    8990:	3030      	adds	r0, #48	; 0x30
    8992:	7018      	strb	r0, [r3, #0]
    8994:	9b0e      	ldr	r3, [sp, #56]	; 0x38
    8996:	0006      	movs	r6, r0
    8998:	9307      	str	r3, [sp, #28]
    899a:	e533      	b.n	8404 <_dtoa_r+0x9a8>
    899c:	2302      	movs	r3, #2
    899e:	4698      	mov	r8, r3
    89a0:	f7ff f9ac 	bl	7cfc <_dtoa_r+0x2a0>
    89a4:	9b13      	ldr	r3, [sp, #76]	; 0x4c
    89a6:	9c14      	ldr	r4, [sp, #80]	; 0x50
    89a8:	9303      	str	r3, [sp, #12]
    89aa:	9b0a      	ldr	r3, [sp, #40]	; 0x28
    89ac:	001d      	movs	r5, r3
    89ae:	f7ff fb73 	bl	8098 <_dtoa_r+0x63c>
    89b2:	9b13      	ldr	r3, [sp, #76]	; 0x4c
    89b4:	9c14      	ldr	r4, [sp, #80]	; 0x50
    89b6:	9303      	str	r3, [sp, #12]
    89b8:	f7ff fa7f 	bl	7eba <_dtoa_r+0x45e>
    89bc:	9b0e      	ldr	r3, [sp, #56]	; 0x38
    89be:	9307      	str	r3, [sp, #28]
    89c0:	e5d6      	b.n	8570 <_dtoa_r+0xb14>
    89c2:	2b04      	cmp	r3, #4
    89c4:	d100      	bne.n	89c8 <_dtoa_r+0xf6c>
    89c6:	e43f      	b.n	8248 <_dtoa_r+0x7ec>
    89c8:	233c      	movs	r3, #60	; 0x3c
    89ca:	1a18      	subs	r0, r3, r0
    89cc:	e4d7      	b.n	837e <_dtoa_r+0x922>
    89ce:	46c0      	nop			; (mov r8, r8)
    89d0:	0000b488 	.word	0x0000b488
    89d4:	40240000 	.word	0x40240000
    89d8:	3fe00000 	.word	0x3fe00000
    89dc:	401c0000 	.word	0x401c0000
    89e0:	fcc00000 	.word	0xfcc00000

000089e4 <__libc_fini_array>:
    89e4:	b570      	push	{r4, r5, r6, lr}
    89e6:	4b09      	ldr	r3, [pc, #36]	; (8a0c <__libc_fini_array+0x28>)
    89e8:	4c09      	ldr	r4, [pc, #36]	; (8a10 <__libc_fini_array+0x2c>)
    89ea:	1ae4      	subs	r4, r4, r3
    89ec:	10a4      	asrs	r4, r4, #2
    89ee:	d009      	beq.n	8a04 <__libc_fini_array+0x20>
    89f0:	4a08      	ldr	r2, [pc, #32]	; (8a14 <__libc_fini_array+0x30>)
    89f2:	18a5      	adds	r5, r4, r2
    89f4:	00ad      	lsls	r5, r5, #2
    89f6:	18ed      	adds	r5, r5, r3
    89f8:	682b      	ldr	r3, [r5, #0]
    89fa:	3c01      	subs	r4, #1
    89fc:	4798      	blx	r3
    89fe:	3d04      	subs	r5, #4
    8a00:	2c00      	cmp	r4, #0
    8a02:	d1f9      	bne.n	89f8 <__libc_fini_array+0x14>
    8a04:	f002 fe3e 	bl	b684 <_fini>
    8a08:	bd70      	pop	{r4, r5, r6, pc}
    8a0a:	46c0      	nop			; (mov r8, r8)
    8a0c:	0000b690 	.word	0x0000b690
    8a10:	0000b694 	.word	0x0000b694
    8a14:	3fffffff 	.word	0x3fffffff

00008a18 <_malloc_trim_r>:
    8a18:	b5f8      	push	{r3, r4, r5, r6, r7, lr}
    8a1a:	000c      	movs	r4, r1
    8a1c:	0006      	movs	r6, r0
    8a1e:	f000 fc2f 	bl	9280 <__malloc_lock>
    8a22:	4f20      	ldr	r7, [pc, #128]	; (8aa4 <_malloc_trim_r+0x8c>)
    8a24:	68bb      	ldr	r3, [r7, #8]
    8a26:	685d      	ldr	r5, [r3, #4]
    8a28:	2303      	movs	r3, #3
    8a2a:	439d      	bics	r5, r3
    8a2c:	4b1e      	ldr	r3, [pc, #120]	; (8aa8 <_malloc_trim_r+0x90>)
    8a2e:	1b2c      	subs	r4, r5, r4
    8a30:	469c      	mov	ip, r3
    8a32:	4464      	add	r4, ip
    8a34:	0b24      	lsrs	r4, r4, #12
    8a36:	4b1d      	ldr	r3, [pc, #116]	; (8aac <_malloc_trim_r+0x94>)
    8a38:	3c01      	subs	r4, #1
    8a3a:	0324      	lsls	r4, r4, #12
    8a3c:	429c      	cmp	r4, r3
    8a3e:	dd07      	ble.n	8a50 <_malloc_trim_r+0x38>
    8a40:	2100      	movs	r1, #0
    8a42:	0030      	movs	r0, r6
    8a44:	f000 ff74 	bl	9930 <_sbrk_r>
    8a48:	68bb      	ldr	r3, [r7, #8]
    8a4a:	195b      	adds	r3, r3, r5
    8a4c:	4298      	cmp	r0, r3
    8a4e:	d004      	beq.n	8a5a <_malloc_trim_r+0x42>
    8a50:	0030      	movs	r0, r6
    8a52:	f000 fc1d 	bl	9290 <__malloc_unlock>
    8a56:	2000      	movs	r0, #0
    8a58:	bdf8      	pop	{r3, r4, r5, r6, r7, pc}
    8a5a:	4261      	negs	r1, r4
    8a5c:	0030      	movs	r0, r6
    8a5e:	f000 ff67 	bl	9930 <_sbrk_r>
    8a62:	1c43      	adds	r3, r0, #1
    8a64:	d00d      	beq.n	8a82 <_malloc_trim_r+0x6a>
    8a66:	2201      	movs	r2, #1
    8a68:	68bb      	ldr	r3, [r7, #8]
    8a6a:	1b2d      	subs	r5, r5, r4
    8a6c:	4315      	orrs	r5, r2
    8a6e:	605d      	str	r5, [r3, #4]
    8a70:	4b0f      	ldr	r3, [pc, #60]	; (8ab0 <_malloc_trim_r+0x98>)
    8a72:	0030      	movs	r0, r6
    8a74:	681a      	ldr	r2, [r3, #0]
    8a76:	1b14      	subs	r4, r2, r4
    8a78:	601c      	str	r4, [r3, #0]
    8a7a:	f000 fc09 	bl	9290 <__malloc_unlock>
    8a7e:	2001      	movs	r0, #1
    8a80:	e7ea      	b.n	8a58 <_malloc_trim_r+0x40>
    8a82:	2100      	movs	r1, #0
    8a84:	0030      	movs	r0, r6
    8a86:	f000 ff53 	bl	9930 <_sbrk_r>
    8a8a:	68ba      	ldr	r2, [r7, #8]
    8a8c:	1a83      	subs	r3, r0, r2
    8a8e:	2b0f      	cmp	r3, #15
    8a90:	ddde      	ble.n	8a50 <_malloc_trim_r+0x38>
    8a92:	4908      	ldr	r1, [pc, #32]	; (8ab4 <_malloc_trim_r+0x9c>)
    8a94:	6809      	ldr	r1, [r1, #0]
    8a96:	1a40      	subs	r0, r0, r1
    8a98:	4905      	ldr	r1, [pc, #20]	; (8ab0 <_malloc_trim_r+0x98>)
    8a9a:	6008      	str	r0, [r1, #0]
    8a9c:	2101      	movs	r1, #1
    8a9e:	430b      	orrs	r3, r1
    8aa0:	6053      	str	r3, [r2, #4]
    8aa2:	e7d5      	b.n	8a50 <_malloc_trim_r+0x38>
    8aa4:	2000044c 	.word	0x2000044c
    8aa8:	00000fef 	.word	0x00000fef
    8aac:	00000fff 	.word	0x00000fff
    8ab0:	20000e0c 	.word	0x20000e0c
    8ab4:	20000854 	.word	0x20000854

00008ab8 <_free_r>:
    8ab8:	b5f8      	push	{r3, r4, r5, r6, r7, lr}
    8aba:	0004      	movs	r4, r0
    8abc:	1e0d      	subs	r5, r1, #0
    8abe:	d03c      	beq.n	8b3a <_free_r+0x82>
    8ac0:	f000 fbde 	bl	9280 <__malloc_lock>
    8ac4:	0029      	movs	r1, r5
    8ac6:	3908      	subs	r1, #8
    8ac8:	6848      	ldr	r0, [r1, #4]
    8aca:	2301      	movs	r3, #1
    8acc:	0005      	movs	r5, r0
    8ace:	2603      	movs	r6, #3
    8ad0:	439d      	bics	r5, r3
    8ad2:	194a      	adds	r2, r1, r5
    8ad4:	469c      	mov	ip, r3
    8ad6:	4f61      	ldr	r7, [pc, #388]	; (8c5c <_free_r+0x1a4>)
    8ad8:	6853      	ldr	r3, [r2, #4]
    8ada:	43b3      	bics	r3, r6
    8adc:	68be      	ldr	r6, [r7, #8]
    8ade:	42b2      	cmp	r2, r6
    8ae0:	d056      	beq.n	8b90 <_free_r+0xd8>
    8ae2:	4666      	mov	r6, ip
    8ae4:	6053      	str	r3, [r2, #4]
    8ae6:	4206      	tst	r6, r0
    8ae8:	d10a      	bne.n	8b00 <_free_r+0x48>
    8aea:	003e      	movs	r6, r7
    8aec:	6808      	ldr	r0, [r1, #0]
    8aee:	3608      	adds	r6, #8
    8af0:	1a09      	subs	r1, r1, r0
    8af2:	182d      	adds	r5, r5, r0
    8af4:	6888      	ldr	r0, [r1, #8]
    8af6:	42b0      	cmp	r0, r6
    8af8:	d065      	beq.n	8bc6 <_free_r+0x10e>
    8afa:	68ce      	ldr	r6, [r1, #12]
    8afc:	60c6      	str	r6, [r0, #12]
    8afe:	60b0      	str	r0, [r6, #8]
    8b00:	2001      	movs	r0, #1
    8b02:	18d6      	adds	r6, r2, r3
    8b04:	6876      	ldr	r6, [r6, #4]
    8b06:	4206      	tst	r6, r0
    8b08:	d033      	beq.n	8b72 <_free_r+0xba>
    8b0a:	4b55      	ldr	r3, [pc, #340]	; (8c60 <_free_r+0x1a8>)
    8b0c:	4328      	orrs	r0, r5
    8b0e:	6048      	str	r0, [r1, #4]
    8b10:	514d      	str	r5, [r1, r5]
    8b12:	429d      	cmp	r5, r3
    8b14:	d812      	bhi.n	8b3c <_free_r+0x84>
    8b16:	08ed      	lsrs	r5, r5, #3
    8b18:	3bff      	subs	r3, #255	; 0xff
    8b1a:	10aa      	asrs	r2, r5, #2
    8b1c:	3bff      	subs	r3, #255	; 0xff
    8b1e:	4093      	lsls	r3, r2
    8b20:	687a      	ldr	r2, [r7, #4]
    8b22:	00ed      	lsls	r5, r5, #3
    8b24:	4313      	orrs	r3, r2
    8b26:	607b      	str	r3, [r7, #4]
    8b28:	19ef      	adds	r7, r5, r7
    8b2a:	68bb      	ldr	r3, [r7, #8]
    8b2c:	60cf      	str	r7, [r1, #12]
    8b2e:	608b      	str	r3, [r1, #8]
    8b30:	60b9      	str	r1, [r7, #8]
    8b32:	60d9      	str	r1, [r3, #12]
    8b34:	0020      	movs	r0, r4
    8b36:	f000 fbab 	bl	9290 <__malloc_unlock>
    8b3a:	bdf8      	pop	{r3, r4, r5, r6, r7, pc}
    8b3c:	0a68      	lsrs	r0, r5, #9
    8b3e:	2804      	cmp	r0, #4
    8b40:	d850      	bhi.n	8be4 <_free_r+0x12c>
    8b42:	09a8      	lsrs	r0, r5, #6
    8b44:	0002      	movs	r2, r0
    8b46:	3039      	adds	r0, #57	; 0x39
    8b48:	3238      	adds	r2, #56	; 0x38
    8b4a:	00c0      	lsls	r0, r0, #3
    8b4c:	1838      	adds	r0, r7, r0
    8b4e:	3808      	subs	r0, #8
    8b50:	6883      	ldr	r3, [r0, #8]
    8b52:	2603      	movs	r6, #3
    8b54:	4298      	cmp	r0, r3
    8b56:	d04c      	beq.n	8bf2 <_free_r+0x13a>
    8b58:	685a      	ldr	r2, [r3, #4]
    8b5a:	43b2      	bics	r2, r6
    8b5c:	4295      	cmp	r5, r2
    8b5e:	d230      	bcs.n	8bc2 <_free_r+0x10a>
    8b60:	689b      	ldr	r3, [r3, #8]
    8b62:	4298      	cmp	r0, r3
    8b64:	d1f8      	bne.n	8b58 <_free_r+0xa0>
    8b66:	68c3      	ldr	r3, [r0, #12]
    8b68:	60cb      	str	r3, [r1, #12]
    8b6a:	6088      	str	r0, [r1, #8]
    8b6c:	6099      	str	r1, [r3, #8]
    8b6e:	60c1      	str	r1, [r0, #12]
    8b70:	e7e0      	b.n	8b34 <_free_r+0x7c>
    8b72:	18ed      	adds	r5, r5, r3
    8b74:	4e3b      	ldr	r6, [pc, #236]	; (8c64 <_free_r+0x1ac>)
    8b76:	6893      	ldr	r3, [r2, #8]
    8b78:	42b3      	cmp	r3, r6
    8b7a:	d042      	beq.n	8c02 <_free_r+0x14a>
    8b7c:	68d2      	ldr	r2, [r2, #12]
    8b7e:	4328      	orrs	r0, r5
    8b80:	60da      	str	r2, [r3, #12]
    8b82:	6093      	str	r3, [r2, #8]
    8b84:	4b36      	ldr	r3, [pc, #216]	; (8c60 <_free_r+0x1a8>)
    8b86:	6048      	str	r0, [r1, #4]
    8b88:	514d      	str	r5, [r1, r5]
    8b8a:	429d      	cmp	r5, r3
    8b8c:	d8d6      	bhi.n	8b3c <_free_r+0x84>
    8b8e:	e7c2      	b.n	8b16 <_free_r+0x5e>
    8b90:	4662      	mov	r2, ip
    8b92:	18eb      	adds	r3, r5, r3
    8b94:	4202      	tst	r2, r0
    8b96:	d106      	bne.n	8ba6 <_free_r+0xee>
    8b98:	680a      	ldr	r2, [r1, #0]
    8b9a:	1a89      	subs	r1, r1, r2
    8b9c:	6888      	ldr	r0, [r1, #8]
    8b9e:	189b      	adds	r3, r3, r2
    8ba0:	68ca      	ldr	r2, [r1, #12]
    8ba2:	60c2      	str	r2, [r0, #12]
    8ba4:	6090      	str	r0, [r2, #8]
    8ba6:	2201      	movs	r2, #1
    8ba8:	431a      	orrs	r2, r3
    8baa:	604a      	str	r2, [r1, #4]
    8bac:	4a2e      	ldr	r2, [pc, #184]	; (8c68 <_free_r+0x1b0>)
    8bae:	60b9      	str	r1, [r7, #8]
    8bb0:	6812      	ldr	r2, [r2, #0]
    8bb2:	4293      	cmp	r3, r2
    8bb4:	d3be      	bcc.n	8b34 <_free_r+0x7c>
    8bb6:	4b2d      	ldr	r3, [pc, #180]	; (8c6c <_free_r+0x1b4>)
    8bb8:	0020      	movs	r0, r4
    8bba:	6819      	ldr	r1, [r3, #0]
    8bbc:	f7ff ff2c 	bl	8a18 <_malloc_trim_r>
    8bc0:	e7b8      	b.n	8b34 <_free_r+0x7c>
    8bc2:	0018      	movs	r0, r3
    8bc4:	e7cf      	b.n	8b66 <_free_r+0xae>
    8bc6:	4666      	mov	r6, ip
    8bc8:	18d0      	adds	r0, r2, r3
    8bca:	6840      	ldr	r0, [r0, #4]
    8bcc:	4230      	tst	r0, r6
    8bce:	d13f      	bne.n	8c50 <_free_r+0x198>
    8bd0:	6890      	ldr	r0, [r2, #8]
    8bd2:	195d      	adds	r5, r3, r5
    8bd4:	68d3      	ldr	r3, [r2, #12]
    8bd6:	60c3      	str	r3, [r0, #12]
    8bd8:	6098      	str	r0, [r3, #8]
    8bda:	4663      	mov	r3, ip
    8bdc:	432b      	orrs	r3, r5
    8bde:	604b      	str	r3, [r1, #4]
    8be0:	514d      	str	r5, [r1, r5]
    8be2:	e7a7      	b.n	8b34 <_free_r+0x7c>
    8be4:	2814      	cmp	r0, #20
    8be6:	d814      	bhi.n	8c12 <_free_r+0x15a>
    8be8:	0002      	movs	r2, r0
    8bea:	305c      	adds	r0, #92	; 0x5c
    8bec:	325b      	adds	r2, #91	; 0x5b
    8bee:	00c0      	lsls	r0, r0, #3
    8bf0:	e7ac      	b.n	8b4c <_free_r+0x94>
    8bf2:	2301      	movs	r3, #1
    8bf4:	1092      	asrs	r2, r2, #2
    8bf6:	4093      	lsls	r3, r2
    8bf8:	687a      	ldr	r2, [r7, #4]
    8bfa:	4313      	orrs	r3, r2
    8bfc:	607b      	str	r3, [r7, #4]
    8bfe:	0003      	movs	r3, r0
    8c00:	e7b2      	b.n	8b68 <_free_r+0xb0>
    8c02:	4328      	orrs	r0, r5
    8c04:	60d9      	str	r1, [r3, #12]
    8c06:	6099      	str	r1, [r3, #8]
    8c08:	60cb      	str	r3, [r1, #12]
    8c0a:	608b      	str	r3, [r1, #8]
    8c0c:	6048      	str	r0, [r1, #4]
    8c0e:	514d      	str	r5, [r1, r5]
    8c10:	e790      	b.n	8b34 <_free_r+0x7c>
    8c12:	2854      	cmp	r0, #84	; 0x54
    8c14:	d805      	bhi.n	8c22 <_free_r+0x16a>
    8c16:	0b28      	lsrs	r0, r5, #12
    8c18:	0002      	movs	r2, r0
    8c1a:	306f      	adds	r0, #111	; 0x6f
    8c1c:	326e      	adds	r2, #110	; 0x6e
    8c1e:	00c0      	lsls	r0, r0, #3
    8c20:	e794      	b.n	8b4c <_free_r+0x94>
    8c22:	22aa      	movs	r2, #170	; 0xaa
    8c24:	0052      	lsls	r2, r2, #1
    8c26:	4290      	cmp	r0, r2
    8c28:	d805      	bhi.n	8c36 <_free_r+0x17e>
    8c2a:	0be8      	lsrs	r0, r5, #15
    8c2c:	0002      	movs	r2, r0
    8c2e:	3078      	adds	r0, #120	; 0x78
    8c30:	3277      	adds	r2, #119	; 0x77
    8c32:	00c0      	lsls	r0, r0, #3
    8c34:	e78a      	b.n	8b4c <_free_r+0x94>
    8c36:	4a0e      	ldr	r2, [pc, #56]	; (8c70 <_free_r+0x1b8>)
    8c38:	4290      	cmp	r0, r2
    8c3a:	d805      	bhi.n	8c48 <_free_r+0x190>
    8c3c:	0ca8      	lsrs	r0, r5, #18
    8c3e:	0002      	movs	r2, r0
    8c40:	307d      	adds	r0, #125	; 0x7d
    8c42:	327c      	adds	r2, #124	; 0x7c
    8c44:	00c0      	lsls	r0, r0, #3
    8c46:	e781      	b.n	8b4c <_free_r+0x94>
    8c48:	20fe      	movs	r0, #254	; 0xfe
    8c4a:	227e      	movs	r2, #126	; 0x7e
    8c4c:	0080      	lsls	r0, r0, #2
    8c4e:	e77d      	b.n	8b4c <_free_r+0x94>
    8c50:	4663      	mov	r3, ip
    8c52:	432b      	orrs	r3, r5
    8c54:	604b      	str	r3, [r1, #4]
    8c56:	6015      	str	r5, [r2, #0]
    8c58:	e76c      	b.n	8b34 <_free_r+0x7c>
    8c5a:	46c0      	nop			; (mov r8, r8)
    8c5c:	2000044c 	.word	0x2000044c
    8c60:	000001ff 	.word	0x000001ff
    8c64:	20000454 	.word	0x20000454
    8c68:	20000858 	.word	0x20000858
    8c6c:	20000e3c 	.word	0x20000e3c
    8c70:	00000554 	.word	0x00000554

00008c74 <_localeconv_r>:
    8c74:	4b04      	ldr	r3, [pc, #16]	; (8c88 <_localeconv_r+0x14>)
    8c76:	681b      	ldr	r3, [r3, #0]
    8c78:	6b58      	ldr	r0, [r3, #52]	; 0x34
    8c7a:	2800      	cmp	r0, #0
    8c7c:	d001      	beq.n	8c82 <_localeconv_r+0xe>
    8c7e:	30f0      	adds	r0, #240	; 0xf0
    8c80:	4770      	bx	lr
    8c82:	4802      	ldr	r0, [pc, #8]	; (8c8c <_localeconv_r+0x18>)
    8c84:	e7fb      	b.n	8c7e <_localeconv_r+0xa>
    8c86:	46c0      	nop			; (mov r8, r8)
    8c88:	2000001c 	.word	0x2000001c
    8c8c:	2000085c 	.word	0x2000085c

00008c90 <__retarget_lock_acquire_recursive>:
    8c90:	4770      	bx	lr
    8c92:	46c0      	nop			; (mov r8, r8)

00008c94 <__retarget_lock_release_recursive>:
    8c94:	4770      	bx	lr
    8c96:	46c0      	nop			; (mov r8, r8)

00008c98 <_malloc_r>:
    8c98:	b5f0      	push	{r4, r5, r6, r7, lr}
    8c9a:	4657      	mov	r7, sl
    8c9c:	4645      	mov	r5, r8
    8c9e:	46de      	mov	lr, fp
    8ca0:	464e      	mov	r6, r9
    8ca2:	b5e0      	push	{r5, r6, r7, lr}
    8ca4:	000d      	movs	r5, r1
    8ca6:	350b      	adds	r5, #11
    8ca8:	b083      	sub	sp, #12
    8caa:	0007      	movs	r7, r0
    8cac:	2d16      	cmp	r5, #22
    8cae:	d800      	bhi.n	8cb2 <_malloc_r+0x1a>
    8cb0:	e09f      	b.n	8df2 <_malloc_r+0x15a>
    8cb2:	2307      	movs	r3, #7
    8cb4:	439d      	bics	r5, r3
    8cb6:	d500      	bpl.n	8cba <_malloc_r+0x22>
    8cb8:	e0c4      	b.n	8e44 <_malloc_r+0x1ac>
    8cba:	42a9      	cmp	r1, r5
    8cbc:	d900      	bls.n	8cc0 <_malloc_r+0x28>
    8cbe:	e0c1      	b.n	8e44 <_malloc_r+0x1ac>
    8cc0:	f000 fade 	bl	9280 <__malloc_lock>
    8cc4:	23f8      	movs	r3, #248	; 0xf8
    8cc6:	33ff      	adds	r3, #255	; 0xff
    8cc8:	429d      	cmp	r5, r3
    8cca:	d800      	bhi.n	8cce <_malloc_r+0x36>
    8ccc:	e28f      	b.n	91ee <_malloc_r+0x556>
    8cce:	0a68      	lsrs	r0, r5, #9
    8cd0:	d100      	bne.n	8cd4 <_malloc_r+0x3c>
    8cd2:	e0bb      	b.n	8e4c <_malloc_r+0x1b4>
    8cd4:	2804      	cmp	r0, #4
    8cd6:	d900      	bls.n	8cda <_malloc_r+0x42>
    8cd8:	e162      	b.n	8fa0 <_malloc_r+0x308>
    8cda:	2338      	movs	r3, #56	; 0x38
    8cdc:	4698      	mov	r8, r3
    8cde:	09a8      	lsrs	r0, r5, #6
    8ce0:	4480      	add	r8, r0
    8ce2:	3039      	adds	r0, #57	; 0x39
    8ce4:	00c1      	lsls	r1, r0, #3
    8ce6:	4ed2      	ldr	r6, [pc, #840]	; (9030 <_malloc_r+0x398>)
    8ce8:	1871      	adds	r1, r6, r1
    8cea:	3908      	subs	r1, #8
    8cec:	68cc      	ldr	r4, [r1, #12]
    8cee:	42a1      	cmp	r1, r4
    8cf0:	d019      	beq.n	8d26 <_malloc_r+0x8e>
    8cf2:	2303      	movs	r3, #3
    8cf4:	6862      	ldr	r2, [r4, #4]
    8cf6:	439a      	bics	r2, r3
    8cf8:	0013      	movs	r3, r2
    8cfa:	1b52      	subs	r2, r2, r5
    8cfc:	2a0f      	cmp	r2, #15
    8cfe:	dd00      	ble.n	8d02 <_malloc_r+0x6a>
    8d00:	e0aa      	b.n	8e58 <_malloc_r+0x1c0>
    8d02:	2a00      	cmp	r2, #0
    8d04:	db00      	blt.n	8d08 <_malloc_r+0x70>
    8d06:	e088      	b.n	8e1a <_malloc_r+0x182>
    8d08:	2303      	movs	r3, #3
    8d0a:	469c      	mov	ip, r3
    8d0c:	e008      	b.n	8d20 <_malloc_r+0x88>
    8d0e:	4662      	mov	r2, ip
    8d10:	6863      	ldr	r3, [r4, #4]
    8d12:	4393      	bics	r3, r2
    8d14:	1b5a      	subs	r2, r3, r5
    8d16:	2a0f      	cmp	r2, #15
    8d18:	dd00      	ble.n	8d1c <_malloc_r+0x84>
    8d1a:	e09d      	b.n	8e58 <_malloc_r+0x1c0>
    8d1c:	2a00      	cmp	r2, #0
    8d1e:	da7c      	bge.n	8e1a <_malloc_r+0x182>
    8d20:	68e4      	ldr	r4, [r4, #12]
    8d22:	42a1      	cmp	r1, r4
    8d24:	d1f3      	bne.n	8d0e <_malloc_r+0x76>
    8d26:	0032      	movs	r2, r6
    8d28:	6934      	ldr	r4, [r6, #16]
    8d2a:	3208      	adds	r2, #8
    8d2c:	4294      	cmp	r4, r2
    8d2e:	d100      	bne.n	8d32 <_malloc_r+0x9a>
    8d30:	e190      	b.n	9054 <_malloc_r+0x3bc>
    8d32:	2303      	movs	r3, #3
    8d34:	6861      	ldr	r1, [r4, #4]
    8d36:	4399      	bics	r1, r3
    8d38:	4689      	mov	r9, r1
    8d3a:	1b49      	subs	r1, r1, r5
    8d3c:	290f      	cmp	r1, #15
    8d3e:	dd00      	ble.n	8d42 <_malloc_r+0xaa>
    8d40:	e162      	b.n	9008 <_malloc_r+0x370>
    8d42:	6172      	str	r2, [r6, #20]
    8d44:	6132      	str	r2, [r6, #16]
    8d46:	2900      	cmp	r1, #0
    8d48:	db00      	blt.n	8d4c <_malloc_r+0xb4>
    8d4a:	e087      	b.n	8e5c <_malloc_r+0x1c4>
    8d4c:	4ab9      	ldr	r2, [pc, #740]	; (9034 <_malloc_r+0x39c>)
    8d4e:	464b      	mov	r3, r9
    8d50:	4591      	cmp	r9, r2
    8d52:	d900      	bls.n	8d56 <_malloc_r+0xbe>
    8d54:	e130      	b.n	8fb8 <_malloc_r+0x320>
    8d56:	08db      	lsrs	r3, r3, #3
    8d58:	3aff      	subs	r2, #255	; 0xff
    8d5a:	1099      	asrs	r1, r3, #2
    8d5c:	3aff      	subs	r2, #255	; 0xff
    8d5e:	408a      	lsls	r2, r1
    8d60:	00db      	lsls	r3, r3, #3
    8d62:	6871      	ldr	r1, [r6, #4]
    8d64:	199b      	adds	r3, r3, r6
    8d66:	430a      	orrs	r2, r1
    8d68:	6899      	ldr	r1, [r3, #8]
    8d6a:	6072      	str	r2, [r6, #4]
    8d6c:	60e3      	str	r3, [r4, #12]
    8d6e:	60a1      	str	r1, [r4, #8]
    8d70:	609c      	str	r4, [r3, #8]
    8d72:	0013      	movs	r3, r2
    8d74:	60cc      	str	r4, [r1, #12]
    8d76:	2101      	movs	r1, #1
    8d78:	1082      	asrs	r2, r0, #2
    8d7a:	4091      	lsls	r1, r2
    8d7c:	4299      	cmp	r1, r3
    8d7e:	d86f      	bhi.n	8e60 <_malloc_r+0x1c8>
    8d80:	420b      	tst	r3, r1
    8d82:	d105      	bne.n	8d90 <_malloc_r+0xf8>
    8d84:	2203      	movs	r2, #3
    8d86:	4390      	bics	r0, r2
    8d88:	0049      	lsls	r1, r1, #1
    8d8a:	3004      	adds	r0, #4
    8d8c:	420b      	tst	r3, r1
    8d8e:	d0fb      	beq.n	8d88 <_malloc_r+0xf0>
    8d90:	2303      	movs	r3, #3
    8d92:	4698      	mov	r8, r3
    8d94:	00c3      	lsls	r3, r0, #3
    8d96:	4699      	mov	r9, r3
    8d98:	44b1      	add	r9, r6
    8d9a:	46cc      	mov	ip, r9
    8d9c:	4682      	mov	sl, r0
    8d9e:	4663      	mov	r3, ip
    8da0:	68dc      	ldr	r4, [r3, #12]
    8da2:	45a4      	cmp	ip, r4
    8da4:	d107      	bne.n	8db6 <_malloc_r+0x11e>
    8da6:	e157      	b.n	9058 <_malloc_r+0x3c0>
    8da8:	2a00      	cmp	r2, #0
    8daa:	db00      	blt.n	8dae <_malloc_r+0x116>
    8dac:	e166      	b.n	907c <_malloc_r+0x3e4>
    8dae:	68e4      	ldr	r4, [r4, #12]
    8db0:	45a4      	cmp	ip, r4
    8db2:	d100      	bne.n	8db6 <_malloc_r+0x11e>
    8db4:	e150      	b.n	9058 <_malloc_r+0x3c0>
    8db6:	4642      	mov	r2, r8
    8db8:	6863      	ldr	r3, [r4, #4]
    8dba:	4393      	bics	r3, r2
    8dbc:	1b5a      	subs	r2, r3, r5
    8dbe:	2a0f      	cmp	r2, #15
    8dc0:	ddf2      	ble.n	8da8 <_malloc_r+0x110>
    8dc2:	2001      	movs	r0, #1
    8dc4:	4680      	mov	r8, r0
    8dc6:	1961      	adds	r1, r4, r5
    8dc8:	4305      	orrs	r5, r0
    8dca:	6065      	str	r5, [r4, #4]
    8dcc:	68a0      	ldr	r0, [r4, #8]
    8dce:	68e5      	ldr	r5, [r4, #12]
    8dd0:	3608      	adds	r6, #8
    8dd2:	60c5      	str	r5, [r0, #12]
    8dd4:	60a8      	str	r0, [r5, #8]
    8dd6:	4640      	mov	r0, r8
    8dd8:	60f1      	str	r1, [r6, #12]
    8dda:	60b1      	str	r1, [r6, #8]
    8ddc:	4310      	orrs	r0, r2
    8dde:	6048      	str	r0, [r1, #4]
    8de0:	60ce      	str	r6, [r1, #12]
    8de2:	608e      	str	r6, [r1, #8]
    8de4:	0038      	movs	r0, r7
    8de6:	50e2      	str	r2, [r4, r3]
    8de8:	f000 fa52 	bl	9290 <__malloc_unlock>
    8dec:	0020      	movs	r0, r4
    8dee:	3008      	adds	r0, #8
    8df0:	e021      	b.n	8e36 <_malloc_r+0x19e>
    8df2:	2910      	cmp	r1, #16
    8df4:	d826      	bhi.n	8e44 <_malloc_r+0x1ac>
    8df6:	0038      	movs	r0, r7
    8df8:	f000 fa42 	bl	9280 <__malloc_lock>
    8dfc:	2510      	movs	r5, #16
    8dfe:	2318      	movs	r3, #24
    8e00:	2002      	movs	r0, #2
    8e02:	4e8b      	ldr	r6, [pc, #556]	; (9030 <_malloc_r+0x398>)
    8e04:	18f3      	adds	r3, r6, r3
    8e06:	001a      	movs	r2, r3
    8e08:	685c      	ldr	r4, [r3, #4]
    8e0a:	3a08      	subs	r2, #8
    8e0c:	4294      	cmp	r4, r2
    8e0e:	d100      	bne.n	8e12 <_malloc_r+0x17a>
    8e10:	e12e      	b.n	9070 <_malloc_r+0x3d8>
    8e12:	2303      	movs	r3, #3
    8e14:	6862      	ldr	r2, [r4, #4]
    8e16:	439a      	bics	r2, r3
    8e18:	0013      	movs	r3, r2
    8e1a:	68e2      	ldr	r2, [r4, #12]
    8e1c:	68a1      	ldr	r1, [r4, #8]
    8e1e:	60ca      	str	r2, [r1, #12]
    8e20:	6091      	str	r1, [r2, #8]
    8e22:	2201      	movs	r2, #1
    8e24:	18e3      	adds	r3, r4, r3
    8e26:	6859      	ldr	r1, [r3, #4]
    8e28:	0038      	movs	r0, r7
    8e2a:	430a      	orrs	r2, r1
    8e2c:	605a      	str	r2, [r3, #4]
    8e2e:	f000 fa2f 	bl	9290 <__malloc_unlock>
    8e32:	0020      	movs	r0, r4
    8e34:	3008      	adds	r0, #8
    8e36:	b003      	add	sp, #12
    8e38:	bc3c      	pop	{r2, r3, r4, r5}
    8e3a:	4690      	mov	r8, r2
    8e3c:	4699      	mov	r9, r3
    8e3e:	46a2      	mov	sl, r4
    8e40:	46ab      	mov	fp, r5
    8e42:	bdf0      	pop	{r4, r5, r6, r7, pc}
    8e44:	230c      	movs	r3, #12
    8e46:	2000      	movs	r0, #0
    8e48:	603b      	str	r3, [r7, #0]
    8e4a:	e7f4      	b.n	8e36 <_malloc_r+0x19e>
    8e4c:	2180      	movs	r1, #128	; 0x80
    8e4e:	233f      	movs	r3, #63	; 0x3f
    8e50:	2040      	movs	r0, #64	; 0x40
    8e52:	0089      	lsls	r1, r1, #2
    8e54:	4698      	mov	r8, r3
    8e56:	e746      	b.n	8ce6 <_malloc_r+0x4e>
    8e58:	4640      	mov	r0, r8
    8e5a:	e764      	b.n	8d26 <_malloc_r+0x8e>
    8e5c:	464b      	mov	r3, r9
    8e5e:	e7e0      	b.n	8e22 <_malloc_r+0x18a>
    8e60:	2303      	movs	r3, #3
    8e62:	68b4      	ldr	r4, [r6, #8]
    8e64:	6862      	ldr	r2, [r4, #4]
    8e66:	439a      	bics	r2, r3
    8e68:	4690      	mov	r8, r2
    8e6a:	42aa      	cmp	r2, r5
    8e6c:	d303      	bcc.n	8e76 <_malloc_r+0x1de>
    8e6e:	1b53      	subs	r3, r2, r5
    8e70:	2b0f      	cmp	r3, #15
    8e72:	dd00      	ble.n	8e76 <_malloc_r+0x1de>
    8e74:	e086      	b.n	8f84 <_malloc_r+0x2ec>
    8e76:	0023      	movs	r3, r4
    8e78:	4443      	add	r3, r8
    8e7a:	4a6f      	ldr	r2, [pc, #444]	; (9038 <_malloc_r+0x3a0>)
    8e7c:	9301      	str	r3, [sp, #4]
    8e7e:	4b6f      	ldr	r3, [pc, #444]	; (903c <_malloc_r+0x3a4>)
    8e80:	4693      	mov	fp, r2
    8e82:	681b      	ldr	r3, [r3, #0]
    8e84:	6812      	ldr	r2, [r2, #0]
    8e86:	18eb      	adds	r3, r5, r3
    8e88:	3201      	adds	r2, #1
    8e8a:	d100      	bne.n	8e8e <_malloc_r+0x1f6>
    8e8c:	e168      	b.n	9160 <_malloc_r+0x4c8>
    8e8e:	4a6c      	ldr	r2, [pc, #432]	; (9040 <_malloc_r+0x3a8>)
    8e90:	4694      	mov	ip, r2
    8e92:	4463      	add	r3, ip
    8e94:	0b1b      	lsrs	r3, r3, #12
    8e96:	031b      	lsls	r3, r3, #12
    8e98:	9300      	str	r3, [sp, #0]
    8e9a:	9900      	ldr	r1, [sp, #0]
    8e9c:	0038      	movs	r0, r7
    8e9e:	f000 fd47 	bl	9930 <_sbrk_r>
    8ea2:	0003      	movs	r3, r0
    8ea4:	4681      	mov	r9, r0
    8ea6:	3301      	adds	r3, #1
    8ea8:	d061      	beq.n	8f6e <_malloc_r+0x2d6>
    8eaa:	9b01      	ldr	r3, [sp, #4]
    8eac:	4283      	cmp	r3, r0
    8eae:	d900      	bls.n	8eb2 <_malloc_r+0x21a>
    8eb0:	e0ff      	b.n	90b2 <_malloc_r+0x41a>
    8eb2:	4b64      	ldr	r3, [pc, #400]	; (9044 <_malloc_r+0x3ac>)
    8eb4:	9a00      	ldr	r2, [sp, #0]
    8eb6:	469a      	mov	sl, r3
    8eb8:	681b      	ldr	r3, [r3, #0]
    8eba:	469c      	mov	ip, r3
    8ebc:	4653      	mov	r3, sl
    8ebe:	4462      	add	r2, ip
    8ec0:	601a      	str	r2, [r3, #0]
    8ec2:	9b01      	ldr	r3, [sp, #4]
    8ec4:	0011      	movs	r1, r2
    8ec6:	4283      	cmp	r3, r0
    8ec8:	d100      	bne.n	8ecc <_malloc_r+0x234>
    8eca:	e155      	b.n	9178 <_malloc_r+0x4e0>
    8ecc:	465b      	mov	r3, fp
    8ece:	681b      	ldr	r3, [r3, #0]
    8ed0:	3301      	adds	r3, #1
    8ed2:	d100      	bne.n	8ed6 <_malloc_r+0x23e>
    8ed4:	e16c      	b.n	91b0 <_malloc_r+0x518>
    8ed6:	464b      	mov	r3, r9
    8ed8:	9a01      	ldr	r2, [sp, #4]
    8eda:	1a9b      	subs	r3, r3, r2
    8edc:	1859      	adds	r1, r3, r1
    8ede:	4653      	mov	r3, sl
    8ee0:	6019      	str	r1, [r3, #0]
    8ee2:	2307      	movs	r3, #7
    8ee4:	464a      	mov	r2, r9
    8ee6:	4013      	ands	r3, r2
    8ee8:	d100      	bne.n	8eec <_malloc_r+0x254>
    8eea:	e124      	b.n	9136 <_malloc_r+0x49e>
    8eec:	2108      	movs	r1, #8
    8eee:	4689      	mov	r9, r1
    8ef0:	4955      	ldr	r1, [pc, #340]	; (9048 <_malloc_r+0x3b0>)
    8ef2:	1ad2      	subs	r2, r2, r3
    8ef4:	4491      	add	r9, r2
    8ef6:	1acb      	subs	r3, r1, r3
    8ef8:	9a00      	ldr	r2, [sp, #0]
    8efa:	0038      	movs	r0, r7
    8efc:	444a      	add	r2, r9
    8efe:	0511      	lsls	r1, r2, #20
    8f00:	0d09      	lsrs	r1, r1, #20
    8f02:	1a5b      	subs	r3, r3, r1
    8f04:	0019      	movs	r1, r3
    8f06:	469b      	mov	fp, r3
    8f08:	f000 fd12 	bl	9930 <_sbrk_r>
    8f0c:	1c43      	adds	r3, r0, #1
    8f0e:	d100      	bne.n	8f12 <_malloc_r+0x27a>
    8f10:	e142      	b.n	9198 <_malloc_r+0x500>
    8f12:	464b      	mov	r3, r9
    8f14:	1ac0      	subs	r0, r0, r3
    8f16:	2301      	movs	r3, #1
    8f18:	4458      	add	r0, fp
    8f1a:	4318      	orrs	r0, r3
    8f1c:	4653      	mov	r3, sl
    8f1e:	681b      	ldr	r3, [r3, #0]
    8f20:	445b      	add	r3, fp
    8f22:	0019      	movs	r1, r3
    8f24:	4653      	mov	r3, sl
    8f26:	6019      	str	r1, [r3, #0]
    8f28:	464b      	mov	r3, r9
    8f2a:	60b3      	str	r3, [r6, #8]
    8f2c:	6058      	str	r0, [r3, #4]
    8f2e:	42b4      	cmp	r4, r6
    8f30:	d013      	beq.n	8f5a <_malloc_r+0x2c2>
    8f32:	4643      	mov	r3, r8
    8f34:	2b0f      	cmp	r3, #15
    8f36:	d800      	bhi.n	8f3a <_malloc_r+0x2a2>
    8f38:	e0e8      	b.n	910c <_malloc_r+0x474>
    8f3a:	4643      	mov	r3, r8
    8f3c:	2207      	movs	r2, #7
    8f3e:	6860      	ldr	r0, [r4, #4]
    8f40:	3b0c      	subs	r3, #12
    8f42:	4393      	bics	r3, r2
    8f44:	3a06      	subs	r2, #6
    8f46:	4002      	ands	r2, r0
    8f48:	2005      	movs	r0, #5
    8f4a:	431a      	orrs	r2, r3
    8f4c:	6062      	str	r2, [r4, #4]
    8f4e:	18e2      	adds	r2, r4, r3
    8f50:	6050      	str	r0, [r2, #4]
    8f52:	6090      	str	r0, [r2, #8]
    8f54:	2b0f      	cmp	r3, #15
    8f56:	d900      	bls.n	8f5a <_malloc_r+0x2c2>
    8f58:	e122      	b.n	91a0 <_malloc_r+0x508>
    8f5a:	4b3c      	ldr	r3, [pc, #240]	; (904c <_malloc_r+0x3b4>)
    8f5c:	681a      	ldr	r2, [r3, #0]
    8f5e:	4291      	cmp	r1, r2
    8f60:	d900      	bls.n	8f64 <_malloc_r+0x2cc>
    8f62:	6019      	str	r1, [r3, #0]
    8f64:	4b3a      	ldr	r3, [pc, #232]	; (9050 <_malloc_r+0x3b8>)
    8f66:	681a      	ldr	r2, [r3, #0]
    8f68:	4291      	cmp	r1, r2
    8f6a:	d900      	bls.n	8f6e <_malloc_r+0x2d6>
    8f6c:	6019      	str	r1, [r3, #0]
    8f6e:	2303      	movs	r3, #3
    8f70:	68b4      	ldr	r4, [r6, #8]
    8f72:	6862      	ldr	r2, [r4, #4]
    8f74:	439a      	bics	r2, r3
    8f76:	1b53      	subs	r3, r2, r5
    8f78:	4295      	cmp	r5, r2
    8f7a:	d900      	bls.n	8f7e <_malloc_r+0x2e6>
    8f7c:	e0c9      	b.n	9112 <_malloc_r+0x47a>
    8f7e:	2b0f      	cmp	r3, #15
    8f80:	dc00      	bgt.n	8f84 <_malloc_r+0x2ec>
    8f82:	e0c6      	b.n	9112 <_malloc_r+0x47a>
    8f84:	2201      	movs	r2, #1
    8f86:	0029      	movs	r1, r5
    8f88:	4313      	orrs	r3, r2
    8f8a:	4311      	orrs	r1, r2
    8f8c:	1965      	adds	r5, r4, r5
    8f8e:	6061      	str	r1, [r4, #4]
    8f90:	0038      	movs	r0, r7
    8f92:	60b5      	str	r5, [r6, #8]
    8f94:	606b      	str	r3, [r5, #4]
    8f96:	f000 f97b 	bl	9290 <__malloc_unlock>
    8f9a:	0020      	movs	r0, r4
    8f9c:	3008      	adds	r0, #8
    8f9e:	e74a      	b.n	8e36 <_malloc_r+0x19e>
    8fa0:	2814      	cmp	r0, #20
    8fa2:	d97a      	bls.n	909a <_malloc_r+0x402>
    8fa4:	2854      	cmp	r0, #84	; 0x54
    8fa6:	d900      	bls.n	8faa <_malloc_r+0x312>
    8fa8:	e0ba      	b.n	9120 <_malloc_r+0x488>
    8faa:	236e      	movs	r3, #110	; 0x6e
    8fac:	4698      	mov	r8, r3
    8fae:	0b28      	lsrs	r0, r5, #12
    8fb0:	4480      	add	r8, r0
    8fb2:	306f      	adds	r0, #111	; 0x6f
    8fb4:	00c1      	lsls	r1, r0, #3
    8fb6:	e696      	b.n	8ce6 <_malloc_r+0x4e>
    8fb8:	0a5a      	lsrs	r2, r3, #9
    8fba:	2a04      	cmp	r2, #4
    8fbc:	d973      	bls.n	90a6 <_malloc_r+0x40e>
    8fbe:	2a14      	cmp	r2, #20
    8fc0:	d900      	bls.n	8fc4 <_malloc_r+0x32c>
    8fc2:	e0d0      	b.n	9166 <_malloc_r+0x4ce>
    8fc4:	0011      	movs	r1, r2
    8fc6:	325c      	adds	r2, #92	; 0x5c
    8fc8:	315b      	adds	r1, #91	; 0x5b
    8fca:	00d2      	lsls	r2, r2, #3
    8fcc:	2308      	movs	r3, #8
    8fce:	425b      	negs	r3, r3
    8fd0:	469c      	mov	ip, r3
    8fd2:	18b2      	adds	r2, r6, r2
    8fd4:	4494      	add	ip, r2
    8fd6:	4663      	mov	r3, ip
    8fd8:	689a      	ldr	r2, [r3, #8]
    8fda:	2303      	movs	r3, #3
    8fdc:	4698      	mov	r8, r3
    8fde:	4594      	cmp	ip, r2
    8fe0:	d100      	bne.n	8fe4 <_malloc_r+0x34c>
    8fe2:	e0ab      	b.n	913c <_malloc_r+0x4a4>
    8fe4:	4643      	mov	r3, r8
    8fe6:	6851      	ldr	r1, [r2, #4]
    8fe8:	4399      	bics	r1, r3
    8fea:	4589      	cmp	r9, r1
    8fec:	d300      	bcc.n	8ff0 <_malloc_r+0x358>
    8fee:	e095      	b.n	911c <_malloc_r+0x484>
    8ff0:	6892      	ldr	r2, [r2, #8]
    8ff2:	4594      	cmp	ip, r2
    8ff4:	d1f6      	bne.n	8fe4 <_malloc_r+0x34c>
    8ff6:	4663      	mov	r3, ip
    8ff8:	68da      	ldr	r2, [r3, #12]
    8ffa:	6873      	ldr	r3, [r6, #4]
    8ffc:	4661      	mov	r1, ip
    8ffe:	60e2      	str	r2, [r4, #12]
    9000:	60a1      	str	r1, [r4, #8]
    9002:	6094      	str	r4, [r2, #8]
    9004:	60cc      	str	r4, [r1, #12]
    9006:	e6b6      	b.n	8d76 <_malloc_r+0xde>
    9008:	2301      	movs	r3, #1
    900a:	1960      	adds	r0, r4, r5
    900c:	431d      	orrs	r5, r3
    900e:	6065      	str	r5, [r4, #4]
    9010:	6170      	str	r0, [r6, #20]
    9012:	6130      	str	r0, [r6, #16]
    9014:	60c2      	str	r2, [r0, #12]
    9016:	6082      	str	r2, [r0, #8]
    9018:	001a      	movs	r2, r3
    901a:	464b      	mov	r3, r9
    901c:	430a      	orrs	r2, r1
    901e:	6042      	str	r2, [r0, #4]
    9020:	0038      	movs	r0, r7
    9022:	50e1      	str	r1, [r4, r3]
    9024:	f000 f934 	bl	9290 <__malloc_unlock>
    9028:	0020      	movs	r0, r4
    902a:	3008      	adds	r0, #8
    902c:	e703      	b.n	8e36 <_malloc_r+0x19e>
    902e:	46c0      	nop			; (mov r8, r8)
    9030:	2000044c 	.word	0x2000044c
    9034:	000001ff 	.word	0x000001ff
    9038:	20000854 	.word	0x20000854
    903c:	20000e3c 	.word	0x20000e3c
    9040:	0000100f 	.word	0x0000100f
    9044:	20000e0c 	.word	0x20000e0c
    9048:	00001008 	.word	0x00001008
    904c:	20000e34 	.word	0x20000e34
    9050:	20000e38 	.word	0x20000e38
    9054:	6873      	ldr	r3, [r6, #4]
    9056:	e68e      	b.n	8d76 <_malloc_r+0xde>
    9058:	2308      	movs	r3, #8
    905a:	469b      	mov	fp, r3
    905c:	3b07      	subs	r3, #7
    905e:	44dc      	add	ip, fp
    9060:	469b      	mov	fp, r3
    9062:	44da      	add	sl, fp
    9064:	4643      	mov	r3, r8
    9066:	4652      	mov	r2, sl
    9068:	4213      	tst	r3, r2
    906a:	d000      	beq.n	906e <_malloc_r+0x3d6>
    906c:	e697      	b.n	8d9e <_malloc_r+0x106>
    906e:	e037      	b.n	90e0 <_malloc_r+0x448>
    9070:	68dc      	ldr	r4, [r3, #12]
    9072:	3002      	adds	r0, #2
    9074:	42a3      	cmp	r3, r4
    9076:	d100      	bne.n	907a <_malloc_r+0x3e2>
    9078:	e655      	b.n	8d26 <_malloc_r+0x8e>
    907a:	e6ca      	b.n	8e12 <_malloc_r+0x17a>
    907c:	2201      	movs	r2, #1
    907e:	18e3      	adds	r3, r4, r3
    9080:	6859      	ldr	r1, [r3, #4]
    9082:	0038      	movs	r0, r7
    9084:	430a      	orrs	r2, r1
    9086:	605a      	str	r2, [r3, #4]
    9088:	68e3      	ldr	r3, [r4, #12]
    908a:	68a2      	ldr	r2, [r4, #8]
    908c:	60d3      	str	r3, [r2, #12]
    908e:	609a      	str	r2, [r3, #8]
    9090:	f000 f8fe 	bl	9290 <__malloc_unlock>
    9094:	0020      	movs	r0, r4
    9096:	3008      	adds	r0, #8
    9098:	e6cd      	b.n	8e36 <_malloc_r+0x19e>
    909a:	235b      	movs	r3, #91	; 0x5b
    909c:	4698      	mov	r8, r3
    909e:	4480      	add	r8, r0
    90a0:	305c      	adds	r0, #92	; 0x5c
    90a2:	00c1      	lsls	r1, r0, #3
    90a4:	e61f      	b.n	8ce6 <_malloc_r+0x4e>
    90a6:	099a      	lsrs	r2, r3, #6
    90a8:	0011      	movs	r1, r2
    90aa:	3239      	adds	r2, #57	; 0x39
    90ac:	3138      	adds	r1, #56	; 0x38
    90ae:	00d2      	lsls	r2, r2, #3
    90b0:	e78c      	b.n	8fcc <_malloc_r+0x334>
    90b2:	42b4      	cmp	r4, r6
    90b4:	d000      	beq.n	90b8 <_malloc_r+0x420>
    90b6:	e75a      	b.n	8f6e <_malloc_r+0x2d6>
    90b8:	4b4f      	ldr	r3, [pc, #316]	; (91f8 <_malloc_r+0x560>)
    90ba:	9a00      	ldr	r2, [sp, #0]
    90bc:	469a      	mov	sl, r3
    90be:	681b      	ldr	r3, [r3, #0]
    90c0:	469c      	mov	ip, r3
    90c2:	4653      	mov	r3, sl
    90c4:	4462      	add	r2, ip
    90c6:	0011      	movs	r1, r2
    90c8:	601a      	str	r2, [r3, #0]
    90ca:	e6ff      	b.n	8ecc <_malloc_r+0x234>
    90cc:	2308      	movs	r3, #8
    90ce:	425b      	negs	r3, r3
    90d0:	469c      	mov	ip, r3
    90d2:	44e1      	add	r9, ip
    90d4:	464b      	mov	r3, r9
    90d6:	689b      	ldr	r3, [r3, #8]
    90d8:	3801      	subs	r0, #1
    90da:	4599      	cmp	r9, r3
    90dc:	d000      	beq.n	90e0 <_malloc_r+0x448>
    90de:	e084      	b.n	91ea <_malloc_r+0x552>
    90e0:	4643      	mov	r3, r8
    90e2:	4203      	tst	r3, r0
    90e4:	d1f2      	bne.n	90cc <_malloc_r+0x434>
    90e6:	6873      	ldr	r3, [r6, #4]
    90e8:	438b      	bics	r3, r1
    90ea:	6073      	str	r3, [r6, #4]
    90ec:	0049      	lsls	r1, r1, #1
    90ee:	4299      	cmp	r1, r3
    90f0:	d900      	bls.n	90f4 <_malloc_r+0x45c>
    90f2:	e6b5      	b.n	8e60 <_malloc_r+0x1c8>
    90f4:	2900      	cmp	r1, #0
    90f6:	d100      	bne.n	90fa <_malloc_r+0x462>
    90f8:	e6b2      	b.n	8e60 <_malloc_r+0x1c8>
    90fa:	4650      	mov	r0, sl
    90fc:	420b      	tst	r3, r1
    90fe:	d000      	beq.n	9102 <_malloc_r+0x46a>
    9100:	e648      	b.n	8d94 <_malloc_r+0xfc>
    9102:	0049      	lsls	r1, r1, #1
    9104:	3004      	adds	r0, #4
    9106:	420b      	tst	r3, r1
    9108:	d0fb      	beq.n	9102 <_malloc_r+0x46a>
    910a:	e643      	b.n	8d94 <_malloc_r+0xfc>
    910c:	2301      	movs	r3, #1
    910e:	464a      	mov	r2, r9
    9110:	6053      	str	r3, [r2, #4]
    9112:	0038      	movs	r0, r7
    9114:	f000 f8bc 	bl	9290 <__malloc_unlock>
    9118:	2000      	movs	r0, #0
    911a:	e68c      	b.n	8e36 <_malloc_r+0x19e>
    911c:	4694      	mov	ip, r2
    911e:	e76a      	b.n	8ff6 <_malloc_r+0x35e>
    9120:	23aa      	movs	r3, #170	; 0xaa
    9122:	005b      	lsls	r3, r3, #1
    9124:	4298      	cmp	r0, r3
    9126:	d811      	bhi.n	914c <_malloc_r+0x4b4>
    9128:	3bdd      	subs	r3, #221	; 0xdd
    912a:	4698      	mov	r8, r3
    912c:	0be8      	lsrs	r0, r5, #15
    912e:	4480      	add	r8, r0
    9130:	3078      	adds	r0, #120	; 0x78
    9132:	00c1      	lsls	r1, r0, #3
    9134:	e5d7      	b.n	8ce6 <_malloc_r+0x4e>
    9136:	2380      	movs	r3, #128	; 0x80
    9138:	015b      	lsls	r3, r3, #5
    913a:	e6dd      	b.n	8ef8 <_malloc_r+0x260>
    913c:	1089      	asrs	r1, r1, #2
    913e:	3b02      	subs	r3, #2
    9140:	408b      	lsls	r3, r1
    9142:	6872      	ldr	r2, [r6, #4]
    9144:	4313      	orrs	r3, r2
    9146:	6073      	str	r3, [r6, #4]
    9148:	4662      	mov	r2, ip
    914a:	e757      	b.n	8ffc <_malloc_r+0x364>
    914c:	4b2b      	ldr	r3, [pc, #172]	; (91fc <_malloc_r+0x564>)
    914e:	4298      	cmp	r0, r3
    9150:	d81c      	bhi.n	918c <_malloc_r+0x4f4>
    9152:	237c      	movs	r3, #124	; 0x7c
    9154:	4698      	mov	r8, r3
    9156:	0ca8      	lsrs	r0, r5, #18
    9158:	4480      	add	r8, r0
    915a:	307d      	adds	r0, #125	; 0x7d
    915c:	00c1      	lsls	r1, r0, #3
    915e:	e5c2      	b.n	8ce6 <_malloc_r+0x4e>
    9160:	3310      	adds	r3, #16
    9162:	9300      	str	r3, [sp, #0]
    9164:	e699      	b.n	8e9a <_malloc_r+0x202>
    9166:	2a54      	cmp	r2, #84	; 0x54
    9168:	d826      	bhi.n	91b8 <_malloc_r+0x520>
    916a:	464b      	mov	r3, r9
    916c:	0b1a      	lsrs	r2, r3, #12
    916e:	0011      	movs	r1, r2
    9170:	326f      	adds	r2, #111	; 0x6f
    9172:	316e      	adds	r1, #110	; 0x6e
    9174:	00d2      	lsls	r2, r2, #3
    9176:	e729      	b.n	8fcc <_malloc_r+0x334>
    9178:	051b      	lsls	r3, r3, #20
    917a:	d000      	beq.n	917e <_malloc_r+0x4e6>
    917c:	e6a6      	b.n	8ecc <_malloc_r+0x234>
    917e:	2001      	movs	r0, #1
    9180:	9b00      	ldr	r3, [sp, #0]
    9182:	68b2      	ldr	r2, [r6, #8]
    9184:	4443      	add	r3, r8
    9186:	4303      	orrs	r3, r0
    9188:	6053      	str	r3, [r2, #4]
    918a:	e6e6      	b.n	8f5a <_malloc_r+0x2c2>
    918c:	21fe      	movs	r1, #254	; 0xfe
    918e:	237e      	movs	r3, #126	; 0x7e
    9190:	207f      	movs	r0, #127	; 0x7f
    9192:	0089      	lsls	r1, r1, #2
    9194:	4698      	mov	r8, r3
    9196:	e5a6      	b.n	8ce6 <_malloc_r+0x4e>
    9198:	2300      	movs	r3, #0
    919a:	2001      	movs	r0, #1
    919c:	469b      	mov	fp, r3
    919e:	e6bd      	b.n	8f1c <_malloc_r+0x284>
    91a0:	0021      	movs	r1, r4
    91a2:	0038      	movs	r0, r7
    91a4:	3108      	adds	r1, #8
    91a6:	f7ff fc87 	bl	8ab8 <_free_r>
    91aa:	4653      	mov	r3, sl
    91ac:	6819      	ldr	r1, [r3, #0]
    91ae:	e6d4      	b.n	8f5a <_malloc_r+0x2c2>
    91b0:	465b      	mov	r3, fp
    91b2:	464a      	mov	r2, r9
    91b4:	601a      	str	r2, [r3, #0]
    91b6:	e694      	b.n	8ee2 <_malloc_r+0x24a>
    91b8:	21aa      	movs	r1, #170	; 0xaa
    91ba:	0049      	lsls	r1, r1, #1
    91bc:	428a      	cmp	r2, r1
    91be:	d806      	bhi.n	91ce <_malloc_r+0x536>
    91c0:	464b      	mov	r3, r9
    91c2:	0bda      	lsrs	r2, r3, #15
    91c4:	0011      	movs	r1, r2
    91c6:	3278      	adds	r2, #120	; 0x78
    91c8:	3177      	adds	r1, #119	; 0x77
    91ca:	00d2      	lsls	r2, r2, #3
    91cc:	e6fe      	b.n	8fcc <_malloc_r+0x334>
    91ce:	490b      	ldr	r1, [pc, #44]	; (91fc <_malloc_r+0x564>)
    91d0:	428a      	cmp	r2, r1
    91d2:	d806      	bhi.n	91e2 <_malloc_r+0x54a>
    91d4:	464b      	mov	r3, r9
    91d6:	0c9a      	lsrs	r2, r3, #18
    91d8:	0011      	movs	r1, r2
    91da:	327d      	adds	r2, #125	; 0x7d
    91dc:	317c      	adds	r1, #124	; 0x7c
    91de:	00d2      	lsls	r2, r2, #3
    91e0:	e6f4      	b.n	8fcc <_malloc_r+0x334>
    91e2:	22fe      	movs	r2, #254	; 0xfe
    91e4:	217e      	movs	r1, #126	; 0x7e
    91e6:	0092      	lsls	r2, r2, #2
    91e8:	e6f0      	b.n	8fcc <_malloc_r+0x334>
    91ea:	6873      	ldr	r3, [r6, #4]
    91ec:	e77e      	b.n	90ec <_malloc_r+0x454>
    91ee:	002b      	movs	r3, r5
    91f0:	08e8      	lsrs	r0, r5, #3
    91f2:	3308      	adds	r3, #8
    91f4:	e605      	b.n	8e02 <_malloc_r+0x16a>
    91f6:	46c0      	nop			; (mov r8, r8)
    91f8:	20000e0c 	.word	0x20000e0c
    91fc:	00000554 	.word	0x00000554

00009200 <memchr>:
    9200:	b570      	push	{r4, r5, r6, lr}
    9202:	b2cd      	uxtb	r5, r1
    9204:	0783      	lsls	r3, r0, #30
    9206:	d034      	beq.n	9272 <memchr+0x72>
    9208:	1e54      	subs	r4, r2, #1
    920a:	2a00      	cmp	r2, #0
    920c:	d01b      	beq.n	9246 <memchr+0x46>
    920e:	7803      	ldrb	r3, [r0, #0]
    9210:	42ab      	cmp	r3, r5
    9212:	d019      	beq.n	9248 <memchr+0x48>
    9214:	2203      	movs	r2, #3
    9216:	e004      	b.n	9222 <memchr+0x22>
    9218:	3c01      	subs	r4, #1
    921a:	d314      	bcc.n	9246 <memchr+0x46>
    921c:	7803      	ldrb	r3, [r0, #0]
    921e:	42ab      	cmp	r3, r5
    9220:	d012      	beq.n	9248 <memchr+0x48>
    9222:	3001      	adds	r0, #1
    9224:	4210      	tst	r0, r2
    9226:	d1f7      	bne.n	9218 <memchr+0x18>
    9228:	2c03      	cmp	r4, #3
    922a:	d80e      	bhi.n	924a <memchr+0x4a>
    922c:	2c00      	cmp	r4, #0
    922e:	d00a      	beq.n	9246 <memchr+0x46>
    9230:	7803      	ldrb	r3, [r0, #0]
    9232:	42ab      	cmp	r3, r5
    9234:	d008      	beq.n	9248 <memchr+0x48>
    9236:	1904      	adds	r4, r0, r4
    9238:	e002      	b.n	9240 <memchr+0x40>
    923a:	7803      	ldrb	r3, [r0, #0]
    923c:	42ab      	cmp	r3, r5
    923e:	d003      	beq.n	9248 <memchr+0x48>
    9240:	3001      	adds	r0, #1
    9242:	4284      	cmp	r4, r0
    9244:	d1f9      	bne.n	923a <memchr+0x3a>
    9246:	2000      	movs	r0, #0
    9248:	bd70      	pop	{r4, r5, r6, pc}
    924a:	22ff      	movs	r2, #255	; 0xff
    924c:	060b      	lsls	r3, r1, #24
    924e:	0c1b      	lsrs	r3, r3, #16
    9250:	4011      	ands	r1, r2
    9252:	4319      	orrs	r1, r3
    9254:	040b      	lsls	r3, r1, #16
    9256:	4e08      	ldr	r6, [pc, #32]	; (9278 <memchr+0x78>)
    9258:	4319      	orrs	r1, r3
    925a:	6803      	ldr	r3, [r0, #0]
    925c:	4a07      	ldr	r2, [pc, #28]	; (927c <memchr+0x7c>)
    925e:	404b      	eors	r3, r1
    9260:	189a      	adds	r2, r3, r2
    9262:	439a      	bics	r2, r3
    9264:	4232      	tst	r2, r6
    9266:	d1e3      	bne.n	9230 <memchr+0x30>
    9268:	3c04      	subs	r4, #4
    926a:	3004      	adds	r0, #4
    926c:	2c03      	cmp	r4, #3
    926e:	d8f4      	bhi.n	925a <memchr+0x5a>
    9270:	e7dc      	b.n	922c <memchr+0x2c>
    9272:	0014      	movs	r4, r2
    9274:	e7d8      	b.n	9228 <memchr+0x28>
    9276:	46c0      	nop			; (mov r8, r8)
    9278:	80808080 	.word	0x80808080
    927c:	fefefeff 	.word	0xfefefeff

00009280 <__malloc_lock>:
    9280:	b510      	push	{r4, lr}
    9282:	4802      	ldr	r0, [pc, #8]	; (928c <__malloc_lock+0xc>)
    9284:	f7ff fd04 	bl	8c90 <__retarget_lock_acquire_recursive>
    9288:	bd10      	pop	{r4, pc}
    928a:	46c0      	nop			; (mov r8, r8)
    928c:	2000108c 	.word	0x2000108c

00009290 <__malloc_unlock>:
    9290:	b510      	push	{r4, lr}
    9292:	4802      	ldr	r0, [pc, #8]	; (929c <__malloc_unlock+0xc>)
    9294:	f7ff fcfe 	bl	8c94 <__retarget_lock_release_recursive>
    9298:	bd10      	pop	{r4, pc}
    929a:	46c0      	nop			; (mov r8, r8)
    929c:	2000108c 	.word	0x2000108c

000092a0 <_Balloc>:
    92a0:	b570      	push	{r4, r5, r6, lr}
    92a2:	0004      	movs	r4, r0
    92a4:	6cc0      	ldr	r0, [r0, #76]	; 0x4c
    92a6:	000d      	movs	r5, r1
    92a8:	2800      	cmp	r0, #0
    92aa:	d00a      	beq.n	92c2 <_Balloc+0x22>
    92ac:	00ab      	lsls	r3, r5, #2
    92ae:	18c3      	adds	r3, r0, r3
    92b0:	6818      	ldr	r0, [r3, #0]
    92b2:	2800      	cmp	r0, #0
    92b4:	d00f      	beq.n	92d6 <_Balloc+0x36>
    92b6:	6802      	ldr	r2, [r0, #0]
    92b8:	601a      	str	r2, [r3, #0]
    92ba:	2300      	movs	r3, #0
    92bc:	6103      	str	r3, [r0, #16]
    92be:	60c3      	str	r3, [r0, #12]
    92c0:	bd70      	pop	{r4, r5, r6, pc}
    92c2:	2221      	movs	r2, #33	; 0x21
    92c4:	2104      	movs	r1, #4
    92c6:	0020      	movs	r0, r4
    92c8:	f000 fc80 	bl	9bcc <_calloc_r>
    92cc:	64e0      	str	r0, [r4, #76]	; 0x4c
    92ce:	2800      	cmp	r0, #0
    92d0:	d1ec      	bne.n	92ac <_Balloc+0xc>
    92d2:	2000      	movs	r0, #0
    92d4:	e7f4      	b.n	92c0 <_Balloc+0x20>
    92d6:	2601      	movs	r6, #1
    92d8:	40ae      	lsls	r6, r5
    92da:	1d72      	adds	r2, r6, #5
    92dc:	0092      	lsls	r2, r2, #2
    92de:	2101      	movs	r1, #1
    92e0:	0020      	movs	r0, r4
    92e2:	f000 fc73 	bl	9bcc <_calloc_r>
    92e6:	2800      	cmp	r0, #0
    92e8:	d0f3      	beq.n	92d2 <_Balloc+0x32>
    92ea:	6045      	str	r5, [r0, #4]
    92ec:	6086      	str	r6, [r0, #8]
    92ee:	e7e4      	b.n	92ba <_Balloc+0x1a>

000092f0 <_Bfree>:
    92f0:	2900      	cmp	r1, #0
    92f2:	d006      	beq.n	9302 <_Bfree+0x12>
    92f4:	684b      	ldr	r3, [r1, #4]
    92f6:	009a      	lsls	r2, r3, #2
    92f8:	6cc3      	ldr	r3, [r0, #76]	; 0x4c
    92fa:	189b      	adds	r3, r3, r2
    92fc:	681a      	ldr	r2, [r3, #0]
    92fe:	600a      	str	r2, [r1, #0]
    9300:	6019      	str	r1, [r3, #0]
    9302:	4770      	bx	lr

00009304 <__multadd>:
    9304:	b5f8      	push	{r3, r4, r5, r6, r7, lr}
    9306:	46ce      	mov	lr, r9
    9308:	4647      	mov	r7, r8
    930a:	4681      	mov	r9, r0
    930c:	0008      	movs	r0, r1
    930e:	b580      	push	{r7, lr}
    9310:	000d      	movs	r5, r1
    9312:	690c      	ldr	r4, [r1, #16]
    9314:	001f      	movs	r7, r3
    9316:	2100      	movs	r1, #0
    9318:	3014      	adds	r0, #20
    931a:	6803      	ldr	r3, [r0, #0]
    931c:	3101      	adds	r1, #1
    931e:	041e      	lsls	r6, r3, #16
    9320:	0c36      	lsrs	r6, r6, #16
    9322:	4356      	muls	r6, r2
    9324:	0c1b      	lsrs	r3, r3, #16
    9326:	4353      	muls	r3, r2
    9328:	19f6      	adds	r6, r6, r7
    932a:	0c37      	lsrs	r7, r6, #16
    932c:	19db      	adds	r3, r3, r7
    932e:	0436      	lsls	r6, r6, #16
    9330:	0c1f      	lsrs	r7, r3, #16
    9332:	0c36      	lsrs	r6, r6, #16
    9334:	041b      	lsls	r3, r3, #16
    9336:	199b      	adds	r3, r3, r6
    9338:	c008      	stmia	r0!, {r3}
    933a:	428c      	cmp	r4, r1
    933c:	dced      	bgt.n	931a <__multadd+0x16>
    933e:	2f00      	cmp	r7, #0
    9340:	d008      	beq.n	9354 <__multadd+0x50>
    9342:	68ab      	ldr	r3, [r5, #8]
    9344:	429c      	cmp	r4, r3
    9346:	da0a      	bge.n	935e <__multadd+0x5a>
    9348:	1d23      	adds	r3, r4, #4
    934a:	009b      	lsls	r3, r3, #2
    934c:	18eb      	adds	r3, r5, r3
    934e:	3401      	adds	r4, #1
    9350:	605f      	str	r7, [r3, #4]
    9352:	612c      	str	r4, [r5, #16]
    9354:	0028      	movs	r0, r5
    9356:	bc0c      	pop	{r2, r3}
    9358:	4690      	mov	r8, r2
    935a:	4699      	mov	r9, r3
    935c:	bdf8      	pop	{r3, r4, r5, r6, r7, pc}
    935e:	686b      	ldr	r3, [r5, #4]
    9360:	4648      	mov	r0, r9
    9362:	1c59      	adds	r1, r3, #1
    9364:	f7ff ff9c 	bl	92a0 <_Balloc>
    9368:	0029      	movs	r1, r5
    936a:	692b      	ldr	r3, [r5, #16]
    936c:	4680      	mov	r8, r0
    936e:	1c9a      	adds	r2, r3, #2
    9370:	0092      	lsls	r2, r2, #2
    9372:	310c      	adds	r1, #12
    9374:	300c      	adds	r0, #12
    9376:	f7fc ff01 	bl	617c <memcpy>
    937a:	686b      	ldr	r3, [r5, #4]
    937c:	009a      	lsls	r2, r3, #2
    937e:	464b      	mov	r3, r9
    9380:	6cdb      	ldr	r3, [r3, #76]	; 0x4c
    9382:	189b      	adds	r3, r3, r2
    9384:	681a      	ldr	r2, [r3, #0]
    9386:	602a      	str	r2, [r5, #0]
    9388:	601d      	str	r5, [r3, #0]
    938a:	4645      	mov	r5, r8
    938c:	e7dc      	b.n	9348 <__multadd+0x44>
    938e:	46c0      	nop			; (mov r8, r8)

00009390 <__hi0bits>:
    9390:	0003      	movs	r3, r0
    9392:	0c02      	lsrs	r2, r0, #16
    9394:	2000      	movs	r0, #0
    9396:	2a00      	cmp	r2, #0
    9398:	d101      	bne.n	939e <__hi0bits+0xe>
    939a:	041b      	lsls	r3, r3, #16
    939c:	3010      	adds	r0, #16
    939e:	0e1a      	lsrs	r2, r3, #24
    93a0:	d101      	bne.n	93a6 <__hi0bits+0x16>
    93a2:	3008      	adds	r0, #8
    93a4:	021b      	lsls	r3, r3, #8
    93a6:	0f1a      	lsrs	r2, r3, #28
    93a8:	d101      	bne.n	93ae <__hi0bits+0x1e>
    93aa:	3004      	adds	r0, #4
    93ac:	011b      	lsls	r3, r3, #4
    93ae:	0f9a      	lsrs	r2, r3, #30
    93b0:	d101      	bne.n	93b6 <__hi0bits+0x26>
    93b2:	3002      	adds	r0, #2
    93b4:	009b      	lsls	r3, r3, #2
    93b6:	2b00      	cmp	r3, #0
    93b8:	db03      	blt.n	93c2 <__hi0bits+0x32>
    93ba:	3001      	adds	r0, #1
    93bc:	005b      	lsls	r3, r3, #1
    93be:	d400      	bmi.n	93c2 <__hi0bits+0x32>
    93c0:	2020      	movs	r0, #32
    93c2:	4770      	bx	lr

000093c4 <__lo0bits>:
    93c4:	6803      	ldr	r3, [r0, #0]
    93c6:	075a      	lsls	r2, r3, #29
    93c8:	d009      	beq.n	93de <__lo0bits+0x1a>
    93ca:	2200      	movs	r2, #0
    93cc:	07d9      	lsls	r1, r3, #31
    93ce:	d404      	bmi.n	93da <__lo0bits+0x16>
    93d0:	079a      	lsls	r2, r3, #30
    93d2:	d420      	bmi.n	9416 <__lo0bits+0x52>
    93d4:	2202      	movs	r2, #2
    93d6:	089b      	lsrs	r3, r3, #2
    93d8:	6003      	str	r3, [r0, #0]
    93da:	0010      	movs	r0, r2
    93dc:	4770      	bx	lr
    93de:	0419      	lsls	r1, r3, #16
    93e0:	2200      	movs	r2, #0
    93e2:	2900      	cmp	r1, #0
    93e4:	d101      	bne.n	93ea <__lo0bits+0x26>
    93e6:	0c1b      	lsrs	r3, r3, #16
    93e8:	3210      	adds	r2, #16
    93ea:	21ff      	movs	r1, #255	; 0xff
    93ec:	4219      	tst	r1, r3
    93ee:	d101      	bne.n	93f4 <__lo0bits+0x30>
    93f0:	3208      	adds	r2, #8
    93f2:	0a1b      	lsrs	r3, r3, #8
    93f4:	0719      	lsls	r1, r3, #28
    93f6:	d101      	bne.n	93fc <__lo0bits+0x38>
    93f8:	3204      	adds	r2, #4
    93fa:	091b      	lsrs	r3, r3, #4
    93fc:	0799      	lsls	r1, r3, #30
    93fe:	d101      	bne.n	9404 <__lo0bits+0x40>
    9400:	3202      	adds	r2, #2
    9402:	089b      	lsrs	r3, r3, #2
    9404:	07d9      	lsls	r1, r3, #31
    9406:	d404      	bmi.n	9412 <__lo0bits+0x4e>
    9408:	085b      	lsrs	r3, r3, #1
    940a:	d101      	bne.n	9410 <__lo0bits+0x4c>
    940c:	2220      	movs	r2, #32
    940e:	e7e4      	b.n	93da <__lo0bits+0x16>
    9410:	3201      	adds	r2, #1
    9412:	6003      	str	r3, [r0, #0]
    9414:	e7e1      	b.n	93da <__lo0bits+0x16>
    9416:	085b      	lsrs	r3, r3, #1
    9418:	6003      	str	r3, [r0, #0]
    941a:	2201      	movs	r2, #1
    941c:	e7dd      	b.n	93da <__lo0bits+0x16>
    941e:	46c0      	nop			; (mov r8, r8)

00009420 <__i2b>:
    9420:	b510      	push	{r4, lr}
    9422:	000c      	movs	r4, r1
    9424:	2101      	movs	r1, #1
    9426:	f7ff ff3b 	bl	92a0 <_Balloc>
    942a:	2301      	movs	r3, #1
    942c:	6144      	str	r4, [r0, #20]
    942e:	6103      	str	r3, [r0, #16]
    9430:	bd10      	pop	{r4, pc}
    9432:	46c0      	nop			; (mov r8, r8)

00009434 <__multiply>:
    9434:	b5f0      	push	{r4, r5, r6, r7, lr}
    9436:	4657      	mov	r7, sl
    9438:	464e      	mov	r6, r9
    943a:	4645      	mov	r5, r8
    943c:	46de      	mov	lr, fp
    943e:	b5e0      	push	{r5, r6, r7, lr}
    9440:	6914      	ldr	r4, [r2, #16]
    9442:	690e      	ldr	r6, [r1, #16]
    9444:	b085      	sub	sp, #20
    9446:	000f      	movs	r7, r1
    9448:	0015      	movs	r5, r2
    944a:	42a6      	cmp	r6, r4
    944c:	da04      	bge.n	9458 <__multiply+0x24>
    944e:	0033      	movs	r3, r6
    9450:	0017      	movs	r7, r2
    9452:	0026      	movs	r6, r4
    9454:	000d      	movs	r5, r1
    9456:	001c      	movs	r4, r3
    9458:	1933      	adds	r3, r6, r4
    945a:	4698      	mov	r8, r3
    945c:	68bb      	ldr	r3, [r7, #8]
    945e:	6879      	ldr	r1, [r7, #4]
    9460:	4598      	cmp	r8, r3
    9462:	dd00      	ble.n	9466 <__multiply+0x32>
    9464:	3101      	adds	r1, #1
    9466:	f7ff ff1b 	bl	92a0 <_Balloc>
    946a:	2214      	movs	r2, #20
    946c:	0003      	movs	r3, r0
    946e:	4694      	mov	ip, r2
    9470:	4463      	add	r3, ip
    9472:	469b      	mov	fp, r3
    9474:	4643      	mov	r3, r8
    9476:	009b      	lsls	r3, r3, #2
    9478:	445b      	add	r3, fp
    947a:	0019      	movs	r1, r3
    947c:	9302      	str	r3, [sp, #8]
    947e:	9003      	str	r0, [sp, #12]
    9480:	465b      	mov	r3, fp
    9482:	2200      	movs	r2, #0
    9484:	458b      	cmp	fp, r1
    9486:	d203      	bcs.n	9490 <__multiply+0x5c>
    9488:	9902      	ldr	r1, [sp, #8]
    948a:	c304      	stmia	r3!, {r2}
    948c:	4299      	cmp	r1, r3
    948e:	d8fc      	bhi.n	948a <__multiply+0x56>
    9490:	2314      	movs	r3, #20
    9492:	00a4      	lsls	r4, r4, #2
    9494:	469a      	mov	sl, r3
    9496:	3714      	adds	r7, #20
    9498:	0023      	movs	r3, r4
    949a:	46bc      	mov	ip, r7
    949c:	44aa      	add	sl, r5
    949e:	00b6      	lsls	r6, r6, #2
    94a0:	4453      	add	r3, sl
    94a2:	9700      	str	r7, [sp, #0]
    94a4:	44b4      	add	ip, r6
    94a6:	9301      	str	r3, [sp, #4]
    94a8:	459a      	cmp	sl, r3
    94aa:	d24f      	bcs.n	954c <__multiply+0x118>
    94ac:	4653      	mov	r3, sl
    94ae:	681b      	ldr	r3, [r3, #0]
    94b0:	041e      	lsls	r6, r3, #16
    94b2:	0c36      	lsrs	r6, r6, #16
    94b4:	d020      	beq.n	94f8 <__multiply+0xc4>
    94b6:	465c      	mov	r4, fp
    94b8:	2700      	movs	r7, #0
    94ba:	9d00      	ldr	r5, [sp, #0]
    94bc:	0021      	movs	r1, r4
    94be:	cc08      	ldmia	r4!, {r3}
    94c0:	cd04      	ldmia	r5!, {r2}
    94c2:	4699      	mov	r9, r3
    94c4:	4648      	mov	r0, r9
    94c6:	0413      	lsls	r3, r2, #16
    94c8:	0c1b      	lsrs	r3, r3, #16
    94ca:	4373      	muls	r3, r6
    94cc:	0400      	lsls	r0, r0, #16
    94ce:	0c00      	lsrs	r0, r0, #16
    94d0:	181b      	adds	r3, r3, r0
    94d2:	19d8      	adds	r0, r3, r7
    94d4:	0c13      	lsrs	r3, r2, #16
    94d6:	464a      	mov	r2, r9
    94d8:	4373      	muls	r3, r6
    94da:	0c12      	lsrs	r2, r2, #16
    94dc:	189b      	adds	r3, r3, r2
    94de:	0c02      	lsrs	r2, r0, #16
    94e0:	189b      	adds	r3, r3, r2
    94e2:	0402      	lsls	r2, r0, #16
    94e4:	0c1f      	lsrs	r7, r3, #16
    94e6:	0c12      	lsrs	r2, r2, #16
    94e8:	041b      	lsls	r3, r3, #16
    94ea:	4313      	orrs	r3, r2
    94ec:	600b      	str	r3, [r1, #0]
    94ee:	45ac      	cmp	ip, r5
    94f0:	d8e4      	bhi.n	94bc <__multiply+0x88>
    94f2:	4653      	mov	r3, sl
    94f4:	6027      	str	r7, [r4, #0]
    94f6:	681b      	ldr	r3, [r3, #0]
    94f8:	0c1e      	lsrs	r6, r3, #16
    94fa:	d020      	beq.n	953e <__multiply+0x10a>
    94fc:	465b      	mov	r3, fp
    94fe:	2100      	movs	r1, #0
    9500:	681b      	ldr	r3, [r3, #0]
    9502:	465c      	mov	r4, fp
    9504:	0018      	movs	r0, r3
    9506:	000f      	movs	r7, r1
    9508:	4662      	mov	r2, ip
    950a:	9d00      	ldr	r5, [sp, #0]
    950c:	8829      	ldrh	r1, [r5, #0]
    950e:	0c00      	lsrs	r0, r0, #16
    9510:	4371      	muls	r1, r6
    9512:	1809      	adds	r1, r1, r0
    9514:	19c9      	adds	r1, r1, r7
    9516:	041b      	lsls	r3, r3, #16
    9518:	0408      	lsls	r0, r1, #16
    951a:	0c1b      	lsrs	r3, r3, #16
    951c:	4303      	orrs	r3, r0
    951e:	6023      	str	r3, [r4, #0]
    9520:	cd08      	ldmia	r5!, {r3}
    9522:	6860      	ldr	r0, [r4, #4]
    9524:	0c1b      	lsrs	r3, r3, #16
    9526:	4373      	muls	r3, r6
    9528:	0407      	lsls	r7, r0, #16
    952a:	0c3f      	lsrs	r7, r7, #16
    952c:	19db      	adds	r3, r3, r7
    952e:	0c09      	lsrs	r1, r1, #16
    9530:	185b      	adds	r3, r3, r1
    9532:	0c1f      	lsrs	r7, r3, #16
    9534:	3404      	adds	r4, #4
    9536:	42aa      	cmp	r2, r5
    9538:	d8e8      	bhi.n	950c <__multiply+0xd8>
    953a:	4694      	mov	ip, r2
    953c:	6023      	str	r3, [r4, #0]
    953e:	2304      	movs	r3, #4
    9540:	4699      	mov	r9, r3
    9542:	9b01      	ldr	r3, [sp, #4]
    9544:	44ca      	add	sl, r9
    9546:	44cb      	add	fp, r9
    9548:	4553      	cmp	r3, sl
    954a:	d8af      	bhi.n	94ac <__multiply+0x78>
    954c:	4643      	mov	r3, r8
    954e:	2b00      	cmp	r3, #0
    9550:	dd0e      	ble.n	9570 <__multiply+0x13c>
    9552:	9b02      	ldr	r3, [sp, #8]
    9554:	3b04      	subs	r3, #4
    9556:	681a      	ldr	r2, [r3, #0]
    9558:	2a00      	cmp	r2, #0
    955a:	d109      	bne.n	9570 <__multiply+0x13c>
    955c:	4642      	mov	r2, r8
    955e:	e003      	b.n	9568 <__multiply+0x134>
    9560:	3b04      	subs	r3, #4
    9562:	6819      	ldr	r1, [r3, #0]
    9564:	2900      	cmp	r1, #0
    9566:	d102      	bne.n	956e <__multiply+0x13a>
    9568:	3a01      	subs	r2, #1
    956a:	2a00      	cmp	r2, #0
    956c:	d1f8      	bne.n	9560 <__multiply+0x12c>
    956e:	4690      	mov	r8, r2
    9570:	9b03      	ldr	r3, [sp, #12]
    9572:	4642      	mov	r2, r8
    9574:	0018      	movs	r0, r3
    9576:	611a      	str	r2, [r3, #16]
    9578:	b005      	add	sp, #20
    957a:	bc3c      	pop	{r2, r3, r4, r5}
    957c:	4690      	mov	r8, r2
    957e:	4699      	mov	r9, r3
    9580:	46a2      	mov	sl, r4
    9582:	46ab      	mov	fp, r5
    9584:	bdf0      	pop	{r4, r5, r6, r7, pc}
    9586:	46c0      	nop			; (mov r8, r8)

00009588 <__pow5mult>:
    9588:	b5f8      	push	{r3, r4, r5, r6, r7, lr}
    958a:	4647      	mov	r7, r8
    958c:	46ce      	mov	lr, r9
    958e:	2303      	movs	r3, #3
    9590:	b580      	push	{r7, lr}
    9592:	4680      	mov	r8, r0
    9594:	000f      	movs	r7, r1
    9596:	0014      	movs	r4, r2
    9598:	4013      	ands	r3, r2
    959a:	d13a      	bne.n	9612 <__pow5mult+0x8a>
    959c:	10a4      	asrs	r4, r4, #2
    959e:	003e      	movs	r6, r7
    95a0:	2c00      	cmp	r4, #0
    95a2:	d025      	beq.n	95f0 <__pow5mult+0x68>
    95a4:	4643      	mov	r3, r8
    95a6:	6c9d      	ldr	r5, [r3, #72]	; 0x48
    95a8:	2d00      	cmp	r5, #0
    95aa:	d03b      	beq.n	9624 <__pow5mult+0x9c>
    95ac:	003e      	movs	r6, r7
    95ae:	2300      	movs	r3, #0
    95b0:	2701      	movs	r7, #1
    95b2:	4699      	mov	r9, r3
    95b4:	4227      	tst	r7, r4
    95b6:	d107      	bne.n	95c8 <__pow5mult+0x40>
    95b8:	1064      	asrs	r4, r4, #1
    95ba:	d019      	beq.n	95f0 <__pow5mult+0x68>
    95bc:	6828      	ldr	r0, [r5, #0]
    95be:	2800      	cmp	r0, #0
    95c0:	d01b      	beq.n	95fa <__pow5mult+0x72>
    95c2:	0005      	movs	r5, r0
    95c4:	4227      	tst	r7, r4
    95c6:	d0f7      	beq.n	95b8 <__pow5mult+0x30>
    95c8:	002a      	movs	r2, r5
    95ca:	0031      	movs	r1, r6
    95cc:	4640      	mov	r0, r8
    95ce:	f7ff ff31 	bl	9434 <__multiply>
    95d2:	2e00      	cmp	r6, #0
    95d4:	d01b      	beq.n	960e <__pow5mult+0x86>
    95d6:	4642      	mov	r2, r8
    95d8:	6cd2      	ldr	r2, [r2, #76]	; 0x4c
    95da:	6873      	ldr	r3, [r6, #4]
    95dc:	4694      	mov	ip, r2
    95de:	009b      	lsls	r3, r3, #2
    95e0:	4463      	add	r3, ip
    95e2:	681a      	ldr	r2, [r3, #0]
    95e4:	1064      	asrs	r4, r4, #1
    95e6:	6032      	str	r2, [r6, #0]
    95e8:	601e      	str	r6, [r3, #0]
    95ea:	0006      	movs	r6, r0
    95ec:	2c00      	cmp	r4, #0
    95ee:	d1e5      	bne.n	95bc <__pow5mult+0x34>
    95f0:	0030      	movs	r0, r6
    95f2:	bc0c      	pop	{r2, r3}
    95f4:	4690      	mov	r8, r2
    95f6:	4699      	mov	r9, r3
    95f8:	bdf8      	pop	{r3, r4, r5, r6, r7, pc}
    95fa:	002a      	movs	r2, r5
    95fc:	0029      	movs	r1, r5
    95fe:	4640      	mov	r0, r8
    9600:	f7ff ff18 	bl	9434 <__multiply>
    9604:	464b      	mov	r3, r9
    9606:	6028      	str	r0, [r5, #0]
    9608:	6003      	str	r3, [r0, #0]
    960a:	0005      	movs	r5, r0
    960c:	e7da      	b.n	95c4 <__pow5mult+0x3c>
    960e:	0006      	movs	r6, r0
    9610:	e7d2      	b.n	95b8 <__pow5mult+0x30>
    9612:	4a0b      	ldr	r2, [pc, #44]	; (9640 <__pow5mult+0xb8>)
    9614:	3b01      	subs	r3, #1
    9616:	009b      	lsls	r3, r3, #2
    9618:	589a      	ldr	r2, [r3, r2]
    961a:	2300      	movs	r3, #0
    961c:	f7ff fe72 	bl	9304 <__multadd>
    9620:	0007      	movs	r7, r0
    9622:	e7bb      	b.n	959c <__pow5mult+0x14>
    9624:	2101      	movs	r1, #1
    9626:	4640      	mov	r0, r8
    9628:	f7ff fe3a 	bl	92a0 <_Balloc>
    962c:	4b05      	ldr	r3, [pc, #20]	; (9644 <__pow5mult+0xbc>)
    962e:	0005      	movs	r5, r0
    9630:	6143      	str	r3, [r0, #20]
    9632:	2301      	movs	r3, #1
    9634:	6103      	str	r3, [r0, #16]
    9636:	4643      	mov	r3, r8
    9638:	6498      	str	r0, [r3, #72]	; 0x48
    963a:	2300      	movs	r3, #0
    963c:	6003      	str	r3, [r0, #0]
    963e:	e7b5      	b.n	95ac <__pow5mult+0x24>
    9640:	0000b550 	.word	0x0000b550
    9644:	00000271 	.word	0x00000271

00009648 <__lshift>:
    9648:	b5f8      	push	{r3, r4, r5, r6, r7, lr}
    964a:	464e      	mov	r6, r9
    964c:	4645      	mov	r5, r8
    964e:	46de      	mov	lr, fp
    9650:	4657      	mov	r7, sl
    9652:	b5e0      	push	{r5, r6, r7, lr}
    9654:	000e      	movs	r6, r1
    9656:	6933      	ldr	r3, [r6, #16]
    9658:	1154      	asrs	r4, r2, #5
    965a:	4698      	mov	r8, r3
    965c:	44a0      	add	r8, r4
    965e:	4643      	mov	r3, r8
    9660:	1c5d      	adds	r5, r3, #1
    9662:	68b3      	ldr	r3, [r6, #8]
    9664:	4683      	mov	fp, r0
    9666:	4691      	mov	r9, r2
    9668:	6849      	ldr	r1, [r1, #4]
    966a:	429d      	cmp	r5, r3
    966c:	dd03      	ble.n	9676 <__lshift+0x2e>
    966e:	3101      	adds	r1, #1
    9670:	005b      	lsls	r3, r3, #1
    9672:	429d      	cmp	r5, r3
    9674:	dcfb      	bgt.n	966e <__lshift+0x26>
    9676:	4658      	mov	r0, fp
    9678:	f7ff fe12 	bl	92a0 <_Balloc>
    967c:	0003      	movs	r3, r0
    967e:	4684      	mov	ip, r0
    9680:	3314      	adds	r3, #20
    9682:	2c00      	cmp	r4, #0
    9684:	dd06      	ble.n	9694 <__lshift+0x4c>
    9686:	2100      	movs	r1, #0
    9688:	00a4      	lsls	r4, r4, #2
    968a:	001a      	movs	r2, r3
    968c:	191b      	adds	r3, r3, r4
    968e:	c202      	stmia	r2!, {r1}
    9690:	4293      	cmp	r3, r2
    9692:	d1fc      	bne.n	968e <__lshift+0x46>
    9694:	6932      	ldr	r2, [r6, #16]
    9696:	4648      	mov	r0, r9
    9698:	0097      	lsls	r7, r2, #2
    969a:	0031      	movs	r1, r6
    969c:	221f      	movs	r2, #31
    969e:	3114      	adds	r1, #20
    96a0:	4010      	ands	r0, r2
    96a2:	19cf      	adds	r7, r1, r7
    96a4:	4681      	mov	r9, r0
    96a6:	2800      	cmp	r0, #0
    96a8:	d025      	beq.n	96f6 <__lshift+0xae>
    96aa:	2220      	movs	r2, #32
    96ac:	1a12      	subs	r2, r2, r0
    96ae:	4692      	mov	sl, r2
    96b0:	2200      	movs	r2, #0
    96b2:	4648      	mov	r0, r9
    96b4:	680c      	ldr	r4, [r1, #0]
    96b6:	4084      	lsls	r4, r0
    96b8:	4650      	mov	r0, sl
    96ba:	4314      	orrs	r4, r2
    96bc:	601c      	str	r4, [r3, #0]
    96be:	c904      	ldmia	r1!, {r2}
    96c0:	3304      	adds	r3, #4
    96c2:	40c2      	lsrs	r2, r0
    96c4:	428f      	cmp	r7, r1
    96c6:	d8f4      	bhi.n	96b2 <__lshift+0x6a>
    96c8:	601a      	str	r2, [r3, #0]
    96ca:	2a00      	cmp	r2, #0
    96cc:	d001      	beq.n	96d2 <__lshift+0x8a>
    96ce:	4645      	mov	r5, r8
    96d0:	3502      	adds	r5, #2
    96d2:	4663      	mov	r3, ip
    96d4:	3d01      	subs	r5, #1
    96d6:	611d      	str	r5, [r3, #16]
    96d8:	6873      	ldr	r3, [r6, #4]
    96da:	4660      	mov	r0, ip
    96dc:	009a      	lsls	r2, r3, #2
    96de:	465b      	mov	r3, fp
    96e0:	6cdb      	ldr	r3, [r3, #76]	; 0x4c
    96e2:	189b      	adds	r3, r3, r2
    96e4:	681a      	ldr	r2, [r3, #0]
    96e6:	6032      	str	r2, [r6, #0]
    96e8:	601e      	str	r6, [r3, #0]
    96ea:	bc3c      	pop	{r2, r3, r4, r5}
    96ec:	4690      	mov	r8, r2
    96ee:	4699      	mov	r9, r3
    96f0:	46a2      	mov	sl, r4
    96f2:	46ab      	mov	fp, r5
    96f4:	bdf8      	pop	{r3, r4, r5, r6, r7, pc}
    96f6:	c904      	ldmia	r1!, {r2}
    96f8:	c304      	stmia	r3!, {r2}
    96fa:	428f      	cmp	r7, r1
    96fc:	d9e9      	bls.n	96d2 <__lshift+0x8a>
    96fe:	c904      	ldmia	r1!, {r2}
    9700:	c304      	stmia	r3!, {r2}
    9702:	428f      	cmp	r7, r1
    9704:	d8f7      	bhi.n	96f6 <__lshift+0xae>
    9706:	e7e4      	b.n	96d2 <__lshift+0x8a>

00009708 <__mcmp>:
    9708:	690a      	ldr	r2, [r1, #16]
    970a:	6903      	ldr	r3, [r0, #16]
    970c:	b530      	push	{r4, r5, lr}
    970e:	0005      	movs	r5, r0
    9710:	1a98      	subs	r0, r3, r2
    9712:	d111      	bne.n	9738 <__mcmp+0x30>
    9714:	0092      	lsls	r2, r2, #2
    9716:	3514      	adds	r5, #20
    9718:	3114      	adds	r1, #20
    971a:	18ab      	adds	r3, r5, r2
    971c:	1889      	adds	r1, r1, r2
    971e:	e001      	b.n	9724 <__mcmp+0x1c>
    9720:	429d      	cmp	r5, r3
    9722:	d209      	bcs.n	9738 <__mcmp+0x30>
    9724:	3b04      	subs	r3, #4
    9726:	3904      	subs	r1, #4
    9728:	681c      	ldr	r4, [r3, #0]
    972a:	680a      	ldr	r2, [r1, #0]
    972c:	4294      	cmp	r4, r2
    972e:	d0f7      	beq.n	9720 <__mcmp+0x18>
    9730:	4294      	cmp	r4, r2
    9732:	4180      	sbcs	r0, r0
    9734:	2201      	movs	r2, #1
    9736:	4310      	orrs	r0, r2
    9738:	bd30      	pop	{r4, r5, pc}
    973a:	46c0      	nop			; (mov r8, r8)

0000973c <__mdiff>:
    973c:	b5f8      	push	{r3, r4, r5, r6, r7, lr}
    973e:	4645      	mov	r5, r8
    9740:	46de      	mov	lr, fp
    9742:	4657      	mov	r7, sl
    9744:	464e      	mov	r6, r9
    9746:	0014      	movs	r4, r2
    9748:	690b      	ldr	r3, [r1, #16]
    974a:	6912      	ldr	r2, [r2, #16]
    974c:	b5e0      	push	{r5, r6, r7, lr}
    974e:	4688      	mov	r8, r1
    9750:	1a9d      	subs	r5, r3, r2
    9752:	d11a      	bne.n	978a <__mdiff+0x4e>
    9754:	000f      	movs	r7, r1
    9756:	2114      	movs	r1, #20
    9758:	468c      	mov	ip, r1
    975a:	0092      	lsls	r2, r2, #2
    975c:	3714      	adds	r7, #20
    975e:	44a4      	add	ip, r4
    9760:	18bb      	adds	r3, r7, r2
    9762:	4462      	add	r2, ip
    9764:	e002      	b.n	976c <__mdiff+0x30>
    9766:	429f      	cmp	r7, r3
    9768:	d300      	bcc.n	976c <__mdiff+0x30>
    976a:	e070      	b.n	984e <__mdiff+0x112>
    976c:	3b04      	subs	r3, #4
    976e:	3a04      	subs	r2, #4
    9770:	681e      	ldr	r6, [r3, #0]
    9772:	6811      	ldr	r1, [r2, #0]
    9774:	428e      	cmp	r6, r1
    9776:	d0f6      	beq.n	9766 <__mdiff+0x2a>
    9778:	d300      	bcc.n	977c <__mdiff+0x40>
    977a:	e071      	b.n	9860 <__mdiff+0x124>
    977c:	4643      	mov	r3, r8
    977e:	003e      	movs	r6, r7
    9780:	46a0      	mov	r8, r4
    9782:	4667      	mov	r7, ip
    9784:	001c      	movs	r4, r3
    9786:	2501      	movs	r5, #1
    9788:	e006      	b.n	9798 <__mdiff+0x5c>
    978a:	2d00      	cmp	r5, #0
    978c:	db6a      	blt.n	9864 <__mdiff+0x128>
    978e:	4647      	mov	r7, r8
    9790:	0026      	movs	r6, r4
    9792:	2500      	movs	r5, #0
    9794:	3714      	adds	r7, #20
    9796:	3614      	adds	r6, #20
    9798:	4643      	mov	r3, r8
    979a:	6859      	ldr	r1, [r3, #4]
    979c:	f7ff fd80 	bl	92a0 <_Balloc>
    97a0:	4643      	mov	r3, r8
    97a2:	4681      	mov	r9, r0
    97a4:	60c5      	str	r5, [r0, #12]
    97a6:	6918      	ldr	r0, [r3, #16]
    97a8:	464d      	mov	r5, r9
    97aa:	0083      	lsls	r3, r0, #2
    97ac:	469c      	mov	ip, r3
    97ae:	6923      	ldr	r3, [r4, #16]
    97b0:	44bc      	add	ip, r7
    97b2:	009b      	lsls	r3, r3, #2
    97b4:	4698      	mov	r8, r3
    97b6:	2300      	movs	r3, #0
    97b8:	44b0      	add	r8, r6
    97ba:	3514      	adds	r5, #20
    97bc:	469a      	mov	sl, r3
    97be:	e000      	b.n	97c2 <__mdiff+0x86>
    97c0:	0027      	movs	r7, r4
    97c2:	ce04      	ldmia	r6!, {r2}
    97c4:	003c      	movs	r4, r7
    97c6:	4693      	mov	fp, r2
    97c8:	4659      	mov	r1, fp
    97ca:	cc08      	ldmia	r4!, {r3}
    97cc:	0409      	lsls	r1, r1, #16
    97ce:	041a      	lsls	r2, r3, #16
    97d0:	0c12      	lsrs	r2, r2, #16
    97d2:	4452      	add	r2, sl
    97d4:	0c09      	lsrs	r1, r1, #16
    97d6:	1a52      	subs	r2, r2, r1
    97d8:	0c19      	lsrs	r1, r3, #16
    97da:	465b      	mov	r3, fp
    97dc:	0c1b      	lsrs	r3, r3, #16
    97de:	1acb      	subs	r3, r1, r3
    97e0:	1411      	asrs	r1, r2, #16
    97e2:	185b      	adds	r3, r3, r1
    97e4:	0412      	lsls	r2, r2, #16
    97e6:	1419      	asrs	r1, r3, #16
    97e8:	0c12      	lsrs	r2, r2, #16
    97ea:	041b      	lsls	r3, r3, #16
    97ec:	468a      	mov	sl, r1
    97ee:	4313      	orrs	r3, r2
    97f0:	1d29      	adds	r1, r5, #4
    97f2:	602b      	str	r3, [r5, #0]
    97f4:	000d      	movs	r5, r1
    97f6:	45b0      	cmp	r8, r6
    97f8:	d8e2      	bhi.n	97c0 <__mdiff+0x84>
    97fa:	45a4      	cmp	ip, r4
    97fc:	d916      	bls.n	982c <__mdiff+0xf0>
    97fe:	cc08      	ldmia	r4!, {r3}
    9800:	041a      	lsls	r2, r3, #16
    9802:	0c12      	lsrs	r2, r2, #16
    9804:	4452      	add	r2, sl
    9806:	1416      	asrs	r6, r2, #16
    9808:	0c1b      	lsrs	r3, r3, #16
    980a:	199b      	adds	r3, r3, r6
    980c:	0412      	lsls	r2, r2, #16
    980e:	141e      	asrs	r6, r3, #16
    9810:	0c12      	lsrs	r2, r2, #16
    9812:	041b      	lsls	r3, r3, #16
    9814:	4313      	orrs	r3, r2
    9816:	46b2      	mov	sl, r6
    9818:	c508      	stmia	r5!, {r3}
    981a:	45a4      	cmp	ip, r4
    981c:	d8ef      	bhi.n	97fe <__mdiff+0xc2>
    981e:	4662      	mov	r2, ip
    9820:	2403      	movs	r4, #3
    9822:	1bd2      	subs	r2, r2, r7
    9824:	3a05      	subs	r2, #5
    9826:	43a2      	bics	r2, r4
    9828:	3204      	adds	r2, #4
    982a:	1889      	adds	r1, r1, r2
    982c:	3904      	subs	r1, #4
    982e:	2b00      	cmp	r3, #0
    9830:	d104      	bne.n	983c <__mdiff+0x100>
    9832:	3904      	subs	r1, #4
    9834:	680b      	ldr	r3, [r1, #0]
    9836:	3801      	subs	r0, #1
    9838:	2b00      	cmp	r3, #0
    983a:	d0fa      	beq.n	9832 <__mdiff+0xf6>
    983c:	464b      	mov	r3, r9
    983e:	6118      	str	r0, [r3, #16]
    9840:	4648      	mov	r0, r9
    9842:	bc3c      	pop	{r2, r3, r4, r5}
    9844:	4690      	mov	r8, r2
    9846:	4699      	mov	r9, r3
    9848:	46a2      	mov	sl, r4
    984a:	46ab      	mov	fp, r5
    984c:	bdf8      	pop	{r3, r4, r5, r6, r7, pc}
    984e:	2100      	movs	r1, #0
    9850:	f7ff fd26 	bl	92a0 <_Balloc>
    9854:	2301      	movs	r3, #1
    9856:	6103      	str	r3, [r0, #16]
    9858:	2300      	movs	r3, #0
    985a:	4681      	mov	r9, r0
    985c:	6143      	str	r3, [r0, #20]
    985e:	e7ef      	b.n	9840 <__mdiff+0x104>
    9860:	4666      	mov	r6, ip
    9862:	e799      	b.n	9798 <__mdiff+0x5c>
    9864:	0027      	movs	r7, r4
    9866:	000e      	movs	r6, r1
    9868:	46a0      	mov	r8, r4
    986a:	3714      	adds	r7, #20
    986c:	3614      	adds	r6, #20
    986e:	000c      	movs	r4, r1
    9870:	2501      	movs	r5, #1
    9872:	e791      	b.n	9798 <__mdiff+0x5c>

00009874 <__d2b>:
    9874:	b5f0      	push	{r4, r5, r6, r7, lr}
    9876:	2101      	movs	r1, #1
    9878:	001c      	movs	r4, r3
    987a:	b083      	sub	sp, #12
    987c:	9e08      	ldr	r6, [sp, #32]
    987e:	0015      	movs	r5, r2
    9880:	f7ff fd0e 	bl	92a0 <_Balloc>
    9884:	0323      	lsls	r3, r4, #12
    9886:	0064      	lsls	r4, r4, #1
    9888:	0007      	movs	r7, r0
    988a:	0b1b      	lsrs	r3, r3, #12
    988c:	0d64      	lsrs	r4, r4, #21
    988e:	d002      	beq.n	9896 <__d2b+0x22>
    9890:	2280      	movs	r2, #128	; 0x80
    9892:	0352      	lsls	r2, r2, #13
    9894:	4313      	orrs	r3, r2
    9896:	9301      	str	r3, [sp, #4]
    9898:	2d00      	cmp	r5, #0
    989a:	d019      	beq.n	98d0 <__d2b+0x5c>
    989c:	4668      	mov	r0, sp
    989e:	9500      	str	r5, [sp, #0]
    98a0:	f7ff fd90 	bl	93c4 <__lo0bits>
    98a4:	2800      	cmp	r0, #0
    98a6:	d130      	bne.n	990a <__d2b+0x96>
    98a8:	9b00      	ldr	r3, [sp, #0]
    98aa:	617b      	str	r3, [r7, #20]
    98ac:	9b01      	ldr	r3, [sp, #4]
    98ae:	61bb      	str	r3, [r7, #24]
    98b0:	1e5a      	subs	r2, r3, #1
    98b2:	4193      	sbcs	r3, r2
    98b4:	1c5d      	adds	r5, r3, #1
    98b6:	613d      	str	r5, [r7, #16]
    98b8:	2c00      	cmp	r4, #0
    98ba:	d014      	beq.n	98e6 <__d2b+0x72>
    98bc:	4b19      	ldr	r3, [pc, #100]	; (9924 <__d2b+0xb0>)
    98be:	469c      	mov	ip, r3
    98c0:	2335      	movs	r3, #53	; 0x35
    98c2:	4464      	add	r4, ip
    98c4:	1824      	adds	r4, r4, r0
    98c6:	1a18      	subs	r0, r3, r0
    98c8:	9b09      	ldr	r3, [sp, #36]	; 0x24
    98ca:	6034      	str	r4, [r6, #0]
    98cc:	6018      	str	r0, [r3, #0]
    98ce:	e019      	b.n	9904 <__d2b+0x90>
    98d0:	a801      	add	r0, sp, #4
    98d2:	f7ff fd77 	bl	93c4 <__lo0bits>
    98d6:	9b01      	ldr	r3, [sp, #4]
    98d8:	3020      	adds	r0, #32
    98da:	617b      	str	r3, [r7, #20]
    98dc:	2301      	movs	r3, #1
    98de:	2501      	movs	r5, #1
    98e0:	613b      	str	r3, [r7, #16]
    98e2:	2c00      	cmp	r4, #0
    98e4:	d1ea      	bne.n	98bc <__d2b+0x48>
    98e6:	4b10      	ldr	r3, [pc, #64]	; (9928 <__d2b+0xb4>)
    98e8:	469c      	mov	ip, r3
    98ea:	4b10      	ldr	r3, [pc, #64]	; (992c <__d2b+0xb8>)
    98ec:	4460      	add	r0, ip
    98ee:	18eb      	adds	r3, r5, r3
    98f0:	009b      	lsls	r3, r3, #2
    98f2:	18fb      	adds	r3, r7, r3
    98f4:	6030      	str	r0, [r6, #0]
    98f6:	6958      	ldr	r0, [r3, #20]
    98f8:	f7ff fd4a 	bl	9390 <__hi0bits>
    98fc:	016b      	lsls	r3, r5, #5
    98fe:	1a18      	subs	r0, r3, r0
    9900:	9b09      	ldr	r3, [sp, #36]	; 0x24
    9902:	6018      	str	r0, [r3, #0]
    9904:	0038      	movs	r0, r7
    9906:	b003      	add	sp, #12
    9908:	bdf0      	pop	{r4, r5, r6, r7, pc}
    990a:	9b01      	ldr	r3, [sp, #4]
    990c:	2220      	movs	r2, #32
    990e:	0019      	movs	r1, r3
    9910:	1a12      	subs	r2, r2, r0
    9912:	4091      	lsls	r1, r2
    9914:	000a      	movs	r2, r1
    9916:	40c3      	lsrs	r3, r0
    9918:	9900      	ldr	r1, [sp, #0]
    991a:	9301      	str	r3, [sp, #4]
    991c:	430a      	orrs	r2, r1
    991e:	617a      	str	r2, [r7, #20]
    9920:	e7c5      	b.n	98ae <__d2b+0x3a>
    9922:	46c0      	nop			; (mov r8, r8)
    9924:	fffffbcd 	.word	0xfffffbcd
    9928:	fffffbce 	.word	0xfffffbce
    992c:	3fffffff 	.word	0x3fffffff

00009930 <_sbrk_r>:
    9930:	2300      	movs	r3, #0
    9932:	b570      	push	{r4, r5, r6, lr}
    9934:	4c06      	ldr	r4, [pc, #24]	; (9950 <_sbrk_r+0x20>)
    9936:	0005      	movs	r5, r0
    9938:	0008      	movs	r0, r1
    993a:	6023      	str	r3, [r4, #0]
    993c:	f7f8 f896 	bl	1a6c <_sbrk>
    9940:	1c43      	adds	r3, r0, #1
    9942:	d000      	beq.n	9946 <_sbrk_r+0x16>
    9944:	bd70      	pop	{r4, r5, r6, pc}
    9946:	6823      	ldr	r3, [r4, #0]
    9948:	2b00      	cmp	r3, #0
    994a:	d0fb      	beq.n	9944 <_sbrk_r+0x14>
    994c:	602b      	str	r3, [r5, #0]
    994e:	e7f9      	b.n	9944 <_sbrk_r+0x14>
    9950:	200010b0 	.word	0x200010b0

00009954 <strlen>:
    9954:	b510      	push	{r4, lr}
    9956:	0783      	lsls	r3, r0, #30
    9958:	d025      	beq.n	99a6 <strlen+0x52>
    995a:	7803      	ldrb	r3, [r0, #0]
    995c:	2b00      	cmp	r3, #0
    995e:	d024      	beq.n	99aa <strlen+0x56>
    9960:	0003      	movs	r3, r0
    9962:	2103      	movs	r1, #3
    9964:	e002      	b.n	996c <strlen+0x18>
    9966:	781a      	ldrb	r2, [r3, #0]
    9968:	2a00      	cmp	r2, #0
    996a:	d01a      	beq.n	99a2 <strlen+0x4e>
    996c:	3301      	adds	r3, #1
    996e:	420b      	tst	r3, r1
    9970:	d1f9      	bne.n	9966 <strlen+0x12>
    9972:	6819      	ldr	r1, [r3, #0]
    9974:	4a0e      	ldr	r2, [pc, #56]	; (99b0 <strlen+0x5c>)
    9976:	4c0f      	ldr	r4, [pc, #60]	; (99b4 <strlen+0x60>)
    9978:	188a      	adds	r2, r1, r2
    997a:	438a      	bics	r2, r1
    997c:	4222      	tst	r2, r4
    997e:	d106      	bne.n	998e <strlen+0x3a>
    9980:	3304      	adds	r3, #4
    9982:	6819      	ldr	r1, [r3, #0]
    9984:	4a0a      	ldr	r2, [pc, #40]	; (99b0 <strlen+0x5c>)
    9986:	188a      	adds	r2, r1, r2
    9988:	438a      	bics	r2, r1
    998a:	4222      	tst	r2, r4
    998c:	d0f8      	beq.n	9980 <strlen+0x2c>
    998e:	001a      	movs	r2, r3
    9990:	781b      	ldrb	r3, [r3, #0]
    9992:	2b00      	cmp	r3, #0
    9994:	d003      	beq.n	999e <strlen+0x4a>
    9996:	3201      	adds	r2, #1
    9998:	7811      	ldrb	r1, [r2, #0]
    999a:	2900      	cmp	r1, #0
    999c:	d1fb      	bne.n	9996 <strlen+0x42>
    999e:	1a10      	subs	r0, r2, r0
    99a0:	bd10      	pop	{r4, pc}
    99a2:	1a18      	subs	r0, r3, r0
    99a4:	e7fc      	b.n	99a0 <strlen+0x4c>
    99a6:	0003      	movs	r3, r0
    99a8:	e7e3      	b.n	9972 <strlen+0x1e>
    99aa:	2000      	movs	r0, #0
    99ac:	e7f8      	b.n	99a0 <strlen+0x4c>
    99ae:	46c0      	nop			; (mov r8, r8)
    99b0:	fefefeff 	.word	0xfefefeff
    99b4:	80808080 	.word	0x80808080

000099b8 <__ssprint_r>:
    99b8:	b5f0      	push	{r4, r5, r6, r7, lr}
    99ba:	4657      	mov	r7, sl
    99bc:	464e      	mov	r6, r9
    99be:	46de      	mov	lr, fp
    99c0:	4645      	mov	r5, r8
    99c2:	b5e0      	push	{r5, r6, r7, lr}
    99c4:	6893      	ldr	r3, [r2, #8]
    99c6:	b083      	sub	sp, #12
    99c8:	9001      	str	r0, [sp, #4]
    99ca:	000e      	movs	r6, r1
    99cc:	4692      	mov	sl, r2
    99ce:	2b00      	cmp	r3, #0
    99d0:	d070      	beq.n	9ab4 <__ssprint_r+0xfc>
    99d2:	688d      	ldr	r5, [r1, #8]
    99d4:	6813      	ldr	r3, [r2, #0]
    99d6:	002c      	movs	r4, r5
    99d8:	6808      	ldr	r0, [r1, #0]
    99da:	001d      	movs	r5, r3
    99dc:	e046      	b.n	9a6c <__ssprint_r+0xb4>
    99de:	2290      	movs	r2, #144	; 0x90
    99e0:	89b3      	ldrh	r3, [r6, #12]
    99e2:	00d2      	lsls	r2, r2, #3
    99e4:	4213      	tst	r3, r2
    99e6:	d030      	beq.n	9a4a <__ssprint_r+0x92>
    99e8:	6931      	ldr	r1, [r6, #16]
    99ea:	1a42      	subs	r2, r0, r1
    99ec:	4693      	mov	fp, r2
    99ee:	6970      	ldr	r0, [r6, #20]
    99f0:	0042      	lsls	r2, r0, #1
    99f2:	1812      	adds	r2, r2, r0
    99f4:	0fd0      	lsrs	r0, r2, #31
    99f6:	1882      	adds	r2, r0, r2
    99f8:	1052      	asrs	r2, r2, #1
    99fa:	4690      	mov	r8, r2
    99fc:	465a      	mov	r2, fp
    99fe:	1c50      	adds	r0, r2, #1
    9a00:	19c0      	adds	r0, r0, r7
    9a02:	4642      	mov	r2, r8
    9a04:	4540      	cmp	r0, r8
    9a06:	d901      	bls.n	9a0c <__ssprint_r+0x54>
    9a08:	4680      	mov	r8, r0
    9a0a:	0002      	movs	r2, r0
    9a0c:	2080      	movs	r0, #128	; 0x80
    9a0e:	00c0      	lsls	r0, r0, #3
    9a10:	4203      	tst	r3, r0
    9a12:	d038      	beq.n	9a86 <__ssprint_r+0xce>
    9a14:	0011      	movs	r1, r2
    9a16:	9801      	ldr	r0, [sp, #4]
    9a18:	f7ff f93e 	bl	8c98 <_malloc_r>
    9a1c:	1e04      	subs	r4, r0, #0
    9a1e:	d054      	beq.n	9aca <__ssprint_r+0x112>
    9a20:	465a      	mov	r2, fp
    9a22:	6931      	ldr	r1, [r6, #16]
    9a24:	f7fc fbaa 	bl	617c <memcpy>
    9a28:	89b3      	ldrh	r3, [r6, #12]
    9a2a:	4a2a      	ldr	r2, [pc, #168]	; (9ad4 <__ssprint_r+0x11c>)
    9a2c:	4013      	ands	r3, r2
    9a2e:	2280      	movs	r2, #128	; 0x80
    9a30:	4313      	orrs	r3, r2
    9a32:	81b3      	strh	r3, [r6, #12]
    9a34:	4643      	mov	r3, r8
    9a36:	0020      	movs	r0, r4
    9a38:	465a      	mov	r2, fp
    9a3a:	6134      	str	r4, [r6, #16]
    9a3c:	46b8      	mov	r8, r7
    9a3e:	003c      	movs	r4, r7
    9a40:	4458      	add	r0, fp
    9a42:	6173      	str	r3, [r6, #20]
    9a44:	1a9b      	subs	r3, r3, r2
    9a46:	6030      	str	r0, [r6, #0]
    9a48:	60b3      	str	r3, [r6, #8]
    9a4a:	4642      	mov	r2, r8
    9a4c:	4649      	mov	r1, r9
    9a4e:	f000 f8ff 	bl	9c50 <memmove>
    9a52:	68b3      	ldr	r3, [r6, #8]
    9a54:	1b1c      	subs	r4, r3, r4
    9a56:	6833      	ldr	r3, [r6, #0]
    9a58:	60b4      	str	r4, [r6, #8]
    9a5a:	4443      	add	r3, r8
    9a5c:	6033      	str	r3, [r6, #0]
    9a5e:	0018      	movs	r0, r3
    9a60:	4653      	mov	r3, sl
    9a62:	689b      	ldr	r3, [r3, #8]
    9a64:	1bdf      	subs	r7, r3, r7
    9a66:	4653      	mov	r3, sl
    9a68:	609f      	str	r7, [r3, #8]
    9a6a:	d023      	beq.n	9ab4 <__ssprint_r+0xfc>
    9a6c:	686f      	ldr	r7, [r5, #4]
    9a6e:	002b      	movs	r3, r5
    9a70:	3508      	adds	r5, #8
    9a72:	2f00      	cmp	r7, #0
    9a74:	d0fa      	beq.n	9a6c <__ssprint_r+0xb4>
    9a76:	681b      	ldr	r3, [r3, #0]
    9a78:	46a0      	mov	r8, r4
    9a7a:	4699      	mov	r9, r3
    9a7c:	42a7      	cmp	r7, r4
    9a7e:	d2ae      	bcs.n	99de <__ssprint_r+0x26>
    9a80:	003c      	movs	r4, r7
    9a82:	46b8      	mov	r8, r7
    9a84:	e7e1      	b.n	9a4a <__ssprint_r+0x92>
    9a86:	9801      	ldr	r0, [sp, #4]
    9a88:	f000 f932 	bl	9cf0 <_realloc_r>
    9a8c:	1e04      	subs	r4, r0, #0
    9a8e:	d1d1      	bne.n	9a34 <__ssprint_r+0x7c>
    9a90:	9c01      	ldr	r4, [sp, #4]
    9a92:	6931      	ldr	r1, [r6, #16]
    9a94:	0020      	movs	r0, r4
    9a96:	f7ff f80f 	bl	8ab8 <_free_r>
    9a9a:	230c      	movs	r3, #12
    9a9c:	6023      	str	r3, [r4, #0]
    9a9e:	2240      	movs	r2, #64	; 0x40
    9aa0:	89b3      	ldrh	r3, [r6, #12]
    9aa2:	2001      	movs	r0, #1
    9aa4:	4313      	orrs	r3, r2
    9aa6:	81b3      	strh	r3, [r6, #12]
    9aa8:	4652      	mov	r2, sl
    9aaa:	2300      	movs	r3, #0
    9aac:	4240      	negs	r0, r0
    9aae:	6093      	str	r3, [r2, #8]
    9ab0:	6053      	str	r3, [r2, #4]
    9ab2:	e003      	b.n	9abc <__ssprint_r+0x104>
    9ab4:	2300      	movs	r3, #0
    9ab6:	4652      	mov	r2, sl
    9ab8:	2000      	movs	r0, #0
    9aba:	6053      	str	r3, [r2, #4]
    9abc:	b003      	add	sp, #12
    9abe:	bc3c      	pop	{r2, r3, r4, r5}
    9ac0:	4690      	mov	r8, r2
    9ac2:	4699      	mov	r9, r3
    9ac4:	46a2      	mov	sl, r4
    9ac6:	46ab      	mov	fp, r5
    9ac8:	bdf0      	pop	{r4, r5, r6, r7, pc}
    9aca:	230c      	movs	r3, #12
    9acc:	9a01      	ldr	r2, [sp, #4]
    9ace:	6013      	str	r3, [r2, #0]
    9ad0:	e7e5      	b.n	9a9e <__ssprint_r+0xe6>
    9ad2:	46c0      	nop			; (mov r8, r8)
    9ad4:	fffffb7f 	.word	0xfffffb7f

00009ad8 <__register_exitproc>:
    9ad8:	b5f0      	push	{r4, r5, r6, r7, lr}
    9ada:	464e      	mov	r6, r9
    9adc:	4645      	mov	r5, r8
    9ade:	46de      	mov	lr, fp
    9ae0:	4657      	mov	r7, sl
    9ae2:	b5e0      	push	{r5, r6, r7, lr}
    9ae4:	4d36      	ldr	r5, [pc, #216]	; (9bc0 <__register_exitproc+0xe8>)
    9ae6:	b083      	sub	sp, #12
    9ae8:	0006      	movs	r6, r0
    9aea:	6828      	ldr	r0, [r5, #0]
    9aec:	4698      	mov	r8, r3
    9aee:	000f      	movs	r7, r1
    9af0:	4691      	mov	r9, r2
    9af2:	f7ff f8cd 	bl	8c90 <__retarget_lock_acquire_recursive>
    9af6:	4b33      	ldr	r3, [pc, #204]	; (9bc4 <__register_exitproc+0xec>)
    9af8:	681c      	ldr	r4, [r3, #0]
    9afa:	23a4      	movs	r3, #164	; 0xa4
    9afc:	005b      	lsls	r3, r3, #1
    9afe:	58e0      	ldr	r0, [r4, r3]
    9b00:	2800      	cmp	r0, #0
    9b02:	d052      	beq.n	9baa <__register_exitproc+0xd2>
    9b04:	6843      	ldr	r3, [r0, #4]
    9b06:	2b1f      	cmp	r3, #31
    9b08:	dc13      	bgt.n	9b32 <__register_exitproc+0x5a>
    9b0a:	1c5a      	adds	r2, r3, #1
    9b0c:	9201      	str	r2, [sp, #4]
    9b0e:	2e00      	cmp	r6, #0
    9b10:	d128      	bne.n	9b64 <__register_exitproc+0x8c>
    9b12:	9a01      	ldr	r2, [sp, #4]
    9b14:	3302      	adds	r3, #2
    9b16:	009b      	lsls	r3, r3, #2
    9b18:	6042      	str	r2, [r0, #4]
    9b1a:	501f      	str	r7, [r3, r0]
    9b1c:	6828      	ldr	r0, [r5, #0]
    9b1e:	f7ff f8b9 	bl	8c94 <__retarget_lock_release_recursive>
    9b22:	2000      	movs	r0, #0
    9b24:	b003      	add	sp, #12
    9b26:	bc3c      	pop	{r2, r3, r4, r5}
    9b28:	4690      	mov	r8, r2
    9b2a:	4699      	mov	r9, r3
    9b2c:	46a2      	mov	sl, r4
    9b2e:	46ab      	mov	fp, r5
    9b30:	bdf0      	pop	{r4, r5, r6, r7, pc}
    9b32:	4b25      	ldr	r3, [pc, #148]	; (9bc8 <__register_exitproc+0xf0>)
    9b34:	2b00      	cmp	r3, #0
    9b36:	d03d      	beq.n	9bb4 <__register_exitproc+0xdc>
    9b38:	20c8      	movs	r0, #200	; 0xc8
    9b3a:	0040      	lsls	r0, r0, #1
    9b3c:	e000      	b.n	9b40 <__register_exitproc+0x68>
    9b3e:	bf00      	nop
    9b40:	2800      	cmp	r0, #0
    9b42:	d037      	beq.n	9bb4 <__register_exitproc+0xdc>
    9b44:	22a4      	movs	r2, #164	; 0xa4
    9b46:	2300      	movs	r3, #0
    9b48:	0052      	lsls	r2, r2, #1
    9b4a:	58a1      	ldr	r1, [r4, r2]
    9b4c:	6043      	str	r3, [r0, #4]
    9b4e:	6001      	str	r1, [r0, #0]
    9b50:	50a0      	str	r0, [r4, r2]
    9b52:	3240      	adds	r2, #64	; 0x40
    9b54:	5083      	str	r3, [r0, r2]
    9b56:	3204      	adds	r2, #4
    9b58:	5083      	str	r3, [r0, r2]
    9b5a:	3301      	adds	r3, #1
    9b5c:	9301      	str	r3, [sp, #4]
    9b5e:	2300      	movs	r3, #0
    9b60:	2e00      	cmp	r6, #0
    9b62:	d0d6      	beq.n	9b12 <__register_exitproc+0x3a>
    9b64:	009a      	lsls	r2, r3, #2
    9b66:	4692      	mov	sl, r2
    9b68:	4482      	add	sl, r0
    9b6a:	464a      	mov	r2, r9
    9b6c:	2188      	movs	r1, #136	; 0x88
    9b6e:	4654      	mov	r4, sl
    9b70:	5062      	str	r2, [r4, r1]
    9b72:	22c4      	movs	r2, #196	; 0xc4
    9b74:	0052      	lsls	r2, r2, #1
    9b76:	4691      	mov	r9, r2
    9b78:	4481      	add	r9, r0
    9b7a:	464a      	mov	r2, r9
    9b7c:	3987      	subs	r1, #135	; 0x87
    9b7e:	4099      	lsls	r1, r3
    9b80:	6812      	ldr	r2, [r2, #0]
    9b82:	468b      	mov	fp, r1
    9b84:	430a      	orrs	r2, r1
    9b86:	4694      	mov	ip, r2
    9b88:	464a      	mov	r2, r9
    9b8a:	4661      	mov	r1, ip
    9b8c:	6011      	str	r1, [r2, #0]
    9b8e:	2284      	movs	r2, #132	; 0x84
    9b90:	4641      	mov	r1, r8
    9b92:	0052      	lsls	r2, r2, #1
    9b94:	50a1      	str	r1, [r4, r2]
    9b96:	2e02      	cmp	r6, #2
    9b98:	d1bb      	bne.n	9b12 <__register_exitproc+0x3a>
    9b9a:	0002      	movs	r2, r0
    9b9c:	465c      	mov	r4, fp
    9b9e:	328d      	adds	r2, #141	; 0x8d
    9ba0:	32ff      	adds	r2, #255	; 0xff
    9ba2:	6811      	ldr	r1, [r2, #0]
    9ba4:	430c      	orrs	r4, r1
    9ba6:	6014      	str	r4, [r2, #0]
    9ba8:	e7b3      	b.n	9b12 <__register_exitproc+0x3a>
    9baa:	0020      	movs	r0, r4
    9bac:	304d      	adds	r0, #77	; 0x4d
    9bae:	30ff      	adds	r0, #255	; 0xff
    9bb0:	50e0      	str	r0, [r4, r3]
    9bb2:	e7a7      	b.n	9b04 <__register_exitproc+0x2c>
    9bb4:	6828      	ldr	r0, [r5, #0]
    9bb6:	f7ff f86d 	bl	8c94 <__retarget_lock_release_recursive>
    9bba:	2001      	movs	r0, #1
    9bbc:	4240      	negs	r0, r0
    9bbe:	e7b1      	b.n	9b24 <__register_exitproc+0x4c>
    9bc0:	20000448 	.word	0x20000448
    9bc4:	0000b280 	.word	0x0000b280
    9bc8:	00000000 	.word	0x00000000

00009bcc <_calloc_r>:
    9bcc:	b510      	push	{r4, lr}
    9bce:	4351      	muls	r1, r2
    9bd0:	f7ff f862 	bl	8c98 <_malloc_r>
    9bd4:	1e04      	subs	r4, r0, #0
    9bd6:	d01c      	beq.n	9c12 <_calloc_r+0x46>
    9bd8:	0003      	movs	r3, r0
    9bda:	3b08      	subs	r3, #8
    9bdc:	685a      	ldr	r2, [r3, #4]
    9bde:	2303      	movs	r3, #3
    9be0:	439a      	bics	r2, r3
    9be2:	3a04      	subs	r2, #4
    9be4:	2a24      	cmp	r2, #36	; 0x24
    9be6:	d816      	bhi.n	9c16 <_calloc_r+0x4a>
    9be8:	0003      	movs	r3, r0
    9bea:	2a13      	cmp	r2, #19
    9bec:	d90d      	bls.n	9c0a <_calloc_r+0x3e>
    9bee:	2100      	movs	r1, #0
    9bf0:	3308      	adds	r3, #8
    9bf2:	6001      	str	r1, [r0, #0]
    9bf4:	6041      	str	r1, [r0, #4]
    9bf6:	2a1b      	cmp	r2, #27
    9bf8:	d907      	bls.n	9c0a <_calloc_r+0x3e>
    9bfa:	6081      	str	r1, [r0, #8]
    9bfc:	60c1      	str	r1, [r0, #12]
    9bfe:	2a24      	cmp	r2, #36	; 0x24
    9c00:	d10d      	bne.n	9c1e <_calloc_r+0x52>
    9c02:	0003      	movs	r3, r0
    9c04:	6101      	str	r1, [r0, #16]
    9c06:	3318      	adds	r3, #24
    9c08:	6141      	str	r1, [r0, #20]
    9c0a:	2200      	movs	r2, #0
    9c0c:	601a      	str	r2, [r3, #0]
    9c0e:	605a      	str	r2, [r3, #4]
    9c10:	609a      	str	r2, [r3, #8]
    9c12:	0020      	movs	r0, r4
    9c14:	bd10      	pop	{r4, pc}
    9c16:	2100      	movs	r1, #0
    9c18:	f7fc faf2 	bl	6200 <memset>
    9c1c:	e7f9      	b.n	9c12 <_calloc_r+0x46>
    9c1e:	0003      	movs	r3, r0
    9c20:	3310      	adds	r3, #16
    9c22:	e7f2      	b.n	9c0a <_calloc_r+0x3e>

00009c24 <__ascii_mbtowc>:
    9c24:	b082      	sub	sp, #8
    9c26:	2900      	cmp	r1, #0
    9c28:	d00a      	beq.n	9c40 <__ascii_mbtowc+0x1c>
    9c2a:	2a00      	cmp	r2, #0
    9c2c:	d00b      	beq.n	9c46 <__ascii_mbtowc+0x22>
    9c2e:	2b00      	cmp	r3, #0
    9c30:	d00b      	beq.n	9c4a <__ascii_mbtowc+0x26>
    9c32:	7813      	ldrb	r3, [r2, #0]
    9c34:	600b      	str	r3, [r1, #0]
    9c36:	7810      	ldrb	r0, [r2, #0]
    9c38:	1e43      	subs	r3, r0, #1
    9c3a:	4198      	sbcs	r0, r3
    9c3c:	b002      	add	sp, #8
    9c3e:	4770      	bx	lr
    9c40:	a901      	add	r1, sp, #4
    9c42:	2a00      	cmp	r2, #0
    9c44:	d1f3      	bne.n	9c2e <__ascii_mbtowc+0xa>
    9c46:	2000      	movs	r0, #0
    9c48:	e7f8      	b.n	9c3c <__ascii_mbtowc+0x18>
    9c4a:	2002      	movs	r0, #2
    9c4c:	4240      	negs	r0, r0
    9c4e:	e7f5      	b.n	9c3c <__ascii_mbtowc+0x18>

00009c50 <memmove>:
    9c50:	b5f0      	push	{r4, r5, r6, r7, lr}
    9c52:	4288      	cmp	r0, r1
    9c54:	d90a      	bls.n	9c6c <memmove+0x1c>
    9c56:	188b      	adds	r3, r1, r2
    9c58:	4298      	cmp	r0, r3
    9c5a:	d207      	bcs.n	9c6c <memmove+0x1c>
    9c5c:	1e53      	subs	r3, r2, #1
    9c5e:	2a00      	cmp	r2, #0
    9c60:	d003      	beq.n	9c6a <memmove+0x1a>
    9c62:	5cca      	ldrb	r2, [r1, r3]
    9c64:	54c2      	strb	r2, [r0, r3]
    9c66:	3b01      	subs	r3, #1
    9c68:	d2fb      	bcs.n	9c62 <memmove+0x12>
    9c6a:	bdf0      	pop	{r4, r5, r6, r7, pc}
    9c6c:	0005      	movs	r5, r0
    9c6e:	2a0f      	cmp	r2, #15
    9c70:	d808      	bhi.n	9c84 <memmove+0x34>
    9c72:	2a00      	cmp	r2, #0
    9c74:	d0f9      	beq.n	9c6a <memmove+0x1a>
    9c76:	2300      	movs	r3, #0
    9c78:	5ccc      	ldrb	r4, [r1, r3]
    9c7a:	54ec      	strb	r4, [r5, r3]
    9c7c:	3301      	adds	r3, #1
    9c7e:	4293      	cmp	r3, r2
    9c80:	d1fa      	bne.n	9c78 <memmove+0x28>
    9c82:	e7f2      	b.n	9c6a <memmove+0x1a>
    9c84:	000b      	movs	r3, r1
    9c86:	4303      	orrs	r3, r0
    9c88:	079b      	lsls	r3, r3, #30
    9c8a:	d12d      	bne.n	9ce8 <memmove+0x98>
    9c8c:	0015      	movs	r5, r2
    9c8e:	000c      	movs	r4, r1
    9c90:	0003      	movs	r3, r0
    9c92:	3d10      	subs	r5, #16
    9c94:	092f      	lsrs	r7, r5, #4
    9c96:	3701      	adds	r7, #1
    9c98:	013f      	lsls	r7, r7, #4
    9c9a:	19c7      	adds	r7, r0, r7
    9c9c:	6826      	ldr	r6, [r4, #0]
    9c9e:	601e      	str	r6, [r3, #0]
    9ca0:	6866      	ldr	r6, [r4, #4]
    9ca2:	605e      	str	r6, [r3, #4]
    9ca4:	68a6      	ldr	r6, [r4, #8]
    9ca6:	609e      	str	r6, [r3, #8]
    9ca8:	68e6      	ldr	r6, [r4, #12]
    9caa:	3410      	adds	r4, #16
    9cac:	60de      	str	r6, [r3, #12]
    9cae:	3310      	adds	r3, #16
    9cb0:	429f      	cmp	r7, r3
    9cb2:	d1f3      	bne.n	9c9c <memmove+0x4c>
    9cb4:	240f      	movs	r4, #15
    9cb6:	43a5      	bics	r5, r4
    9cb8:	3510      	adds	r5, #16
    9cba:	1949      	adds	r1, r1, r5
    9cbc:	4014      	ands	r4, r2
    9cbe:	1945      	adds	r5, r0, r5
    9cc0:	2c03      	cmp	r4, #3
    9cc2:	d913      	bls.n	9cec <memmove+0x9c>
    9cc4:	2300      	movs	r3, #0
    9cc6:	1f27      	subs	r7, r4, #4
    9cc8:	08be      	lsrs	r6, r7, #2
    9cca:	3601      	adds	r6, #1
    9ccc:	00b6      	lsls	r6, r6, #2
    9cce:	58cc      	ldr	r4, [r1, r3]
    9cd0:	50ec      	str	r4, [r5, r3]
    9cd2:	3304      	adds	r3, #4
    9cd4:	42b3      	cmp	r3, r6
    9cd6:	d1fa      	bne.n	9cce <memmove+0x7e>
    9cd8:	2603      	movs	r6, #3
    9cda:	43b7      	bics	r7, r6
    9cdc:	1d3c      	adds	r4, r7, #4
    9cde:	1909      	adds	r1, r1, r4
    9ce0:	192d      	adds	r5, r5, r4
    9ce2:	4032      	ands	r2, r6
    9ce4:	d1c7      	bne.n	9c76 <memmove+0x26>
    9ce6:	e7c0      	b.n	9c6a <memmove+0x1a>
    9ce8:	0005      	movs	r5, r0
    9cea:	e7c4      	b.n	9c76 <memmove+0x26>
    9cec:	0022      	movs	r2, r4
    9cee:	e7c0      	b.n	9c72 <memmove+0x22>

00009cf0 <_realloc_r>:
    9cf0:	b5f0      	push	{r4, r5, r6, r7, lr}
    9cf2:	464e      	mov	r6, r9
    9cf4:	4645      	mov	r5, r8
    9cf6:	46de      	mov	lr, fp
    9cf8:	4657      	mov	r7, sl
    9cfa:	b5e0      	push	{r5, r6, r7, lr}
    9cfc:	b085      	sub	sp, #20
    9cfe:	9001      	str	r0, [sp, #4]
    9d00:	000e      	movs	r6, r1
    9d02:	0015      	movs	r5, r2
    9d04:	2900      	cmp	r1, #0
    9d06:	d100      	bne.n	9d0a <_realloc_r+0x1a>
    9d08:	e09e      	b.n	9e48 <_realloc_r+0x158>
    9d0a:	0037      	movs	r7, r6
    9d0c:	9801      	ldr	r0, [sp, #4]
    9d0e:	3f08      	subs	r7, #8
    9d10:	f7ff fab6 	bl	9280 <__malloc_lock>
    9d14:	687a      	ldr	r2, [r7, #4]
    9d16:	2303      	movs	r3, #3
    9d18:	0014      	movs	r4, r2
    9d1a:	439c      	bics	r4, r3
    9d1c:	002b      	movs	r3, r5
    9d1e:	330b      	adds	r3, #11
    9d20:	46b9      	mov	r9, r7
    9d22:	2b16      	cmp	r3, #22
    9d24:	d847      	bhi.n	9db6 <_realloc_r+0xc6>
    9d26:	2110      	movs	r1, #16
    9d28:	2310      	movs	r3, #16
    9d2a:	4688      	mov	r8, r1
    9d2c:	4545      	cmp	r5, r8
    9d2e:	d846      	bhi.n	9dbe <_realloc_r+0xce>
    9d30:	429c      	cmp	r4, r3
    9d32:	da49      	bge.n	9dc8 <_realloc_r+0xd8>
    9d34:	49cc      	ldr	r1, [pc, #816]	; (a068 <_realloc_r+0x378>)
    9d36:	1938      	adds	r0, r7, r4
    9d38:	468b      	mov	fp, r1
    9d3a:	6889      	ldr	r1, [r1, #8]
    9d3c:	9002      	str	r0, [sp, #8]
    9d3e:	4288      	cmp	r0, r1
    9d40:	d100      	bne.n	9d44 <_realloc_r+0x54>
    9d42:	e0c2      	b.n	9eca <_realloc_r+0x1da>
    9d44:	2101      	movs	r1, #1
    9d46:	468a      	mov	sl, r1
    9d48:	6840      	ldr	r0, [r0, #4]
    9d4a:	0001      	movs	r1, r0
    9d4c:	9003      	str	r0, [sp, #12]
    9d4e:	4650      	mov	r0, sl
    9d50:	4381      	bics	r1, r0
    9d52:	468c      	mov	ip, r1
    9d54:	9902      	ldr	r1, [sp, #8]
    9d56:	468b      	mov	fp, r1
    9d58:	44dc      	add	ip, fp
    9d5a:	4661      	mov	r1, ip
    9d5c:	6849      	ldr	r1, [r1, #4]
    9d5e:	4201      	tst	r1, r0
    9d60:	d04d      	beq.n	9dfe <_realloc_r+0x10e>
    9d62:	4210      	tst	r0, r2
    9d64:	d100      	bne.n	9d68 <_realloc_r+0x78>
    9d66:	e0a2      	b.n	9eae <_realloc_r+0x1be>
    9d68:	0029      	movs	r1, r5
    9d6a:	9801      	ldr	r0, [sp, #4]
    9d6c:	f7fe ff94 	bl	8c98 <_malloc_r>
    9d70:	1e05      	subs	r5, r0, #0
    9d72:	d039      	beq.n	9de8 <_realloc_r+0xf8>
    9d74:	2301      	movs	r3, #1
    9d76:	0002      	movs	r2, r0
    9d78:	6879      	ldr	r1, [r7, #4]
    9d7a:	3a08      	subs	r2, #8
    9d7c:	4399      	bics	r1, r3
    9d7e:	187f      	adds	r7, r7, r1
    9d80:	42ba      	cmp	r2, r7
    9d82:	d100      	bne.n	9d86 <_realloc_r+0x96>
    9d84:	e12e      	b.n	9fe4 <_realloc_r+0x2f4>
    9d86:	1f22      	subs	r2, r4, #4
    9d88:	2a24      	cmp	r2, #36	; 0x24
    9d8a:	d900      	bls.n	9d8e <_realloc_r+0x9e>
    9d8c:	e114      	b.n	9fb8 <_realloc_r+0x2c8>
    9d8e:	2a13      	cmp	r2, #19
    9d90:	d900      	bls.n	9d94 <_realloc_r+0xa4>
    9d92:	e0e8      	b.n	9f66 <_realloc_r+0x276>
    9d94:	0003      	movs	r3, r0
    9d96:	0032      	movs	r2, r6
    9d98:	6811      	ldr	r1, [r2, #0]
    9d9a:	6019      	str	r1, [r3, #0]
    9d9c:	6851      	ldr	r1, [r2, #4]
    9d9e:	6059      	str	r1, [r3, #4]
    9da0:	6892      	ldr	r2, [r2, #8]
    9da2:	609a      	str	r2, [r3, #8]
    9da4:	9c01      	ldr	r4, [sp, #4]
    9da6:	0031      	movs	r1, r6
    9da8:	0020      	movs	r0, r4
    9daa:	f7fe fe85 	bl	8ab8 <_free_r>
    9dae:	0020      	movs	r0, r4
    9db0:	f7ff fa6e 	bl	9290 <__malloc_unlock>
    9db4:	e01b      	b.n	9dee <_realloc_r+0xfe>
    9db6:	2107      	movs	r1, #7
    9db8:	438b      	bics	r3, r1
    9dba:	4698      	mov	r8, r3
    9dbc:	d5b6      	bpl.n	9d2c <_realloc_r+0x3c>
    9dbe:	230c      	movs	r3, #12
    9dc0:	9a01      	ldr	r2, [sp, #4]
    9dc2:	2500      	movs	r5, #0
    9dc4:	6013      	str	r3, [r2, #0]
    9dc6:	e012      	b.n	9dee <_realloc_r+0xfe>
    9dc8:	0035      	movs	r5, r6
    9dca:	4643      	mov	r3, r8
    9dcc:	1ae3      	subs	r3, r4, r3
    9dce:	2b0f      	cmp	r3, #15
    9dd0:	d825      	bhi.n	9e1e <_realloc_r+0x12e>
    9dd2:	464b      	mov	r3, r9
    9dd4:	2201      	movs	r2, #1
    9dd6:	4649      	mov	r1, r9
    9dd8:	685b      	ldr	r3, [r3, #4]
    9dda:	4013      	ands	r3, r2
    9ddc:	4323      	orrs	r3, r4
    9dde:	604b      	str	r3, [r1, #4]
    9de0:	444c      	add	r4, r9
    9de2:	6863      	ldr	r3, [r4, #4]
    9de4:	431a      	orrs	r2, r3
    9de6:	6062      	str	r2, [r4, #4]
    9de8:	9801      	ldr	r0, [sp, #4]
    9dea:	f7ff fa51 	bl	9290 <__malloc_unlock>
    9dee:	0028      	movs	r0, r5
    9df0:	b005      	add	sp, #20
    9df2:	bc3c      	pop	{r2, r3, r4, r5}
    9df4:	4690      	mov	r8, r2
    9df6:	4699      	mov	r9, r3
    9df8:	46a2      	mov	sl, r4
    9dfa:	46ab      	mov	fp, r5
    9dfc:	bdf0      	pop	{r4, r5, r6, r7, pc}
    9dfe:	2103      	movs	r1, #3
    9e00:	9803      	ldr	r0, [sp, #12]
    9e02:	468c      	mov	ip, r1
    9e04:	4388      	bics	r0, r1
    9e06:	1821      	adds	r1, r4, r0
    9e08:	468b      	mov	fp, r1
    9e0a:	4299      	cmp	r1, r3
    9e0c:	db21      	blt.n	9e52 <_realloc_r+0x162>
    9e0e:	9a02      	ldr	r2, [sp, #8]
    9e10:	0035      	movs	r5, r6
    9e12:	68d3      	ldr	r3, [r2, #12]
    9e14:	6892      	ldr	r2, [r2, #8]
    9e16:	465c      	mov	r4, fp
    9e18:	60d3      	str	r3, [r2, #12]
    9e1a:	609a      	str	r2, [r3, #8]
    9e1c:	e7d5      	b.n	9dca <_realloc_r+0xda>
    9e1e:	464a      	mov	r2, r9
    9e20:	2001      	movs	r0, #1
    9e22:	4646      	mov	r6, r8
    9e24:	6852      	ldr	r2, [r2, #4]
    9e26:	4649      	mov	r1, r9
    9e28:	4002      	ands	r2, r0
    9e2a:	4332      	orrs	r2, r6
    9e2c:	464e      	mov	r6, r9
    9e2e:	4441      	add	r1, r8
    9e30:	4303      	orrs	r3, r0
    9e32:	6072      	str	r2, [r6, #4]
    9e34:	444c      	add	r4, r9
    9e36:	604b      	str	r3, [r1, #4]
    9e38:	6863      	ldr	r3, [r4, #4]
    9e3a:	3108      	adds	r1, #8
    9e3c:	4318      	orrs	r0, r3
    9e3e:	6060      	str	r0, [r4, #4]
    9e40:	9801      	ldr	r0, [sp, #4]
    9e42:	f7fe fe39 	bl	8ab8 <_free_r>
    9e46:	e7cf      	b.n	9de8 <_realloc_r+0xf8>
    9e48:	0011      	movs	r1, r2
    9e4a:	f7fe ff25 	bl	8c98 <_malloc_r>
    9e4e:	0005      	movs	r5, r0
    9e50:	e7cd      	b.n	9dee <_realloc_r+0xfe>
    9e52:	4651      	mov	r1, sl
    9e54:	4211      	tst	r1, r2
    9e56:	d000      	beq.n	9e5a <_realloc_r+0x16a>
    9e58:	e786      	b.n	9d68 <_realloc_r+0x78>
    9e5a:	4661      	mov	r1, ip
    9e5c:	683a      	ldr	r2, [r7, #0]
    9e5e:	1aba      	subs	r2, r7, r2
    9e60:	4692      	mov	sl, r2
    9e62:	6852      	ldr	r2, [r2, #4]
    9e64:	438a      	bics	r2, r1
    9e66:	1880      	adds	r0, r0, r2
    9e68:	4683      	mov	fp, r0
    9e6a:	44a3      	add	fp, r4
    9e6c:	459b      	cmp	fp, r3
    9e6e:	db26      	blt.n	9ebe <_realloc_r+0x1ce>
    9e70:	9a02      	ldr	r2, [sp, #8]
    9e72:	68d3      	ldr	r3, [r2, #12]
    9e74:	6892      	ldr	r2, [r2, #8]
    9e76:	60d3      	str	r3, [r2, #12]
    9e78:	609a      	str	r2, [r3, #8]
    9e7a:	4653      	mov	r3, sl
    9e7c:	4652      	mov	r2, sl
    9e7e:	4655      	mov	r5, sl
    9e80:	6892      	ldr	r2, [r2, #8]
    9e82:	68db      	ldr	r3, [r3, #12]
    9e84:	3508      	adds	r5, #8
    9e86:	60d3      	str	r3, [r2, #12]
    9e88:	609a      	str	r2, [r3, #8]
    9e8a:	1f22      	subs	r2, r4, #4
    9e8c:	2a24      	cmp	r2, #36	; 0x24
    9e8e:	d900      	bls.n	9e92 <_realloc_r+0x1a2>
    9e90:	e096      	b.n	9fc0 <_realloc_r+0x2d0>
    9e92:	2a13      	cmp	r2, #19
    9e94:	d972      	bls.n	9f7c <_realloc_r+0x28c>
    9e96:	4653      	mov	r3, sl
    9e98:	6831      	ldr	r1, [r6, #0]
    9e9a:	6099      	str	r1, [r3, #8]
    9e9c:	6871      	ldr	r1, [r6, #4]
    9e9e:	60d9      	str	r1, [r3, #12]
    9ea0:	2a1b      	cmp	r2, #27
    9ea2:	d900      	bls.n	9ea6 <_realloc_r+0x1b6>
    9ea4:	e0a4      	b.n	9ff0 <_realloc_r+0x300>
    9ea6:	0032      	movs	r2, r6
    9ea8:	3310      	adds	r3, #16
    9eaa:	3208      	adds	r2, #8
    9eac:	e068      	b.n	9f80 <_realloc_r+0x290>
    9eae:	683a      	ldr	r2, [r7, #0]
    9eb0:	1aba      	subs	r2, r7, r2
    9eb2:	4692      	mov	sl, r2
    9eb4:	4651      	mov	r1, sl
    9eb6:	2203      	movs	r2, #3
    9eb8:	6849      	ldr	r1, [r1, #4]
    9eba:	4391      	bics	r1, r2
    9ebc:	000a      	movs	r2, r1
    9ebe:	4693      	mov	fp, r2
    9ec0:	44a3      	add	fp, r4
    9ec2:	459b      	cmp	fp, r3
    9ec4:	da00      	bge.n	9ec8 <_realloc_r+0x1d8>
    9ec6:	e74f      	b.n	9d68 <_realloc_r+0x78>
    9ec8:	e7d7      	b.n	9e7a <_realloc_r+0x18a>
    9eca:	2003      	movs	r0, #3
    9ecc:	9902      	ldr	r1, [sp, #8]
    9ece:	4684      	mov	ip, r0
    9ed0:	6849      	ldr	r1, [r1, #4]
    9ed2:	4381      	bics	r1, r0
    9ed4:	4640      	mov	r0, r8
    9ed6:	1909      	adds	r1, r1, r4
    9ed8:	3010      	adds	r0, #16
    9eda:	9002      	str	r0, [sp, #8]
    9edc:	4281      	cmp	r1, r0
    9ede:	da58      	bge.n	9f92 <_realloc_r+0x2a2>
    9ee0:	07d2      	lsls	r2, r2, #31
    9ee2:	d500      	bpl.n	9ee6 <_realloc_r+0x1f6>
    9ee4:	e740      	b.n	9d68 <_realloc_r+0x78>
    9ee6:	4660      	mov	r0, ip
    9ee8:	683a      	ldr	r2, [r7, #0]
    9eea:	1aba      	subs	r2, r7, r2
    9eec:	4692      	mov	sl, r2
    9eee:	6852      	ldr	r2, [r2, #4]
    9ef0:	4382      	bics	r2, r0
    9ef2:	9802      	ldr	r0, [sp, #8]
    9ef4:	1851      	adds	r1, r2, r1
    9ef6:	9103      	str	r1, [sp, #12]
    9ef8:	4288      	cmp	r0, r1
    9efa:	dce0      	bgt.n	9ebe <_realloc_r+0x1ce>
    9efc:	4653      	mov	r3, sl
    9efe:	4652      	mov	r2, sl
    9f00:	4655      	mov	r5, sl
    9f02:	6892      	ldr	r2, [r2, #8]
    9f04:	68db      	ldr	r3, [r3, #12]
    9f06:	3508      	adds	r5, #8
    9f08:	60d3      	str	r3, [r2, #12]
    9f0a:	609a      	str	r2, [r3, #8]
    9f0c:	1f22      	subs	r2, r4, #4
    9f0e:	2a24      	cmp	r2, #36	; 0x24
    9f10:	d900      	bls.n	9f14 <_realloc_r+0x224>
    9f12:	e08e      	b.n	a032 <_realloc_r+0x342>
    9f14:	2a13      	cmp	r2, #19
    9f16:	d800      	bhi.n	9f1a <_realloc_r+0x22a>
    9f18:	e088      	b.n	a02c <_realloc_r+0x33c>
    9f1a:	4653      	mov	r3, sl
    9f1c:	6831      	ldr	r1, [r6, #0]
    9f1e:	6099      	str	r1, [r3, #8]
    9f20:	6871      	ldr	r1, [r6, #4]
    9f22:	60d9      	str	r1, [r3, #12]
    9f24:	2a1b      	cmp	r2, #27
    9f26:	d900      	bls.n	9f2a <_realloc_r+0x23a>
    9f28:	e088      	b.n	a03c <_realloc_r+0x34c>
    9f2a:	0032      	movs	r2, r6
    9f2c:	3310      	adds	r3, #16
    9f2e:	3208      	adds	r2, #8
    9f30:	6811      	ldr	r1, [r2, #0]
    9f32:	6019      	str	r1, [r3, #0]
    9f34:	6851      	ldr	r1, [r2, #4]
    9f36:	6059      	str	r1, [r3, #4]
    9f38:	6892      	ldr	r2, [r2, #8]
    9f3a:	609a      	str	r2, [r3, #8]
    9f3c:	4651      	mov	r1, sl
    9f3e:	465b      	mov	r3, fp
    9f40:	4642      	mov	r2, r8
    9f42:	4441      	add	r1, r8
    9f44:	6099      	str	r1, [r3, #8]
    9f46:	9b03      	ldr	r3, [sp, #12]
    9f48:	9801      	ldr	r0, [sp, #4]
    9f4a:	1a9a      	subs	r2, r3, r2
    9f4c:	2301      	movs	r3, #1
    9f4e:	431a      	orrs	r2, r3
    9f50:	604a      	str	r2, [r1, #4]
    9f52:	4652      	mov	r2, sl
    9f54:	6852      	ldr	r2, [r2, #4]
    9f56:	4013      	ands	r3, r2
    9f58:	4642      	mov	r2, r8
    9f5a:	4313      	orrs	r3, r2
    9f5c:	4652      	mov	r2, sl
    9f5e:	6053      	str	r3, [r2, #4]
    9f60:	f7ff f996 	bl	9290 <__malloc_unlock>
    9f64:	e743      	b.n	9dee <_realloc_r+0xfe>
    9f66:	6833      	ldr	r3, [r6, #0]
    9f68:	6003      	str	r3, [r0, #0]
    9f6a:	6873      	ldr	r3, [r6, #4]
    9f6c:	6043      	str	r3, [r0, #4]
    9f6e:	2a1b      	cmp	r2, #27
    9f70:	d82d      	bhi.n	9fce <_realloc_r+0x2de>
    9f72:	0003      	movs	r3, r0
    9f74:	0032      	movs	r2, r6
    9f76:	3308      	adds	r3, #8
    9f78:	3208      	adds	r2, #8
    9f7a:	e70d      	b.n	9d98 <_realloc_r+0xa8>
    9f7c:	002b      	movs	r3, r5
    9f7e:	0032      	movs	r2, r6
    9f80:	6811      	ldr	r1, [r2, #0]
    9f82:	465c      	mov	r4, fp
    9f84:	6019      	str	r1, [r3, #0]
    9f86:	6851      	ldr	r1, [r2, #4]
    9f88:	46d1      	mov	r9, sl
    9f8a:	6059      	str	r1, [r3, #4]
    9f8c:	6892      	ldr	r2, [r2, #8]
    9f8e:	609a      	str	r2, [r3, #8]
    9f90:	e71b      	b.n	9dca <_realloc_r+0xda>
    9f92:	4643      	mov	r3, r8
    9f94:	18fa      	adds	r2, r7, r3
    9f96:	465b      	mov	r3, fp
    9f98:	609a      	str	r2, [r3, #8]
    9f9a:	4643      	mov	r3, r8
    9f9c:	1ac9      	subs	r1, r1, r3
    9f9e:	2301      	movs	r3, #1
    9fa0:	4319      	orrs	r1, r3
    9fa2:	6051      	str	r1, [r2, #4]
    9fa4:	687a      	ldr	r2, [r7, #4]
    9fa6:	9801      	ldr	r0, [sp, #4]
    9fa8:	4013      	ands	r3, r2
    9faa:	4642      	mov	r2, r8
    9fac:	4313      	orrs	r3, r2
    9fae:	607b      	str	r3, [r7, #4]
    9fb0:	f7ff f96e 	bl	9290 <__malloc_unlock>
    9fb4:	0035      	movs	r5, r6
    9fb6:	e71a      	b.n	9dee <_realloc_r+0xfe>
    9fb8:	0031      	movs	r1, r6
    9fba:	f7ff fe49 	bl	9c50 <memmove>
    9fbe:	e6f1      	b.n	9da4 <_realloc_r+0xb4>
    9fc0:	0031      	movs	r1, r6
    9fc2:	0028      	movs	r0, r5
    9fc4:	f7ff fe44 	bl	9c50 <memmove>
    9fc8:	465c      	mov	r4, fp
    9fca:	46d1      	mov	r9, sl
    9fcc:	e6fd      	b.n	9dca <_realloc_r+0xda>
    9fce:	68b3      	ldr	r3, [r6, #8]
    9fd0:	6083      	str	r3, [r0, #8]
    9fd2:	68f3      	ldr	r3, [r6, #12]
    9fd4:	60c3      	str	r3, [r0, #12]
    9fd6:	2a24      	cmp	r2, #36	; 0x24
    9fd8:	d015      	beq.n	a006 <_realloc_r+0x316>
    9fda:	0003      	movs	r3, r0
    9fdc:	0032      	movs	r2, r6
    9fde:	3310      	adds	r3, #16
    9fe0:	3210      	adds	r2, #16
    9fe2:	e6d9      	b.n	9d98 <_realloc_r+0xa8>
    9fe4:	6853      	ldr	r3, [r2, #4]
    9fe6:	2203      	movs	r2, #3
    9fe8:	4393      	bics	r3, r2
    9fea:	18e4      	adds	r4, r4, r3
    9fec:	0035      	movs	r5, r6
    9fee:	e6ec      	b.n	9dca <_realloc_r+0xda>
    9ff0:	4653      	mov	r3, sl
    9ff2:	68b1      	ldr	r1, [r6, #8]
    9ff4:	6119      	str	r1, [r3, #16]
    9ff6:	68f1      	ldr	r1, [r6, #12]
    9ff8:	6159      	str	r1, [r3, #20]
    9ffa:	2a24      	cmp	r2, #36	; 0x24
    9ffc:	d00c      	beq.n	a018 <_realloc_r+0x328>
    9ffe:	0032      	movs	r2, r6
    a000:	3318      	adds	r3, #24
    a002:	3210      	adds	r2, #16
    a004:	e7bc      	b.n	9f80 <_realloc_r+0x290>
    a006:	6933      	ldr	r3, [r6, #16]
    a008:	0032      	movs	r2, r6
    a00a:	6103      	str	r3, [r0, #16]
    a00c:	0003      	movs	r3, r0
    a00e:	6971      	ldr	r1, [r6, #20]
    a010:	3318      	adds	r3, #24
    a012:	3218      	adds	r2, #24
    a014:	6141      	str	r1, [r0, #20]
    a016:	e6bf      	b.n	9d98 <_realloc_r+0xa8>
    a018:	4653      	mov	r3, sl
    a01a:	6932      	ldr	r2, [r6, #16]
    a01c:	4651      	mov	r1, sl
    a01e:	619a      	str	r2, [r3, #24]
    a020:	0032      	movs	r2, r6
    a022:	6970      	ldr	r0, [r6, #20]
    a024:	3320      	adds	r3, #32
    a026:	3218      	adds	r2, #24
    a028:	61c8      	str	r0, [r1, #28]
    a02a:	e7a9      	b.n	9f80 <_realloc_r+0x290>
    a02c:	002b      	movs	r3, r5
    a02e:	0032      	movs	r2, r6
    a030:	e77e      	b.n	9f30 <_realloc_r+0x240>
    a032:	0031      	movs	r1, r6
    a034:	0028      	movs	r0, r5
    a036:	f7ff fe0b 	bl	9c50 <memmove>
    a03a:	e77f      	b.n	9f3c <_realloc_r+0x24c>
    a03c:	4653      	mov	r3, sl
    a03e:	68b1      	ldr	r1, [r6, #8]
    a040:	6119      	str	r1, [r3, #16]
    a042:	68f1      	ldr	r1, [r6, #12]
    a044:	6159      	str	r1, [r3, #20]
    a046:	2a24      	cmp	r2, #36	; 0x24
    a048:	d003      	beq.n	a052 <_realloc_r+0x362>
    a04a:	0032      	movs	r2, r6
    a04c:	3318      	adds	r3, #24
    a04e:	3210      	adds	r2, #16
    a050:	e76e      	b.n	9f30 <_realloc_r+0x240>
    a052:	4653      	mov	r3, sl
    a054:	6932      	ldr	r2, [r6, #16]
    a056:	4651      	mov	r1, sl
    a058:	619a      	str	r2, [r3, #24]
    a05a:	0032      	movs	r2, r6
    a05c:	6970      	ldr	r0, [r6, #20]
    a05e:	3320      	adds	r3, #32
    a060:	3218      	adds	r2, #24
    a062:	61c8      	str	r0, [r1, #28]
    a064:	e764      	b.n	9f30 <_realloc_r+0x240>
    a066:	46c0      	nop			; (mov r8, r8)
    a068:	2000044c 	.word	0x2000044c

0000a06c <__ascii_wctomb>:
    a06c:	2900      	cmp	r1, #0
    a06e:	d004      	beq.n	a07a <__ascii_wctomb+0xe>
    a070:	2aff      	cmp	r2, #255	; 0xff
    a072:	d804      	bhi.n	a07e <__ascii_wctomb+0x12>
    a074:	2001      	movs	r0, #1
    a076:	700a      	strb	r2, [r1, #0]
    a078:	4770      	bx	lr
    a07a:	2000      	movs	r0, #0
    a07c:	e7fc      	b.n	a078 <__ascii_wctomb+0xc>
    a07e:	238a      	movs	r3, #138	; 0x8a
    a080:	6003      	str	r3, [r0, #0]
    a082:	2001      	movs	r0, #1
    a084:	4240      	negs	r0, r0
    a086:	e7f7      	b.n	a078 <__ascii_wctomb+0xc>

0000a088 <__aeabi_dadd>:
    a088:	b5f8      	push	{r3, r4, r5, r6, r7, lr}
    a08a:	4645      	mov	r5, r8
    a08c:	46de      	mov	lr, fp
    a08e:	4657      	mov	r7, sl
    a090:	464e      	mov	r6, r9
    a092:	030c      	lsls	r4, r1, #12
    a094:	b5e0      	push	{r5, r6, r7, lr}
    a096:	004e      	lsls	r6, r1, #1
    a098:	0fc9      	lsrs	r1, r1, #31
    a09a:	4688      	mov	r8, r1
    a09c:	000d      	movs	r5, r1
    a09e:	0a61      	lsrs	r1, r4, #9
    a0a0:	0f44      	lsrs	r4, r0, #29
    a0a2:	430c      	orrs	r4, r1
    a0a4:	00c7      	lsls	r7, r0, #3
    a0a6:	0319      	lsls	r1, r3, #12
    a0a8:	0058      	lsls	r0, r3, #1
    a0aa:	0fdb      	lsrs	r3, r3, #31
    a0ac:	469b      	mov	fp, r3
    a0ae:	0a4b      	lsrs	r3, r1, #9
    a0b0:	0f51      	lsrs	r1, r2, #29
    a0b2:	430b      	orrs	r3, r1
    a0b4:	0d76      	lsrs	r6, r6, #21
    a0b6:	0d40      	lsrs	r0, r0, #21
    a0b8:	0019      	movs	r1, r3
    a0ba:	00d2      	lsls	r2, r2, #3
    a0bc:	45d8      	cmp	r8, fp
    a0be:	d100      	bne.n	a0c2 <__aeabi_dadd+0x3a>
    a0c0:	e0ae      	b.n	a220 <__aeabi_dadd+0x198>
    a0c2:	1a35      	subs	r5, r6, r0
    a0c4:	2d00      	cmp	r5, #0
    a0c6:	dc00      	bgt.n	a0ca <__aeabi_dadd+0x42>
    a0c8:	e0f6      	b.n	a2b8 <__aeabi_dadd+0x230>
    a0ca:	2800      	cmp	r0, #0
    a0cc:	d10f      	bne.n	a0ee <__aeabi_dadd+0x66>
    a0ce:	4313      	orrs	r3, r2
    a0d0:	d100      	bne.n	a0d4 <__aeabi_dadd+0x4c>
    a0d2:	e0db      	b.n	a28c <__aeabi_dadd+0x204>
    a0d4:	1e6b      	subs	r3, r5, #1
    a0d6:	2b00      	cmp	r3, #0
    a0d8:	d000      	beq.n	a0dc <__aeabi_dadd+0x54>
    a0da:	e137      	b.n	a34c <__aeabi_dadd+0x2c4>
    a0dc:	1aba      	subs	r2, r7, r2
    a0de:	4297      	cmp	r7, r2
    a0e0:	41bf      	sbcs	r7, r7
    a0e2:	1a64      	subs	r4, r4, r1
    a0e4:	427f      	negs	r7, r7
    a0e6:	1be4      	subs	r4, r4, r7
    a0e8:	2601      	movs	r6, #1
    a0ea:	0017      	movs	r7, r2
    a0ec:	e024      	b.n	a138 <__aeabi_dadd+0xb0>
    a0ee:	4bc6      	ldr	r3, [pc, #792]	; (a408 <__aeabi_dadd+0x380>)
    a0f0:	429e      	cmp	r6, r3
    a0f2:	d04d      	beq.n	a190 <__aeabi_dadd+0x108>
    a0f4:	2380      	movs	r3, #128	; 0x80
    a0f6:	041b      	lsls	r3, r3, #16
    a0f8:	4319      	orrs	r1, r3
    a0fa:	2d38      	cmp	r5, #56	; 0x38
    a0fc:	dd00      	ble.n	a100 <__aeabi_dadd+0x78>
    a0fe:	e107      	b.n	a310 <__aeabi_dadd+0x288>
    a100:	2d1f      	cmp	r5, #31
    a102:	dd00      	ble.n	a106 <__aeabi_dadd+0x7e>
    a104:	e138      	b.n	a378 <__aeabi_dadd+0x2f0>
    a106:	2020      	movs	r0, #32
    a108:	1b43      	subs	r3, r0, r5
    a10a:	469a      	mov	sl, r3
    a10c:	000b      	movs	r3, r1
    a10e:	4650      	mov	r0, sl
    a110:	4083      	lsls	r3, r0
    a112:	4699      	mov	r9, r3
    a114:	0013      	movs	r3, r2
    a116:	4648      	mov	r0, r9
    a118:	40eb      	lsrs	r3, r5
    a11a:	4318      	orrs	r0, r3
    a11c:	0003      	movs	r3, r0
    a11e:	4650      	mov	r0, sl
    a120:	4082      	lsls	r2, r0
    a122:	1e50      	subs	r0, r2, #1
    a124:	4182      	sbcs	r2, r0
    a126:	40e9      	lsrs	r1, r5
    a128:	431a      	orrs	r2, r3
    a12a:	1aba      	subs	r2, r7, r2
    a12c:	1a61      	subs	r1, r4, r1
    a12e:	4297      	cmp	r7, r2
    a130:	41a4      	sbcs	r4, r4
    a132:	0017      	movs	r7, r2
    a134:	4264      	negs	r4, r4
    a136:	1b0c      	subs	r4, r1, r4
    a138:	0223      	lsls	r3, r4, #8
    a13a:	d562      	bpl.n	a202 <__aeabi_dadd+0x17a>
    a13c:	0264      	lsls	r4, r4, #9
    a13e:	0a65      	lsrs	r5, r4, #9
    a140:	2d00      	cmp	r5, #0
    a142:	d100      	bne.n	a146 <__aeabi_dadd+0xbe>
    a144:	e0df      	b.n	a306 <__aeabi_dadd+0x27e>
    a146:	0028      	movs	r0, r5
    a148:	f7fb feaa 	bl	5ea0 <__clzsi2>
    a14c:	0003      	movs	r3, r0
    a14e:	3b08      	subs	r3, #8
    a150:	2b1f      	cmp	r3, #31
    a152:	dd00      	ble.n	a156 <__aeabi_dadd+0xce>
    a154:	e0d2      	b.n	a2fc <__aeabi_dadd+0x274>
    a156:	2220      	movs	r2, #32
    a158:	003c      	movs	r4, r7
    a15a:	1ad2      	subs	r2, r2, r3
    a15c:	409d      	lsls	r5, r3
    a15e:	40d4      	lsrs	r4, r2
    a160:	409f      	lsls	r7, r3
    a162:	4325      	orrs	r5, r4
    a164:	429e      	cmp	r6, r3
    a166:	dd00      	ble.n	a16a <__aeabi_dadd+0xe2>
    a168:	e0c4      	b.n	a2f4 <__aeabi_dadd+0x26c>
    a16a:	1b9e      	subs	r6, r3, r6
    a16c:	1c73      	adds	r3, r6, #1
    a16e:	2b1f      	cmp	r3, #31
    a170:	dd00      	ble.n	a174 <__aeabi_dadd+0xec>
    a172:	e0f1      	b.n	a358 <__aeabi_dadd+0x2d0>
    a174:	2220      	movs	r2, #32
    a176:	0038      	movs	r0, r7
    a178:	0029      	movs	r1, r5
    a17a:	1ad2      	subs	r2, r2, r3
    a17c:	40d8      	lsrs	r0, r3
    a17e:	4091      	lsls	r1, r2
    a180:	4097      	lsls	r7, r2
    a182:	002c      	movs	r4, r5
    a184:	4301      	orrs	r1, r0
    a186:	1e78      	subs	r0, r7, #1
    a188:	4187      	sbcs	r7, r0
    a18a:	40dc      	lsrs	r4, r3
    a18c:	2600      	movs	r6, #0
    a18e:	430f      	orrs	r7, r1
    a190:	077b      	lsls	r3, r7, #29
    a192:	d009      	beq.n	a1a8 <__aeabi_dadd+0x120>
    a194:	230f      	movs	r3, #15
    a196:	403b      	ands	r3, r7
    a198:	2b04      	cmp	r3, #4
    a19a:	d005      	beq.n	a1a8 <__aeabi_dadd+0x120>
    a19c:	1d3b      	adds	r3, r7, #4
    a19e:	42bb      	cmp	r3, r7
    a1a0:	41bf      	sbcs	r7, r7
    a1a2:	427f      	negs	r7, r7
    a1a4:	19e4      	adds	r4, r4, r7
    a1a6:	001f      	movs	r7, r3
    a1a8:	0223      	lsls	r3, r4, #8
    a1aa:	d52c      	bpl.n	a206 <__aeabi_dadd+0x17e>
    a1ac:	4b96      	ldr	r3, [pc, #600]	; (a408 <__aeabi_dadd+0x380>)
    a1ae:	3601      	adds	r6, #1
    a1b0:	429e      	cmp	r6, r3
    a1b2:	d100      	bne.n	a1b6 <__aeabi_dadd+0x12e>
    a1b4:	e09a      	b.n	a2ec <__aeabi_dadd+0x264>
    a1b6:	4645      	mov	r5, r8
    a1b8:	4b94      	ldr	r3, [pc, #592]	; (a40c <__aeabi_dadd+0x384>)
    a1ba:	08ff      	lsrs	r7, r7, #3
    a1bc:	401c      	ands	r4, r3
    a1be:	0760      	lsls	r0, r4, #29
    a1c0:	0576      	lsls	r6, r6, #21
    a1c2:	0264      	lsls	r4, r4, #9
    a1c4:	4307      	orrs	r7, r0
    a1c6:	0b24      	lsrs	r4, r4, #12
    a1c8:	0d76      	lsrs	r6, r6, #21
    a1ca:	2100      	movs	r1, #0
    a1cc:	0324      	lsls	r4, r4, #12
    a1ce:	0b23      	lsrs	r3, r4, #12
    a1d0:	0d0c      	lsrs	r4, r1, #20
    a1d2:	4a8f      	ldr	r2, [pc, #572]	; (a410 <__aeabi_dadd+0x388>)
    a1d4:	0524      	lsls	r4, r4, #20
    a1d6:	431c      	orrs	r4, r3
    a1d8:	4014      	ands	r4, r2
    a1da:	0533      	lsls	r3, r6, #20
    a1dc:	4323      	orrs	r3, r4
    a1de:	005b      	lsls	r3, r3, #1
    a1e0:	07ed      	lsls	r5, r5, #31
    a1e2:	085b      	lsrs	r3, r3, #1
    a1e4:	432b      	orrs	r3, r5
    a1e6:	0038      	movs	r0, r7
    a1e8:	0019      	movs	r1, r3
    a1ea:	bc3c      	pop	{r2, r3, r4, r5}
    a1ec:	4690      	mov	r8, r2
    a1ee:	4699      	mov	r9, r3
    a1f0:	46a2      	mov	sl, r4
    a1f2:	46ab      	mov	fp, r5
    a1f4:	bdf8      	pop	{r3, r4, r5, r6, r7, pc}
    a1f6:	4664      	mov	r4, ip
    a1f8:	4304      	orrs	r4, r0
    a1fa:	d100      	bne.n	a1fe <__aeabi_dadd+0x176>
    a1fc:	e211      	b.n	a622 <__aeabi_dadd+0x59a>
    a1fe:	0004      	movs	r4, r0
    a200:	4667      	mov	r7, ip
    a202:	077b      	lsls	r3, r7, #29
    a204:	d1c6      	bne.n	a194 <__aeabi_dadd+0x10c>
    a206:	4645      	mov	r5, r8
    a208:	0760      	lsls	r0, r4, #29
    a20a:	08ff      	lsrs	r7, r7, #3
    a20c:	4307      	orrs	r7, r0
    a20e:	08e4      	lsrs	r4, r4, #3
    a210:	4b7d      	ldr	r3, [pc, #500]	; (a408 <__aeabi_dadd+0x380>)
    a212:	429e      	cmp	r6, r3
    a214:	d030      	beq.n	a278 <__aeabi_dadd+0x1f0>
    a216:	0324      	lsls	r4, r4, #12
    a218:	0576      	lsls	r6, r6, #21
    a21a:	0b24      	lsrs	r4, r4, #12
    a21c:	0d76      	lsrs	r6, r6, #21
    a21e:	e7d4      	b.n	a1ca <__aeabi_dadd+0x142>
    a220:	1a33      	subs	r3, r6, r0
    a222:	469a      	mov	sl, r3
    a224:	2b00      	cmp	r3, #0
    a226:	dd78      	ble.n	a31a <__aeabi_dadd+0x292>
    a228:	2800      	cmp	r0, #0
    a22a:	d031      	beq.n	a290 <__aeabi_dadd+0x208>
    a22c:	4876      	ldr	r0, [pc, #472]	; (a408 <__aeabi_dadd+0x380>)
    a22e:	4286      	cmp	r6, r0
    a230:	d0ae      	beq.n	a190 <__aeabi_dadd+0x108>
    a232:	2080      	movs	r0, #128	; 0x80
    a234:	0400      	lsls	r0, r0, #16
    a236:	4301      	orrs	r1, r0
    a238:	4653      	mov	r3, sl
    a23a:	2b38      	cmp	r3, #56	; 0x38
    a23c:	dc00      	bgt.n	a240 <__aeabi_dadd+0x1b8>
    a23e:	e0e9      	b.n	a414 <__aeabi_dadd+0x38c>
    a240:	430a      	orrs	r2, r1
    a242:	1e51      	subs	r1, r2, #1
    a244:	418a      	sbcs	r2, r1
    a246:	2100      	movs	r1, #0
    a248:	19d2      	adds	r2, r2, r7
    a24a:	42ba      	cmp	r2, r7
    a24c:	41bf      	sbcs	r7, r7
    a24e:	1909      	adds	r1, r1, r4
    a250:	427c      	negs	r4, r7
    a252:	0017      	movs	r7, r2
    a254:	190c      	adds	r4, r1, r4
    a256:	0223      	lsls	r3, r4, #8
    a258:	d5d3      	bpl.n	a202 <__aeabi_dadd+0x17a>
    a25a:	4b6b      	ldr	r3, [pc, #428]	; (a408 <__aeabi_dadd+0x380>)
    a25c:	3601      	adds	r6, #1
    a25e:	429e      	cmp	r6, r3
    a260:	d100      	bne.n	a264 <__aeabi_dadd+0x1dc>
    a262:	e13a      	b.n	a4da <__aeabi_dadd+0x452>
    a264:	2001      	movs	r0, #1
    a266:	4b69      	ldr	r3, [pc, #420]	; (a40c <__aeabi_dadd+0x384>)
    a268:	401c      	ands	r4, r3
    a26a:	087b      	lsrs	r3, r7, #1
    a26c:	4007      	ands	r7, r0
    a26e:	431f      	orrs	r7, r3
    a270:	07e0      	lsls	r0, r4, #31
    a272:	4307      	orrs	r7, r0
    a274:	0864      	lsrs	r4, r4, #1
    a276:	e78b      	b.n	a190 <__aeabi_dadd+0x108>
    a278:	0023      	movs	r3, r4
    a27a:	433b      	orrs	r3, r7
    a27c:	d100      	bne.n	a280 <__aeabi_dadd+0x1f8>
    a27e:	e1cb      	b.n	a618 <__aeabi_dadd+0x590>
    a280:	2280      	movs	r2, #128	; 0x80
    a282:	0312      	lsls	r2, r2, #12
    a284:	4314      	orrs	r4, r2
    a286:	0324      	lsls	r4, r4, #12
    a288:	0b24      	lsrs	r4, r4, #12
    a28a:	e79e      	b.n	a1ca <__aeabi_dadd+0x142>
    a28c:	002e      	movs	r6, r5
    a28e:	e77f      	b.n	a190 <__aeabi_dadd+0x108>
    a290:	0008      	movs	r0, r1
    a292:	4310      	orrs	r0, r2
    a294:	d100      	bne.n	a298 <__aeabi_dadd+0x210>
    a296:	e0b4      	b.n	a402 <__aeabi_dadd+0x37a>
    a298:	1e58      	subs	r0, r3, #1
    a29a:	2800      	cmp	r0, #0
    a29c:	d000      	beq.n	a2a0 <__aeabi_dadd+0x218>
    a29e:	e0de      	b.n	a45e <__aeabi_dadd+0x3d6>
    a2a0:	18ba      	adds	r2, r7, r2
    a2a2:	42ba      	cmp	r2, r7
    a2a4:	419b      	sbcs	r3, r3
    a2a6:	1864      	adds	r4, r4, r1
    a2a8:	425b      	negs	r3, r3
    a2aa:	18e4      	adds	r4, r4, r3
    a2ac:	0017      	movs	r7, r2
    a2ae:	2601      	movs	r6, #1
    a2b0:	0223      	lsls	r3, r4, #8
    a2b2:	d5a6      	bpl.n	a202 <__aeabi_dadd+0x17a>
    a2b4:	2602      	movs	r6, #2
    a2b6:	e7d5      	b.n	a264 <__aeabi_dadd+0x1dc>
    a2b8:	2d00      	cmp	r5, #0
    a2ba:	d16e      	bne.n	a39a <__aeabi_dadd+0x312>
    a2bc:	1c70      	adds	r0, r6, #1
    a2be:	0540      	lsls	r0, r0, #21
    a2c0:	0d40      	lsrs	r0, r0, #21
    a2c2:	2801      	cmp	r0, #1
    a2c4:	dc00      	bgt.n	a2c8 <__aeabi_dadd+0x240>
    a2c6:	e0f9      	b.n	a4bc <__aeabi_dadd+0x434>
    a2c8:	1ab8      	subs	r0, r7, r2
    a2ca:	4684      	mov	ip, r0
    a2cc:	4287      	cmp	r7, r0
    a2ce:	4180      	sbcs	r0, r0
    a2d0:	1ae5      	subs	r5, r4, r3
    a2d2:	4240      	negs	r0, r0
    a2d4:	1a2d      	subs	r5, r5, r0
    a2d6:	0228      	lsls	r0, r5, #8
    a2d8:	d400      	bmi.n	a2dc <__aeabi_dadd+0x254>
    a2da:	e089      	b.n	a3f0 <__aeabi_dadd+0x368>
    a2dc:	1bd7      	subs	r7, r2, r7
    a2de:	42ba      	cmp	r2, r7
    a2e0:	4192      	sbcs	r2, r2
    a2e2:	1b1c      	subs	r4, r3, r4
    a2e4:	4252      	negs	r2, r2
    a2e6:	1aa5      	subs	r5, r4, r2
    a2e8:	46d8      	mov	r8, fp
    a2ea:	e729      	b.n	a140 <__aeabi_dadd+0xb8>
    a2ec:	4645      	mov	r5, r8
    a2ee:	2400      	movs	r4, #0
    a2f0:	2700      	movs	r7, #0
    a2f2:	e76a      	b.n	a1ca <__aeabi_dadd+0x142>
    a2f4:	4c45      	ldr	r4, [pc, #276]	; (a40c <__aeabi_dadd+0x384>)
    a2f6:	1af6      	subs	r6, r6, r3
    a2f8:	402c      	ands	r4, r5
    a2fa:	e749      	b.n	a190 <__aeabi_dadd+0x108>
    a2fc:	003d      	movs	r5, r7
    a2fe:	3828      	subs	r0, #40	; 0x28
    a300:	4085      	lsls	r5, r0
    a302:	2700      	movs	r7, #0
    a304:	e72e      	b.n	a164 <__aeabi_dadd+0xdc>
    a306:	0038      	movs	r0, r7
    a308:	f7fb fdca 	bl	5ea0 <__clzsi2>
    a30c:	3020      	adds	r0, #32
    a30e:	e71d      	b.n	a14c <__aeabi_dadd+0xc4>
    a310:	430a      	orrs	r2, r1
    a312:	1e51      	subs	r1, r2, #1
    a314:	418a      	sbcs	r2, r1
    a316:	2100      	movs	r1, #0
    a318:	e707      	b.n	a12a <__aeabi_dadd+0xa2>
    a31a:	2b00      	cmp	r3, #0
    a31c:	d000      	beq.n	a320 <__aeabi_dadd+0x298>
    a31e:	e0f3      	b.n	a508 <__aeabi_dadd+0x480>
    a320:	1c70      	adds	r0, r6, #1
    a322:	0543      	lsls	r3, r0, #21
    a324:	0d5b      	lsrs	r3, r3, #21
    a326:	2b01      	cmp	r3, #1
    a328:	dc00      	bgt.n	a32c <__aeabi_dadd+0x2a4>
    a32a:	e0ad      	b.n	a488 <__aeabi_dadd+0x400>
    a32c:	4b36      	ldr	r3, [pc, #216]	; (a408 <__aeabi_dadd+0x380>)
    a32e:	4298      	cmp	r0, r3
    a330:	d100      	bne.n	a334 <__aeabi_dadd+0x2ac>
    a332:	e0d1      	b.n	a4d8 <__aeabi_dadd+0x450>
    a334:	18ba      	adds	r2, r7, r2
    a336:	42ba      	cmp	r2, r7
    a338:	41bf      	sbcs	r7, r7
    a33a:	1864      	adds	r4, r4, r1
    a33c:	427f      	negs	r7, r7
    a33e:	19e4      	adds	r4, r4, r7
    a340:	07e7      	lsls	r7, r4, #31
    a342:	0852      	lsrs	r2, r2, #1
    a344:	4317      	orrs	r7, r2
    a346:	0864      	lsrs	r4, r4, #1
    a348:	0006      	movs	r6, r0
    a34a:	e721      	b.n	a190 <__aeabi_dadd+0x108>
    a34c:	482e      	ldr	r0, [pc, #184]	; (a408 <__aeabi_dadd+0x380>)
    a34e:	4285      	cmp	r5, r0
    a350:	d100      	bne.n	a354 <__aeabi_dadd+0x2cc>
    a352:	e093      	b.n	a47c <__aeabi_dadd+0x3f4>
    a354:	001d      	movs	r5, r3
    a356:	e6d0      	b.n	a0fa <__aeabi_dadd+0x72>
    a358:	0029      	movs	r1, r5
    a35a:	3e1f      	subs	r6, #31
    a35c:	40f1      	lsrs	r1, r6
    a35e:	2b20      	cmp	r3, #32
    a360:	d100      	bne.n	a364 <__aeabi_dadd+0x2dc>
    a362:	e08d      	b.n	a480 <__aeabi_dadd+0x3f8>
    a364:	2240      	movs	r2, #64	; 0x40
    a366:	1ad3      	subs	r3, r2, r3
    a368:	409d      	lsls	r5, r3
    a36a:	432f      	orrs	r7, r5
    a36c:	1e7d      	subs	r5, r7, #1
    a36e:	41af      	sbcs	r7, r5
    a370:	2400      	movs	r4, #0
    a372:	430f      	orrs	r7, r1
    a374:	2600      	movs	r6, #0
    a376:	e744      	b.n	a202 <__aeabi_dadd+0x17a>
    a378:	002b      	movs	r3, r5
    a37a:	0008      	movs	r0, r1
    a37c:	3b20      	subs	r3, #32
    a37e:	40d8      	lsrs	r0, r3
    a380:	0003      	movs	r3, r0
    a382:	2d20      	cmp	r5, #32
    a384:	d100      	bne.n	a388 <__aeabi_dadd+0x300>
    a386:	e07d      	b.n	a484 <__aeabi_dadd+0x3fc>
    a388:	2040      	movs	r0, #64	; 0x40
    a38a:	1b45      	subs	r5, r0, r5
    a38c:	40a9      	lsls	r1, r5
    a38e:	430a      	orrs	r2, r1
    a390:	1e51      	subs	r1, r2, #1
    a392:	418a      	sbcs	r2, r1
    a394:	2100      	movs	r1, #0
    a396:	431a      	orrs	r2, r3
    a398:	e6c7      	b.n	a12a <__aeabi_dadd+0xa2>
    a39a:	2e00      	cmp	r6, #0
    a39c:	d050      	beq.n	a440 <__aeabi_dadd+0x3b8>
    a39e:	4e1a      	ldr	r6, [pc, #104]	; (a408 <__aeabi_dadd+0x380>)
    a3a0:	42b0      	cmp	r0, r6
    a3a2:	d057      	beq.n	a454 <__aeabi_dadd+0x3cc>
    a3a4:	2680      	movs	r6, #128	; 0x80
    a3a6:	426b      	negs	r3, r5
    a3a8:	4699      	mov	r9, r3
    a3aa:	0436      	lsls	r6, r6, #16
    a3ac:	4334      	orrs	r4, r6
    a3ae:	464b      	mov	r3, r9
    a3b0:	2b38      	cmp	r3, #56	; 0x38
    a3b2:	dd00      	ble.n	a3b6 <__aeabi_dadd+0x32e>
    a3b4:	e0d6      	b.n	a564 <__aeabi_dadd+0x4dc>
    a3b6:	2b1f      	cmp	r3, #31
    a3b8:	dd00      	ble.n	a3bc <__aeabi_dadd+0x334>
    a3ba:	e135      	b.n	a628 <__aeabi_dadd+0x5a0>
    a3bc:	2620      	movs	r6, #32
    a3be:	1af5      	subs	r5, r6, r3
    a3c0:	0026      	movs	r6, r4
    a3c2:	40ae      	lsls	r6, r5
    a3c4:	46b2      	mov	sl, r6
    a3c6:	003e      	movs	r6, r7
    a3c8:	40de      	lsrs	r6, r3
    a3ca:	46ac      	mov	ip, r5
    a3cc:	0035      	movs	r5, r6
    a3ce:	4656      	mov	r6, sl
    a3d0:	432e      	orrs	r6, r5
    a3d2:	4665      	mov	r5, ip
    a3d4:	40af      	lsls	r7, r5
    a3d6:	1e7d      	subs	r5, r7, #1
    a3d8:	41af      	sbcs	r7, r5
    a3da:	40dc      	lsrs	r4, r3
    a3dc:	4337      	orrs	r7, r6
    a3de:	1bd7      	subs	r7, r2, r7
    a3e0:	42ba      	cmp	r2, r7
    a3e2:	4192      	sbcs	r2, r2
    a3e4:	1b0c      	subs	r4, r1, r4
    a3e6:	4252      	negs	r2, r2
    a3e8:	1aa4      	subs	r4, r4, r2
    a3ea:	0006      	movs	r6, r0
    a3ec:	46d8      	mov	r8, fp
    a3ee:	e6a3      	b.n	a138 <__aeabi_dadd+0xb0>
    a3f0:	4664      	mov	r4, ip
    a3f2:	4667      	mov	r7, ip
    a3f4:	432c      	orrs	r4, r5
    a3f6:	d000      	beq.n	a3fa <__aeabi_dadd+0x372>
    a3f8:	e6a2      	b.n	a140 <__aeabi_dadd+0xb8>
    a3fa:	2500      	movs	r5, #0
    a3fc:	2600      	movs	r6, #0
    a3fe:	2700      	movs	r7, #0
    a400:	e706      	b.n	a210 <__aeabi_dadd+0x188>
    a402:	001e      	movs	r6, r3
    a404:	e6c4      	b.n	a190 <__aeabi_dadd+0x108>
    a406:	46c0      	nop			; (mov r8, r8)
    a408:	000007ff 	.word	0x000007ff
    a40c:	ff7fffff 	.word	0xff7fffff
    a410:	800fffff 	.word	0x800fffff
    a414:	2b1f      	cmp	r3, #31
    a416:	dc63      	bgt.n	a4e0 <__aeabi_dadd+0x458>
    a418:	2020      	movs	r0, #32
    a41a:	1ac3      	subs	r3, r0, r3
    a41c:	0008      	movs	r0, r1
    a41e:	4098      	lsls	r0, r3
    a420:	469c      	mov	ip, r3
    a422:	4683      	mov	fp, r0
    a424:	4653      	mov	r3, sl
    a426:	0010      	movs	r0, r2
    a428:	40d8      	lsrs	r0, r3
    a42a:	0003      	movs	r3, r0
    a42c:	4658      	mov	r0, fp
    a42e:	4318      	orrs	r0, r3
    a430:	4663      	mov	r3, ip
    a432:	409a      	lsls	r2, r3
    a434:	1e53      	subs	r3, r2, #1
    a436:	419a      	sbcs	r2, r3
    a438:	4653      	mov	r3, sl
    a43a:	4302      	orrs	r2, r0
    a43c:	40d9      	lsrs	r1, r3
    a43e:	e703      	b.n	a248 <__aeabi_dadd+0x1c0>
    a440:	0026      	movs	r6, r4
    a442:	433e      	orrs	r6, r7
    a444:	d006      	beq.n	a454 <__aeabi_dadd+0x3cc>
    a446:	43eb      	mvns	r3, r5
    a448:	4699      	mov	r9, r3
    a44a:	2b00      	cmp	r3, #0
    a44c:	d0c7      	beq.n	a3de <__aeabi_dadd+0x356>
    a44e:	4e94      	ldr	r6, [pc, #592]	; (a6a0 <__aeabi_dadd+0x618>)
    a450:	42b0      	cmp	r0, r6
    a452:	d1ac      	bne.n	a3ae <__aeabi_dadd+0x326>
    a454:	000c      	movs	r4, r1
    a456:	0017      	movs	r7, r2
    a458:	0006      	movs	r6, r0
    a45a:	46d8      	mov	r8, fp
    a45c:	e698      	b.n	a190 <__aeabi_dadd+0x108>
    a45e:	4b90      	ldr	r3, [pc, #576]	; (a6a0 <__aeabi_dadd+0x618>)
    a460:	459a      	cmp	sl, r3
    a462:	d00b      	beq.n	a47c <__aeabi_dadd+0x3f4>
    a464:	4682      	mov	sl, r0
    a466:	e6e7      	b.n	a238 <__aeabi_dadd+0x1b0>
    a468:	2800      	cmp	r0, #0
    a46a:	d000      	beq.n	a46e <__aeabi_dadd+0x3e6>
    a46c:	e09e      	b.n	a5ac <__aeabi_dadd+0x524>
    a46e:	0018      	movs	r0, r3
    a470:	4310      	orrs	r0, r2
    a472:	d100      	bne.n	a476 <__aeabi_dadd+0x3ee>
    a474:	e0e9      	b.n	a64a <__aeabi_dadd+0x5c2>
    a476:	001c      	movs	r4, r3
    a478:	0017      	movs	r7, r2
    a47a:	46d8      	mov	r8, fp
    a47c:	4e88      	ldr	r6, [pc, #544]	; (a6a0 <__aeabi_dadd+0x618>)
    a47e:	e687      	b.n	a190 <__aeabi_dadd+0x108>
    a480:	2500      	movs	r5, #0
    a482:	e772      	b.n	a36a <__aeabi_dadd+0x2e2>
    a484:	2100      	movs	r1, #0
    a486:	e782      	b.n	a38e <__aeabi_dadd+0x306>
    a488:	0023      	movs	r3, r4
    a48a:	433b      	orrs	r3, r7
    a48c:	2e00      	cmp	r6, #0
    a48e:	d000      	beq.n	a492 <__aeabi_dadd+0x40a>
    a490:	e0ab      	b.n	a5ea <__aeabi_dadd+0x562>
    a492:	2b00      	cmp	r3, #0
    a494:	d100      	bne.n	a498 <__aeabi_dadd+0x410>
    a496:	e0e7      	b.n	a668 <__aeabi_dadd+0x5e0>
    a498:	000b      	movs	r3, r1
    a49a:	4313      	orrs	r3, r2
    a49c:	d100      	bne.n	a4a0 <__aeabi_dadd+0x418>
    a49e:	e677      	b.n	a190 <__aeabi_dadd+0x108>
    a4a0:	18ba      	adds	r2, r7, r2
    a4a2:	42ba      	cmp	r2, r7
    a4a4:	41bf      	sbcs	r7, r7
    a4a6:	1864      	adds	r4, r4, r1
    a4a8:	427f      	negs	r7, r7
    a4aa:	19e4      	adds	r4, r4, r7
    a4ac:	0223      	lsls	r3, r4, #8
    a4ae:	d400      	bmi.n	a4b2 <__aeabi_dadd+0x42a>
    a4b0:	e0f2      	b.n	a698 <__aeabi_dadd+0x610>
    a4b2:	4b7c      	ldr	r3, [pc, #496]	; (a6a4 <__aeabi_dadd+0x61c>)
    a4b4:	0017      	movs	r7, r2
    a4b6:	401c      	ands	r4, r3
    a4b8:	0006      	movs	r6, r0
    a4ba:	e669      	b.n	a190 <__aeabi_dadd+0x108>
    a4bc:	0020      	movs	r0, r4
    a4be:	4338      	orrs	r0, r7
    a4c0:	2e00      	cmp	r6, #0
    a4c2:	d1d1      	bne.n	a468 <__aeabi_dadd+0x3e0>
    a4c4:	2800      	cmp	r0, #0
    a4c6:	d15b      	bne.n	a580 <__aeabi_dadd+0x4f8>
    a4c8:	001c      	movs	r4, r3
    a4ca:	4314      	orrs	r4, r2
    a4cc:	d100      	bne.n	a4d0 <__aeabi_dadd+0x448>
    a4ce:	e0a8      	b.n	a622 <__aeabi_dadd+0x59a>
    a4d0:	001c      	movs	r4, r3
    a4d2:	0017      	movs	r7, r2
    a4d4:	46d8      	mov	r8, fp
    a4d6:	e65b      	b.n	a190 <__aeabi_dadd+0x108>
    a4d8:	0006      	movs	r6, r0
    a4da:	2400      	movs	r4, #0
    a4dc:	2700      	movs	r7, #0
    a4de:	e697      	b.n	a210 <__aeabi_dadd+0x188>
    a4e0:	4650      	mov	r0, sl
    a4e2:	000b      	movs	r3, r1
    a4e4:	3820      	subs	r0, #32
    a4e6:	40c3      	lsrs	r3, r0
    a4e8:	4699      	mov	r9, r3
    a4ea:	4653      	mov	r3, sl
    a4ec:	2b20      	cmp	r3, #32
    a4ee:	d100      	bne.n	a4f2 <__aeabi_dadd+0x46a>
    a4f0:	e095      	b.n	a61e <__aeabi_dadd+0x596>
    a4f2:	2340      	movs	r3, #64	; 0x40
    a4f4:	4650      	mov	r0, sl
    a4f6:	1a1b      	subs	r3, r3, r0
    a4f8:	4099      	lsls	r1, r3
    a4fa:	430a      	orrs	r2, r1
    a4fc:	1e51      	subs	r1, r2, #1
    a4fe:	418a      	sbcs	r2, r1
    a500:	464b      	mov	r3, r9
    a502:	2100      	movs	r1, #0
    a504:	431a      	orrs	r2, r3
    a506:	e69f      	b.n	a248 <__aeabi_dadd+0x1c0>
    a508:	2e00      	cmp	r6, #0
    a50a:	d130      	bne.n	a56e <__aeabi_dadd+0x4e6>
    a50c:	0026      	movs	r6, r4
    a50e:	433e      	orrs	r6, r7
    a510:	d067      	beq.n	a5e2 <__aeabi_dadd+0x55a>
    a512:	43db      	mvns	r3, r3
    a514:	469a      	mov	sl, r3
    a516:	2b00      	cmp	r3, #0
    a518:	d01c      	beq.n	a554 <__aeabi_dadd+0x4cc>
    a51a:	4e61      	ldr	r6, [pc, #388]	; (a6a0 <__aeabi_dadd+0x618>)
    a51c:	42b0      	cmp	r0, r6
    a51e:	d060      	beq.n	a5e2 <__aeabi_dadd+0x55a>
    a520:	4653      	mov	r3, sl
    a522:	2b38      	cmp	r3, #56	; 0x38
    a524:	dd00      	ble.n	a528 <__aeabi_dadd+0x4a0>
    a526:	e096      	b.n	a656 <__aeabi_dadd+0x5ce>
    a528:	2b1f      	cmp	r3, #31
    a52a:	dd00      	ble.n	a52e <__aeabi_dadd+0x4a6>
    a52c:	e09f      	b.n	a66e <__aeabi_dadd+0x5e6>
    a52e:	2620      	movs	r6, #32
    a530:	1af3      	subs	r3, r6, r3
    a532:	0026      	movs	r6, r4
    a534:	409e      	lsls	r6, r3
    a536:	469c      	mov	ip, r3
    a538:	46b3      	mov	fp, r6
    a53a:	4653      	mov	r3, sl
    a53c:	003e      	movs	r6, r7
    a53e:	40de      	lsrs	r6, r3
    a540:	0033      	movs	r3, r6
    a542:	465e      	mov	r6, fp
    a544:	431e      	orrs	r6, r3
    a546:	4663      	mov	r3, ip
    a548:	409f      	lsls	r7, r3
    a54a:	1e7b      	subs	r3, r7, #1
    a54c:	419f      	sbcs	r7, r3
    a54e:	4653      	mov	r3, sl
    a550:	40dc      	lsrs	r4, r3
    a552:	4337      	orrs	r7, r6
    a554:	18bf      	adds	r7, r7, r2
    a556:	4297      	cmp	r7, r2
    a558:	4192      	sbcs	r2, r2
    a55a:	1864      	adds	r4, r4, r1
    a55c:	4252      	negs	r2, r2
    a55e:	18a4      	adds	r4, r4, r2
    a560:	0006      	movs	r6, r0
    a562:	e678      	b.n	a256 <__aeabi_dadd+0x1ce>
    a564:	4327      	orrs	r7, r4
    a566:	1e7c      	subs	r4, r7, #1
    a568:	41a7      	sbcs	r7, r4
    a56a:	2400      	movs	r4, #0
    a56c:	e737      	b.n	a3de <__aeabi_dadd+0x356>
    a56e:	4e4c      	ldr	r6, [pc, #304]	; (a6a0 <__aeabi_dadd+0x618>)
    a570:	42b0      	cmp	r0, r6
    a572:	d036      	beq.n	a5e2 <__aeabi_dadd+0x55a>
    a574:	2680      	movs	r6, #128	; 0x80
    a576:	425b      	negs	r3, r3
    a578:	0436      	lsls	r6, r6, #16
    a57a:	469a      	mov	sl, r3
    a57c:	4334      	orrs	r4, r6
    a57e:	e7cf      	b.n	a520 <__aeabi_dadd+0x498>
    a580:	0018      	movs	r0, r3
    a582:	4310      	orrs	r0, r2
    a584:	d100      	bne.n	a588 <__aeabi_dadd+0x500>
    a586:	e603      	b.n	a190 <__aeabi_dadd+0x108>
    a588:	1ab8      	subs	r0, r7, r2
    a58a:	4684      	mov	ip, r0
    a58c:	4567      	cmp	r7, ip
    a58e:	41ad      	sbcs	r5, r5
    a590:	1ae0      	subs	r0, r4, r3
    a592:	426d      	negs	r5, r5
    a594:	1b40      	subs	r0, r0, r5
    a596:	0205      	lsls	r5, r0, #8
    a598:	d400      	bmi.n	a59c <__aeabi_dadd+0x514>
    a59a:	e62c      	b.n	a1f6 <__aeabi_dadd+0x16e>
    a59c:	1bd7      	subs	r7, r2, r7
    a59e:	42ba      	cmp	r2, r7
    a5a0:	4192      	sbcs	r2, r2
    a5a2:	1b1c      	subs	r4, r3, r4
    a5a4:	4252      	negs	r2, r2
    a5a6:	1aa4      	subs	r4, r4, r2
    a5a8:	46d8      	mov	r8, fp
    a5aa:	e5f1      	b.n	a190 <__aeabi_dadd+0x108>
    a5ac:	0018      	movs	r0, r3
    a5ae:	4310      	orrs	r0, r2
    a5b0:	d100      	bne.n	a5b4 <__aeabi_dadd+0x52c>
    a5b2:	e763      	b.n	a47c <__aeabi_dadd+0x3f4>
    a5b4:	08f8      	lsrs	r0, r7, #3
    a5b6:	0767      	lsls	r7, r4, #29
    a5b8:	4307      	orrs	r7, r0
    a5ba:	2080      	movs	r0, #128	; 0x80
    a5bc:	08e4      	lsrs	r4, r4, #3
    a5be:	0300      	lsls	r0, r0, #12
    a5c0:	4204      	tst	r4, r0
    a5c2:	d008      	beq.n	a5d6 <__aeabi_dadd+0x54e>
    a5c4:	08dd      	lsrs	r5, r3, #3
    a5c6:	4205      	tst	r5, r0
    a5c8:	d105      	bne.n	a5d6 <__aeabi_dadd+0x54e>
    a5ca:	08d2      	lsrs	r2, r2, #3
    a5cc:	0759      	lsls	r1, r3, #29
    a5ce:	4311      	orrs	r1, r2
    a5d0:	000f      	movs	r7, r1
    a5d2:	002c      	movs	r4, r5
    a5d4:	46d8      	mov	r8, fp
    a5d6:	0f7b      	lsrs	r3, r7, #29
    a5d8:	00e4      	lsls	r4, r4, #3
    a5da:	431c      	orrs	r4, r3
    a5dc:	00ff      	lsls	r7, r7, #3
    a5de:	4e30      	ldr	r6, [pc, #192]	; (a6a0 <__aeabi_dadd+0x618>)
    a5e0:	e5d6      	b.n	a190 <__aeabi_dadd+0x108>
    a5e2:	000c      	movs	r4, r1
    a5e4:	0017      	movs	r7, r2
    a5e6:	0006      	movs	r6, r0
    a5e8:	e5d2      	b.n	a190 <__aeabi_dadd+0x108>
    a5ea:	2b00      	cmp	r3, #0
    a5ec:	d038      	beq.n	a660 <__aeabi_dadd+0x5d8>
    a5ee:	000b      	movs	r3, r1
    a5f0:	4313      	orrs	r3, r2
    a5f2:	d100      	bne.n	a5f6 <__aeabi_dadd+0x56e>
    a5f4:	e742      	b.n	a47c <__aeabi_dadd+0x3f4>
    a5f6:	08f8      	lsrs	r0, r7, #3
    a5f8:	0767      	lsls	r7, r4, #29
    a5fa:	4307      	orrs	r7, r0
    a5fc:	2080      	movs	r0, #128	; 0x80
    a5fe:	08e4      	lsrs	r4, r4, #3
    a600:	0300      	lsls	r0, r0, #12
    a602:	4204      	tst	r4, r0
    a604:	d0e7      	beq.n	a5d6 <__aeabi_dadd+0x54e>
    a606:	08cb      	lsrs	r3, r1, #3
    a608:	4203      	tst	r3, r0
    a60a:	d1e4      	bne.n	a5d6 <__aeabi_dadd+0x54e>
    a60c:	08d2      	lsrs	r2, r2, #3
    a60e:	0749      	lsls	r1, r1, #29
    a610:	4311      	orrs	r1, r2
    a612:	000f      	movs	r7, r1
    a614:	001c      	movs	r4, r3
    a616:	e7de      	b.n	a5d6 <__aeabi_dadd+0x54e>
    a618:	2700      	movs	r7, #0
    a61a:	2400      	movs	r4, #0
    a61c:	e5d5      	b.n	a1ca <__aeabi_dadd+0x142>
    a61e:	2100      	movs	r1, #0
    a620:	e76b      	b.n	a4fa <__aeabi_dadd+0x472>
    a622:	2500      	movs	r5, #0
    a624:	2700      	movs	r7, #0
    a626:	e5f3      	b.n	a210 <__aeabi_dadd+0x188>
    a628:	464e      	mov	r6, r9
    a62a:	0025      	movs	r5, r4
    a62c:	3e20      	subs	r6, #32
    a62e:	40f5      	lsrs	r5, r6
    a630:	464b      	mov	r3, r9
    a632:	002e      	movs	r6, r5
    a634:	2b20      	cmp	r3, #32
    a636:	d02d      	beq.n	a694 <__aeabi_dadd+0x60c>
    a638:	2540      	movs	r5, #64	; 0x40
    a63a:	1aed      	subs	r5, r5, r3
    a63c:	40ac      	lsls	r4, r5
    a63e:	4327      	orrs	r7, r4
    a640:	1e7c      	subs	r4, r7, #1
    a642:	41a7      	sbcs	r7, r4
    a644:	2400      	movs	r4, #0
    a646:	4337      	orrs	r7, r6
    a648:	e6c9      	b.n	a3de <__aeabi_dadd+0x356>
    a64a:	2480      	movs	r4, #128	; 0x80
    a64c:	2500      	movs	r5, #0
    a64e:	0324      	lsls	r4, r4, #12
    a650:	4e13      	ldr	r6, [pc, #76]	; (a6a0 <__aeabi_dadd+0x618>)
    a652:	2700      	movs	r7, #0
    a654:	e5dc      	b.n	a210 <__aeabi_dadd+0x188>
    a656:	4327      	orrs	r7, r4
    a658:	1e7c      	subs	r4, r7, #1
    a65a:	41a7      	sbcs	r7, r4
    a65c:	2400      	movs	r4, #0
    a65e:	e779      	b.n	a554 <__aeabi_dadd+0x4cc>
    a660:	000c      	movs	r4, r1
    a662:	0017      	movs	r7, r2
    a664:	4e0e      	ldr	r6, [pc, #56]	; (a6a0 <__aeabi_dadd+0x618>)
    a666:	e593      	b.n	a190 <__aeabi_dadd+0x108>
    a668:	000c      	movs	r4, r1
    a66a:	0017      	movs	r7, r2
    a66c:	e590      	b.n	a190 <__aeabi_dadd+0x108>
    a66e:	4656      	mov	r6, sl
    a670:	0023      	movs	r3, r4
    a672:	3e20      	subs	r6, #32
    a674:	40f3      	lsrs	r3, r6
    a676:	4699      	mov	r9, r3
    a678:	4653      	mov	r3, sl
    a67a:	2b20      	cmp	r3, #32
    a67c:	d00e      	beq.n	a69c <__aeabi_dadd+0x614>
    a67e:	2340      	movs	r3, #64	; 0x40
    a680:	4656      	mov	r6, sl
    a682:	1b9b      	subs	r3, r3, r6
    a684:	409c      	lsls	r4, r3
    a686:	4327      	orrs	r7, r4
    a688:	1e7c      	subs	r4, r7, #1
    a68a:	41a7      	sbcs	r7, r4
    a68c:	464b      	mov	r3, r9
    a68e:	2400      	movs	r4, #0
    a690:	431f      	orrs	r7, r3
    a692:	e75f      	b.n	a554 <__aeabi_dadd+0x4cc>
    a694:	2400      	movs	r4, #0
    a696:	e7d2      	b.n	a63e <__aeabi_dadd+0x5b6>
    a698:	0017      	movs	r7, r2
    a69a:	e5b2      	b.n	a202 <__aeabi_dadd+0x17a>
    a69c:	2400      	movs	r4, #0
    a69e:	e7f2      	b.n	a686 <__aeabi_dadd+0x5fe>
    a6a0:	000007ff 	.word	0x000007ff
    a6a4:	ff7fffff 	.word	0xff7fffff

0000a6a8 <__aeabi_dcmpun>:
    a6a8:	b570      	push	{r4, r5, r6, lr}
    a6aa:	4e0e      	ldr	r6, [pc, #56]	; (a6e4 <__aeabi_dcmpun+0x3c>)
    a6ac:	030d      	lsls	r5, r1, #12
    a6ae:	031c      	lsls	r4, r3, #12
    a6b0:	0049      	lsls	r1, r1, #1
    a6b2:	005b      	lsls	r3, r3, #1
    a6b4:	0b2d      	lsrs	r5, r5, #12
    a6b6:	0d49      	lsrs	r1, r1, #21
    a6b8:	0b24      	lsrs	r4, r4, #12
    a6ba:	0d5b      	lsrs	r3, r3, #21
    a6bc:	42b1      	cmp	r1, r6
    a6be:	d004      	beq.n	a6ca <__aeabi_dcmpun+0x22>
    a6c0:	4908      	ldr	r1, [pc, #32]	; (a6e4 <__aeabi_dcmpun+0x3c>)
    a6c2:	2000      	movs	r0, #0
    a6c4:	428b      	cmp	r3, r1
    a6c6:	d008      	beq.n	a6da <__aeabi_dcmpun+0x32>
    a6c8:	bd70      	pop	{r4, r5, r6, pc}
    a6ca:	4305      	orrs	r5, r0
    a6cc:	2001      	movs	r0, #1
    a6ce:	2d00      	cmp	r5, #0
    a6d0:	d1fa      	bne.n	a6c8 <__aeabi_dcmpun+0x20>
    a6d2:	4904      	ldr	r1, [pc, #16]	; (a6e4 <__aeabi_dcmpun+0x3c>)
    a6d4:	2000      	movs	r0, #0
    a6d6:	428b      	cmp	r3, r1
    a6d8:	d1f6      	bne.n	a6c8 <__aeabi_dcmpun+0x20>
    a6da:	4314      	orrs	r4, r2
    a6dc:	0020      	movs	r0, r4
    a6de:	1e44      	subs	r4, r0, #1
    a6e0:	41a0      	sbcs	r0, r4
    a6e2:	e7f1      	b.n	a6c8 <__aeabi_dcmpun+0x20>
    a6e4:	000007ff 	.word	0x000007ff

0000a6e8 <u8g2_font_Terminal_tr>:
    a6e8:	0303005f 04010404 000c0c05 09fe09fe     _...............
    a6f8:	036d0100 20770402 02b10005 b1940c21     ..m...w ....!...
    a708:	48387246 000922c4 dd350722 2322c242     Fr8H."..".5.B."#
    a718:	43919b17 849132a4 48c9a12e 248a9222     ...C.2.....H"..$
    a728:	241c9076 0f240107 464aefb6 254eb111     v..$..$...JF..N%
    a738:	26849222 b8132502 a11c272f b152c485     "..&.%../'....R.
    a748:	85952c54 0008e12a b16c0d26 74d21887     T,..*...&.l....t
    a758:	11b48b38 32062707 2800c27d 4ab19409     8....'.2}..(...J
    a768:	029ba4a2 b1940a29 8ba4a642 072a0012     ....)...B.....*.
    a778:	92229d33 560a2b03 32284af7 2c004509     3."..+.V.J(2.E.,
    a788:	66af3407 062d0252 00c2fb16 9123062e     .4.fR.-.......#.
    a798:	0c2f00c2 494ed185 64899226 0f300032     ../...NI&..d2.0.
    a7a8:	22a71197 112c5523 a926894b 96093100     ..."#U,.K.&..1..
    a7b8:	d4442ef1 0c320327 2286f196 3a650922     ..D.'.2...."".e:
    a7c8:	0e33021d 2286f196 854d2a12 00050924     ..3....".*M.$...
    a7d8:	11970e34 49233853 a9472494 0d350090     4...S8#I.$G...5.
    a7e8:	10e2f196 490aac54 36000a12 4af1960d     ....T..I...6...J
    a7f8:	88ac28a6 00142498 11970c37 49a320e3     .(...$..7.... .I
    a808:	00d55a85 f1960e38 92622286 124c4450     .Z..8...."b.PDL.
    a818:	0e39000a 2286f196 84d49262 0008d932     ..9...."b...2...
    a828:	9163063a 093b6cc2 1d66af74 3c012934     :.c..l;.t.f.4).<
    a838:	2eb17409 0b535124 f546073d 3e350ec2     .t..$QS.=.F...5>
    a848:	22b17409 062945a6 f1960e3f ca122286     .t.".E).?...."..
    a858:	a130e514 0e400008 1887b16c 260ec916     ..0...@.l......&
    a868:	03444dbd f1960c41 3111464a 024c461d     .MD.A...JF.1.FL.
    a878:	11971142 9222a4c3 15252488 88744491     B....."..$%..Dt.
    a888:	970e4300 a2248b11 4449b551 44000a22     .C....$.Q.ID"..D
    a898:	c3119713 889222a4 48892224 0e889222     ....."..$".H"...
    a8a8:	12450011 22e31197 9222c892 93124d18     ..E....".."..M..
    a8b8:	01074445 11971146 c89222e3 4d189222     ED..F....".."..M
    a8c8:	690a9312 970e4700 a2248b11 126a9551     ...i.G....$.Q.j.
    a8d8:	4800a891 42f1960a e230e9c4 94094924     ...H...B..0.$I..
    a8e8:	d22282b1 0f4a0217 288f1197 889222d5     .."...J....(."..
    a8f8:	09112224 97124b00 11246311 22249449     $"...K...c$.I.$"
    a908:	1124449a 4c024a89 8311970b 445bd528     .D$..J.L....(.[D
    a918:	0d4d1074 56431197 112a1c39 4e01371a     t.M...CV9.*..7.N
    a928:	4311970d 28592b46 009b1aa6 11970c4f     ...CF+Y(....O...
    a938:	e351266b 0236a24d 11970f50 9222a4c3     k&Q.M.6.P.....".
    a948:	a9252488 51000d22 6b0db70d 69e35126     .$%."..Q...k&Q.i
    a958:	090aa352 11971052 9222a4c3 89252488     R...R....."..$%.
    a968:	12544548 f1960e53 9d622286 0924444a     HET.S...."b.JD$.
    a978:	0b540005 22e2f196 46f50909 960a5501     ..T...."...F.U..
    a988:	9fc442f1 56001424 42f1960b 9a124fc4     .B..$..V...B.O..
    a998:	0f570008 c6431197 d112844b 24491124     ..W...C.K...$.I$
    a9a8:	970d5800 26c64311 d4499b51 0c5904d8     .X...C.&Q.I...Y.
    a9b8:	c442f196 aa134249 0e5a0051 20e31197     ..B.IB..Q.Z.... 
    a9c8:	aa854922 0041d9b2 b194085b 044fa4c2     "I....A.[.....O.
    a9d8:	d1850c5c 09942642 00994265 b194085d     \...B&..eB..]...
    a9e8:	064fa482 1b47095e a8933a2f 16065f09     ..O.^.G./:..._..
    a9f8:	6000c2ed c27d3206 670d6100 aa2c8711     ...`.2}..a.g..,.
    aa08:	d1222488 0f620044 aa631197 4911525a     .$".D.b...c.ZR.I
    aa18:	65111244 660b6302 222286f1 0028492a     D..e.c.f..""*I(.
    aa28:	11971064 1154aa6f 91124449 089a2444     d...o.T.ID..D$..
    aa38:	f1660c65 0c3a2286 000a1245 f1960d66     e.f..":.E...f...
    aa48:	9451246a 246a8495 87106700 9242670d     j$Q...j$.g...gB.
    aa58:	51222488 91122255 970f6800 45aa6311     .$"QU"...h...c.E
    aa68:	88925134 0092a224 b1940969 e91d2446     4Q..$...i...F$..
    aa78:	b60d6a42 341d52ed 492248d4 0f6b0028     Bj...R.4.H"I(.k.
    aa88:	aa631197 49a25124 92a22a44 94086c00     ..c.$Q.ID*...l..
    aa98:	5fa462b1 670e6d08 8922c311 08942250     .b._.m.g..".P"..
    aaa8:	6e134225 a2f16609 0049e222 f1660a6f     %B.n.f..".I.o.f.
    aab8:	24e22286 107000a1 32430d87 44491152     .".$..p...C2R.ID
    aac8:	24a49112 0f7101a4 42670d87 22248892     ...$..q...gB..$"
    aad8:	15544889 670c7212 92226311 690aa8ac     .HT..r.g.c"....i
    aae8:	660d7300 922286f1 09222588 0c740005     .s.f.."..%"...t.
    aaf8:	282af186 88b508b3 0f750026 24431167     ..*(....&.u.g.C$
    ab08:	12444911 9a244491 660a7608 49c442f1     .ID..D$..v.f.B.I
    ab18:	77011342 4311670d 44a112c6 00244934     B..w.g.C...D4I$.
    ab28:	11670c78 1b512643 026a24ce 0d870f79     x.g.C&Q..$j.y...
    ab38:	49112447 a8911244 7a0344a8 e2f16609     G$.ID....D.z.f..
    ab48:	1d9324a6 d1950b7b 1226a44e 7c0a84ca     .$..{...N.&....|
    ab58:	e2719207 0c7d0081 a842d195 44c91426     ..q...}...B.&..D
    ab68:	0a7e006a 44673738 00269091 04000000     j.~.87gD..&.....
    ab78:	0000ffff                                ....

0000ab7c <u8g2_font_courR08_tr>:
    ab7c:	0202005f 04030403 000a0604 07fe06fe     _...............
    ab8c:	023001fe 20a90374 03a60005 a3390721     ..0.t.. ....!.9.
    ab9c:	22005433 93b29b07 0e2300ac a6579ec5     3T."......#...W.
    abac:	d2995434 004a6550 9ec40c24 1a46471b     4T..PeJ.$....GF.
    abbc:	0013a4c9 a23e0d25 599c53b3 565311a7     ....%.>..S.Y..SV
    abcc:	360b2600 d433aba2 02b8e931 b3190527     .&.6..3.1...'...
    abdc:	4b0a2833 8a629b9b 2901cc75 939acb0a     3(.K..b.u..)....
    abec:	4c558e63 25092a11 cc951bae 0a2b0129     c.UL.*.%....).+.
    abfc:	519ba62d 08a3321c 9a9a072c 2d001497     -..Q.2..,......-
    ac0c:	33ae8c06 11052e02 112f23a3 330f9e4e     ...3.....#/.N..3
    ac1c:	8cc328ca c328cc32 3004328c a7a2bc09     .(..2.(..2.0....
    ac2c:	005267a2 a2bc0831 08d7769b a2bc0932     .gR.1....v..2...
    ac3c:	ed8e62a7 bc0b3311 4e62a7a2 00a4c91a     .b...3....bN....
    ac4c:	a23d0c34 d32a659f 002519d0 a2bc0a35     4.=..e*...%.5...
    ac5c:	28de7433 0a36048f 7237a2bc 0526515e     3t.(..6...7r^Q&.
    ac6c:	a2bc0a37 398e6433 0b3808e6 a2a7a2bc     7...3d.9..8.....
    ac7c:	a4ca2a4c bc0a3900 4ca2a7a2 3a048f3b     L*...9.....L;..:
    ac8c:	a3a32906 b2073b04 0527579a a6ab073c     .)...;...W'.<...
    ac9c:	3d02ea9b 33aa9c08 3e011a32 93a72b07     ...=...32..>.+..
    acac:	093f12ab 62a7a2b4 40008a9b 3b9e460c     ..?....b...@.F.;
    acbc:	cfa91cb3 4102f195 b7a2360b 588e5951     .......A.6..QY.X
    accc:	0b420149 6233a235 1438ab35 b4094300     I.B.5.3b5.8..C..
    acdc:	2ea2a7a2 0c440293 6233a235 714c5315     ......D.5.3b.SLq
    acec:	0b450028 5433a235 38a3334c 350b4606     (.E.5.3TL3.8.F.5
    acfc:	4c5433a2 013cc533 a2b40a47 334ea2a7     .3TL3.<.G.....N3
    ad0c:	0b480029 5523a236 4976238c b50c4901     ).H.6.#U.#vI.I..
    ad1c:	466433a2 87146519 b50b4a00 467237a2     .3dF.e...J...7rF
    ad2c:	02518a65 a2360c4b 1aca64a3 00cd31d5     e.Q.K.6..d...1..
    ad3c:	a2b50b4c 28ca33b3 4d0638a3 93a2b50a     L....3.(.8.M....
    ad4c:	e92a4ad7 360c4e25 8c56a3a2 c959262a     .J*.%N.6..V.*&Y.
    ad5c:	b4094f04 33a2a7a2 0a500029 6233a2b5     .O.....3).P...3b
    ad6c:	13ccd315 9ebc0951 c933a2a7 360b5201     ....Q.....3..R.6
    ad7c:	6c7233a2 006698ee a2b40a53 48d23237     .3rl..f.S...72.H
    ad8c:	0b54048e 9573a235 17946519 36095500     ..T.5.s..e...U.6
    ad9c:	ec5523a2 0d5604b7 46a3a236 9ca7298e     .#U...V.6..F.)..
    adac:	5700ca32 a3a2360c a67d4e46 5800229c     2..W.6..FN}..".X
    adbc:	a3a2b50b 4e519d54 0a5900c9 76a3a2b5     ....T.QN..Y....v
    adcc:	0bca33aa a2b4085a 10e76433 9b4a075b     .3..Z...3d..[.J.
    addc:	5c12fab3 939ecd0f 65198651 19865198     ...\....Q..e.Q..
    adec:	075d1865 faa39b4a 9d075e1a 1d539bb2     e.].J....^....S.
    adfc:	9a0e055f 92066073 610313ba a7a22d0a     _...s`.....a.-..
    ae0c:	aa315c61 3d0c6200 4651a3a2 0e298ab3     a\1..b.=..QF..).
    ae1c:	ac096305 8ea2a7a2 0c640149 51aba2bd     .c......I.d....Q
    ae2c:	14c5315c 0a650aa3 e2a7a2ac 00293148     \1....e.....H1).
    ae3c:	a2bc0a66 b948e2ab 0c67011c a6679abd     f.....H...g...g.
    ae4c:	28dc6298 0b68004d 61a3a23e 5af63b86     .b.(M.h.>..a.;.Z
    ae5c:	bd0c6902 8d499ba2 0e28ca32 cb086a01     .i....I.2.(..j..
    ae6c:	e7679b9a 3d0c6b02 4651a3a2 253a9549     ..g..k.=..QFI.:%
    ae7c:	bd0d6c03 4651a7a2 51946519 096d021c     .l....QF.e.Q..m.
    ae8c:	62a3a22e 6e04bfea 93a22e09 04b5ec74     ...b...n....t...
    ae9c:	a2ac096f 1499a2a7 3d0c7000 1564939a     o........p.=..d.
    aeac:	8f334c53 bd0b7104 98a6679a 0f28dc62     SL3..q...g..b.(.
    aebc:	a2ad0b72 19465693 730091e5 37a2ac0a     r....VF....s...7
    aecc:	2468d232 bd0d7400 1e5197a2 628ca331     2.h$.t....Q.1..b
    aedc:	08750054 64a3a22e 0c762adf 5523a22e     T.u....d.*v...#U
    aeec:	8ca7298e 0b770022 d293a22e 8a7299ea     .)..".w.......r.
    aefc:	2d097800 5d54a3a2 0c790325 54a39a3d     .x.-..T]%.y.=..T
    af0c:	a8c5314c 087a06a3 6233a2ac 097b0873     L1....z...3bs.{.
    af1c:	629b9b4b 7c1d6395 f39b4906 4b0a7d00     K..b.c.|.I...}.K
    af2c:	9d63939b 7e011562 97ae9407 00000254     ..c.b..~....T...
    af3c:	ffff0400 00000000                       ........

0000af44 <u8g2_cb_mirror_vertical>:
    af44:	00000e3f 00000ebb 00000ee1 000010b4     ?...............
    af54:	0000108a 0000109c 000010ae 000010b4     ................
    af64:	000010b4                                ....

0000af68 <u8x8_d_st7565_powersave0_seq>:
    af68:	15a41518 00ff19af                       ........

0000af70 <u8x8_d_st7565_powersave1_seq>:
    af70:	15ae1518 00ff19a5                       ........

0000af78 <u8x8_d_st7565_zflip0_seq>:
    af78:	15a11518 00ff19c8                       ........

0000af80 <u8x8_d_st7565_zflip1_seq>:
    af80:	15a01518 00ff19c0                       ........

0000af88 <u8x8_d_st7565_zolen_128x64_init_seq>:
    af88:	15e21518 154015ae 15c815a1 15a215a6     ......@.........
    af98:	16f8152f 15271500 15071681 19a515ae     /.....'.........
    afa8:	000000ff                                ....

0000afac <u8x8_st7565_128x64_display_info>:
    afac:	32960100 78320101 003d0900 50280400     ...2..2x..=...(P
    afbc:	04000810 00400080 682f2e2e 732f6c61     ......@.../hal/s
    afcc:	682f6372 695f6c61 6d5f6332 6e79735f     rc/hal_i2c_m_syn
    afdc:	00632e63 682f2e2e 732f6c61 682f6372     c.c.../hal/src/h
    afec:	695f6c61 00632e6f 682f2e2e 732f6c61     al_io.c.../hal/s
    affc:	682f6372 735f6c61 6d5f6970 6e79735f     rc/hal_spi_m_syn
    b00c:	00632e63 682f2e2e 732f6c61 682f6372     c.c.../hal/src/h
    b01c:	755f6c61 74726173 6e79735f 00632e63     al_usart_sync.c.
    b02c:	682f2e2e 652f6c70 682f6369 655f6c70     ../hpl/eic/hpl_e
    b03c:	632e6369 00000000                       ic.c....

0000b044 <_map>:
    b044:	00000001 00000021 00000008 00000028     ....!.......(...
    b054:	0000000a 0000000a 0000000e 0000003e     ............>...
    b064:	682f2e2e 732f6c70 6f637265 70682f6d     ../hpl/sercom/hp
    b074:	65735f6c 6d6f6372 0000632e              l_sercom.c..

0000b080 <_i2cms>:
    b080:	00000002 00200014 00000100 000000ea     ...... .........
    b090:	000000d7 02dc6c00 00000004 00200014     .....l........ .
    b0a0:	00000100 00003736 000000d7 02dc6c00     ....67.......l..

0000b0b0 <_usarts>:
    b0b0:	00000003 40100004 00030000 0000eaaa     .......@........

0000b0c0 <sercomspi_regs>:
    b0c0:	0020000c 00020000 00000000 000000ef     .. .............
    b0d0:	0020000c 00020000 00000000 010000fe     .. .............
    b0e0:	1001000c 00020000 00000000 050000fe     ................
    b0f0:	00002bba 00002be6 00002be6 00002bae     .+...+...+...+..
    b100:	00002bd2 00002bdc 00002be6 00002be6     .+...+...+...+..
    b110:	00002be6 00002be6 00002be6 00002be6     .+...+...+...+..
    b120:	00002bc4 00003348 0000332e 000032fe     .+..H3...3...2..
    b130:	000032d6 000032ae 00ff0706 00ffff02     .2...2..........
    b140:	20706553 32203520 00343230 343a3032     Sep  5 2024.20:4
    b150:	39353a33 00000000 20756854 20706553     3:59....Thu Sep 
    b160:	32203530 33343a30 2037353a 34323032     05 20:43:57 2024
    b170:	00000000 64343025 00000000 64323025     ....%04d....%02d
    b180:	3230253a 30253a64 00006432 64353025     :%02d:%02d..%05d
    b190:	2020566d 64353025 0000416d 312e3325     mV  %05dmA..%3.1
    b1a0:	20205766 332e3325 00685766 64333025     fW  %3.3fWh.%03d
    b1b0:	72724520 3225203a 5766312e 00000068      Err: %2.1fWh...
    b1c0:	000044f0 00004440 00004440 0000443e     .D..@D..@D..>D..
    b1d0:	000044e2 000044e2 000044d8 0000443e     .D...D...D..>D..
    b1e0:	000044e2 000044d8 000044e2 0000443e     .D...D...D..>D..
    b1f0:	000044e8 000044e8 000044e8 00004578     .D...D...D..xE..
    b200:	00004b74 00004b56 00004b10 00004a2e     tK..VK...K...J..
    b210:	00004b10 00004b48 00004b10 00004a2e     .K..HK...K...J..
    b220:	00004b56 00004b56 00004b48 00004a2e     VK..VK..HK...J..
    b230:	00004a26 00004a26 00004a26 00004d8c     &J..&J..&J...M..
    b240:	000051d4 00005094 00005094 00005090     .Q...P...P...P..
    b250:	000051ac 000051ac 0000519e 00005090     .Q...Q...Q...P..
    b260:	000051ac 0000519e 000051ac 00005090     .Q...Q...Q...P..
    b270:	000051b4 000051b4 000051b4 000053b8     .Q...Q...Q...S..

0000b280 <_global_impure_ptr>:
    b280:	20000020 00006934 000069a8 000069a8      .. 4i...i...i..
    b290:	00006918 000069a8 000069a8 000069a8     .i...i...i...i..
    b2a0:	000069a8 000069a8 000069a8 00006920     .i...i...i.. i..
    b2b0:	00006402 000069a8 000063bc 0000640c     .d...i...c...d..
    b2c0:	000069a8 00006458 00006642 00006642     .i..Xd..Bf..Bf..
    b2d0:	00006642 00006642 00006642 00006642     Bf..Bf..Bf..Bf..
    b2e0:	00006642 00006642 00006642 000069a8     Bf..Bf..Bf...i..
    b2f0:	000069a8 000069a8 000069a8 000069a8     .i...i...i...i..
    b300:	000069a8 000069a8 000069a8 000069a8     .i...i...i...i..
    b310:	000069a8 00006460 000065a8 000069a8     .i..`d...e...i..
    b320:	000065a8 000069a8 000069a8 000069a8     .e...i...i...i..
    b330:	000069a8 00006672 000069a8 000069a8     .i..rf...i...i..
    b340:	0000667a 000069a8 000069a8 000069a8     zf...i...i...i..
    b350:	000069a8 000069a8 0000671c 000069a8     .i...i...g...i..
    b360:	000069a8 0000674e 000069a8 000069a8     .i..Ng...i...i..
    b370:	000069a8 000069a8 000069a8 000069a8     .i...i...i...i..
    b380:	000069a8 000069a8 000069a8 000069a8     .i...i...i...i..
    b390:	00006848 0000687c 000065a8 000065a8     Hh..|h...e...e..
    b3a0:	000065a8 0000688e 0000687c 000069a8     .e...h..|h...i..
    b3b0:	000069a8 00006896 000069a8 000067b0     .i...h...i...g..
    b3c0:	00006976 000068ec 000067e6 000069a8     vi...h...g...i..
    b3d0:	000067ee 000069a8 00006944 000069a8     .g...i..Di...i..
    b3e0:	000069a8 000068a6 00464e49 00666e69     .i...h..INF.inf.
    b3f0:	004e414e 006e616e 33323130 37363534     NAN.nan.01234567
    b400:	42413938 46454443 00000000 33323130     89ABCDEF....0123
    b410:	37363534 62613938 66656463 00000000     456789abcdef....
    b420:	6c756e28 0000296c 00000030              (null)..0...

0000b42c <blanks.7223>:
    b42c:	20202020 20202020 20202020 20202020                     

0000b43c <zeroes.7224>:
    b43c:	30303030 30303030 30303030 30303030     0000000000000000
    b44c:	69666e49 7974696e 00000000 004e614e     Infinity....NaN.
    b45c:	00000000                                ....

0000b460 <__mprec_bigtens>:
    b460:	37e08000 4341c379 b5056e17 4693b8b5     ...7y.AC.n.....F
    b470:	e93ff9f5 4d384f03 f9301d32 5a827748     ..?..O8M2.0.Hw.Z
    b480:	7f73bf3c 75154fdd                       <.s..O.u

0000b488 <__mprec_tens>:
    b488:	00000000 3ff00000 00000000 40240000     .......?......$@
    b498:	00000000 40590000 00000000 408f4000     ......Y@.....@.@
    b4a8:	00000000 40c38800 00000000 40f86a00     .......@.....j.@
    b4b8:	00000000 412e8480 00000000 416312d0     .......A......cA
    b4c8:	00000000 4197d784 00000000 41cdcd65     .......A....e..A
    b4d8:	20000000 4202a05f e8000000 42374876     ... _..B....vH7B
    b4e8:	a2000000 426d1a94 e5400000 42a2309c     ......mB..@..0.B
    b4f8:	1e900000 42d6bcc4 26340000 430c6bf5     .......B..4&.k.C
    b508:	37e08000 4341c379 85d8a000 43763457     ...7y.AC....W4vC
    b518:	674ec800 43abc16d 60913d00 43e158e4     ..Ngm..C.=.`.X.C
    b528:	78b58c40 4415af1d d6e2ef50 444b1ae4     @..x...DP.....KD
    b538:	064dd592 4480f0cf c7e14af6 44b52d02     ..M....D.J...-.D
    b548:	79d99db4 44ea7843                       ...yCx.D

0000b550 <p05.6055>:
    b550:	00000005 00000019 0000007d 00000043     ........}...C...
    b560:	49534f50 00000058 0000002e              POSIX.......

0000b56c <_ctype_>:
    b56c:	20202000 20202020 28282020 20282828     .         ((((( 
    b57c:	20202020 20202020 20202020 20202020                     
    b58c:	10108820 10101010 10101010 10101010      ...............
    b59c:	04040410 04040404 10040404 10101010     ................
    b5ac:	41411010 41414141 01010101 01010101     ..AAAAAA........
    b5bc:	01010101 01010101 01010101 10101010     ................
    b5cc:	42421010 42424242 02020202 02020202     ..BBBBBB........
    b5dc:	02020202 02020202 02020202 10101010     ................
    b5ec:	00000020 00000000 00000000 00000000      ...............
	...

0000b670 <_init>:
    b670:	b5f8      	push	{r3, r4, r5, r6, r7, lr}
    b672:	46c0      	nop			; (mov r8, r8)
    b674:	bcf8      	pop	{r3, r4, r5, r6, r7}
    b676:	bc08      	pop	{r3}
    b678:	469e      	mov	lr, r3
    b67a:	4770      	bx	lr

0000b67c <__init_array_start>:
    b67c:	000078e1 	.word	0x000078e1

0000b680 <__frame_dummy_init_array_entry>:
    b680:	000000cd                                ....

0000b684 <_fini>:
    b684:	b5f8      	push	{r3, r4, r5, r6, r7, lr}
    b686:	46c0      	nop			; (mov r8, r8)
    b688:	bcf8      	pop	{r3, r4, r5, r6, r7}
    b68a:	bc08      	pop	{r3}
    b68c:	469e      	mov	lr, r3
    b68e:	4770      	bx	lr

0000b690 <__fini_array_start>:
    b690:	000000a5 	.word	0x000000a5
